ARM GAS  C:\Users\main\AppData\Local\Temp\ccnKsYwO.s 			page 1


   1              		.cpu cortex-m0plus
   2              		.arch armv6s-m
   3              		.fpu softvfp
   4              		.eabi_attribute 20, 1
   5              		.eabi_attribute 21, 1
   6              		.eabi_attribute 23, 3
   7              		.eabi_attribute 24, 1
   8              		.eabi_attribute 25, 1
   9              		.eabi_attribute 26, 1
  10              		.eabi_attribute 30, 1
  11              		.eabi_attribute 34, 0
  12              		.eabi_attribute 18, 4
  13              		.file	"event_groups.c"
  14              		.text
  15              	.Ltext0:
  16              		.cfi_sections	.debug_frame
  17              		.section	.text.prvTestWaitCondition,"ax",%progbits
  18              		.align	1
  19              		.syntax unified
  20              		.code	16
  21              		.thumb_func
  23              	prvTestWaitCondition:
  24              	.LVL0:
  25              	.LFB13:
  26              		.file 1 "Middlewares/Third_Party/FreeRTOS/Source/event_groups.c"
   1:Middlewares/Third_Party/FreeRTOS/Source/event_groups.c **** /*
   2:Middlewares/Third_Party/FreeRTOS/Source/event_groups.c ****  * FreeRTOS Kernel V10.6.2
   3:Middlewares/Third_Party/FreeRTOS/Source/event_groups.c ****  * Copyright (C) 2021 Amazon.com, Inc. or its affiliates.  All Rights Reserved.
   4:Middlewares/Third_Party/FreeRTOS/Source/event_groups.c ****  *
   5:Middlewares/Third_Party/FreeRTOS/Source/event_groups.c ****  * SPDX-License-Identifier: MIT
   6:Middlewares/Third_Party/FreeRTOS/Source/event_groups.c ****  *
   7:Middlewares/Third_Party/FreeRTOS/Source/event_groups.c ****  * Permission is hereby granted, free of charge, to any person obtaining a copy of
   8:Middlewares/Third_Party/FreeRTOS/Source/event_groups.c ****  * this software and associated documentation files (the "Software"), to deal in
   9:Middlewares/Third_Party/FreeRTOS/Source/event_groups.c ****  * the Software without restriction, including without limitation the rights to
  10:Middlewares/Third_Party/FreeRTOS/Source/event_groups.c ****  * use, copy, modify, merge, publish, distribute, sublicense, and/or sell copies of
  11:Middlewares/Third_Party/FreeRTOS/Source/event_groups.c ****  * the Software, and to permit persons to whom the Software is furnished to do so,
  12:Middlewares/Third_Party/FreeRTOS/Source/event_groups.c ****  * subject to the following conditions:
  13:Middlewares/Third_Party/FreeRTOS/Source/event_groups.c ****  *
  14:Middlewares/Third_Party/FreeRTOS/Source/event_groups.c ****  * The above copyright notice and this permission notice shall be included in all
  15:Middlewares/Third_Party/FreeRTOS/Source/event_groups.c ****  * copies or substantial portions of the Software.
  16:Middlewares/Third_Party/FreeRTOS/Source/event_groups.c ****  *
  17:Middlewares/Third_Party/FreeRTOS/Source/event_groups.c ****  * THE SOFTWARE IS PROVIDED "AS IS", WITHOUT WARRANTY OF ANY KIND, EXPRESS OR
  18:Middlewares/Third_Party/FreeRTOS/Source/event_groups.c ****  * IMPLIED, INCLUDING BUT NOT LIMITED TO THE WARRANTIES OF MERCHANTABILITY, FITNESS
  19:Middlewares/Third_Party/FreeRTOS/Source/event_groups.c ****  * FOR A PARTICULAR PURPOSE AND NONINFRINGEMENT. IN NO EVENT SHALL THE AUTHORS OR
  20:Middlewares/Third_Party/FreeRTOS/Source/event_groups.c ****  * COPYRIGHT HOLDERS BE LIABLE FOR ANY CLAIM, DAMAGES OR OTHER LIABILITY, WHETHER
  21:Middlewares/Third_Party/FreeRTOS/Source/event_groups.c ****  * IN AN ACTION OF CONTRACT, TORT OR OTHERWISE, ARISING FROM, OUT OF OR IN
  22:Middlewares/Third_Party/FreeRTOS/Source/event_groups.c ****  * CONNECTION WITH THE SOFTWARE OR THE USE OR OTHER DEALINGS IN THE SOFTWARE.
  23:Middlewares/Third_Party/FreeRTOS/Source/event_groups.c ****  *
  24:Middlewares/Third_Party/FreeRTOS/Source/event_groups.c ****  * https://www.FreeRTOS.org
  25:Middlewares/Third_Party/FreeRTOS/Source/event_groups.c ****  * https://github.com/FreeRTOS
  26:Middlewares/Third_Party/FreeRTOS/Source/event_groups.c ****  *
  27:Middlewares/Third_Party/FreeRTOS/Source/event_groups.c ****  */
  28:Middlewares/Third_Party/FreeRTOS/Source/event_groups.c **** 
  29:Middlewares/Third_Party/FreeRTOS/Source/event_groups.c **** /* Standard includes. */
  30:Middlewares/Third_Party/FreeRTOS/Source/event_groups.c **** #include <stdlib.h>
  31:Middlewares/Third_Party/FreeRTOS/Source/event_groups.c **** 
  32:Middlewares/Third_Party/FreeRTOS/Source/event_groups.c **** /* Defining MPU_WRAPPERS_INCLUDED_FROM_API_FILE prevents task.h from redefining
ARM GAS  C:\Users\main\AppData\Local\Temp\ccnKsYwO.s 			page 2


  33:Middlewares/Third_Party/FreeRTOS/Source/event_groups.c ****  * all the API functions to use the MPU wrappers.  That should only be done when
  34:Middlewares/Third_Party/FreeRTOS/Source/event_groups.c ****  * task.h is included from an application file. */
  35:Middlewares/Third_Party/FreeRTOS/Source/event_groups.c **** #define MPU_WRAPPERS_INCLUDED_FROM_API_FILE
  36:Middlewares/Third_Party/FreeRTOS/Source/event_groups.c **** 
  37:Middlewares/Third_Party/FreeRTOS/Source/event_groups.c **** /* FreeRTOS includes. */
  38:Middlewares/Third_Party/FreeRTOS/Source/event_groups.c **** #include "FreeRTOS.h"
  39:Middlewares/Third_Party/FreeRTOS/Source/event_groups.c **** #include "task.h"
  40:Middlewares/Third_Party/FreeRTOS/Source/event_groups.c **** #include "timers.h"
  41:Middlewares/Third_Party/FreeRTOS/Source/event_groups.c **** #include "event_groups.h"
  42:Middlewares/Third_Party/FreeRTOS/Source/event_groups.c **** 
  43:Middlewares/Third_Party/FreeRTOS/Source/event_groups.c **** /* Lint e961, e750 and e9021 are suppressed as a MISRA exception justified
  44:Middlewares/Third_Party/FreeRTOS/Source/event_groups.c ****  * because the MPU ports require MPU_WRAPPERS_INCLUDED_FROM_API_FILE to be defined
  45:Middlewares/Third_Party/FreeRTOS/Source/event_groups.c ****  * for the header files above, but not in this file, in order to generate the
  46:Middlewares/Third_Party/FreeRTOS/Source/event_groups.c ****  * correct privileged Vs unprivileged linkage and placement. */
  47:Middlewares/Third_Party/FreeRTOS/Source/event_groups.c **** #undef MPU_WRAPPERS_INCLUDED_FROM_API_FILE /*lint !e961 !e750 !e9021 See comment above. */
  48:Middlewares/Third_Party/FreeRTOS/Source/event_groups.c **** 
  49:Middlewares/Third_Party/FreeRTOS/Source/event_groups.c **** typedef struct EventGroupDef_t
  50:Middlewares/Third_Party/FreeRTOS/Source/event_groups.c **** {
  51:Middlewares/Third_Party/FreeRTOS/Source/event_groups.c ****     EventBits_t uxEventBits;
  52:Middlewares/Third_Party/FreeRTOS/Source/event_groups.c ****     List_t xTasksWaitingForBits; /**< List of tasks waiting for a bit to be set. */
  53:Middlewares/Third_Party/FreeRTOS/Source/event_groups.c **** 
  54:Middlewares/Third_Party/FreeRTOS/Source/event_groups.c ****     #if ( configUSE_TRACE_FACILITY == 1 )
  55:Middlewares/Third_Party/FreeRTOS/Source/event_groups.c ****         UBaseType_t uxEventGroupNumber;
  56:Middlewares/Third_Party/FreeRTOS/Source/event_groups.c ****     #endif
  57:Middlewares/Third_Party/FreeRTOS/Source/event_groups.c **** 
  58:Middlewares/Third_Party/FreeRTOS/Source/event_groups.c ****     #if ( ( configSUPPORT_STATIC_ALLOCATION == 1 ) && ( configSUPPORT_DYNAMIC_ALLOCATION == 1 ) )
  59:Middlewares/Third_Party/FreeRTOS/Source/event_groups.c ****         uint8_t ucStaticallyAllocated; /**< Set to pdTRUE if the event group is statically allocate
  60:Middlewares/Third_Party/FreeRTOS/Source/event_groups.c ****     #endif
  61:Middlewares/Third_Party/FreeRTOS/Source/event_groups.c **** } EventGroup_t;
  62:Middlewares/Third_Party/FreeRTOS/Source/event_groups.c **** 
  63:Middlewares/Third_Party/FreeRTOS/Source/event_groups.c **** /*-----------------------------------------------------------*/
  64:Middlewares/Third_Party/FreeRTOS/Source/event_groups.c **** 
  65:Middlewares/Third_Party/FreeRTOS/Source/event_groups.c **** /*
  66:Middlewares/Third_Party/FreeRTOS/Source/event_groups.c ****  * Test the bits set in uxCurrentEventBits to see if the wait condition is met.
  67:Middlewares/Third_Party/FreeRTOS/Source/event_groups.c ****  * The wait condition is defined by xWaitForAllBits.  If xWaitForAllBits is
  68:Middlewares/Third_Party/FreeRTOS/Source/event_groups.c ****  * pdTRUE then the wait condition is met if all the bits set in uxBitsToWaitFor
  69:Middlewares/Third_Party/FreeRTOS/Source/event_groups.c ****  * are also set in uxCurrentEventBits.  If xWaitForAllBits is pdFALSE then the
  70:Middlewares/Third_Party/FreeRTOS/Source/event_groups.c ****  * wait condition is met if any of the bits set in uxBitsToWait for are also set
  71:Middlewares/Third_Party/FreeRTOS/Source/event_groups.c ****  * in uxCurrentEventBits.
  72:Middlewares/Third_Party/FreeRTOS/Source/event_groups.c ****  */
  73:Middlewares/Third_Party/FreeRTOS/Source/event_groups.c **** static BaseType_t prvTestWaitCondition( const EventBits_t uxCurrentEventBits,
  74:Middlewares/Third_Party/FreeRTOS/Source/event_groups.c ****                                         const EventBits_t uxBitsToWaitFor,
  75:Middlewares/Third_Party/FreeRTOS/Source/event_groups.c ****                                         const BaseType_t xWaitForAllBits ) PRIVILEGED_FUNCTION;
  76:Middlewares/Third_Party/FreeRTOS/Source/event_groups.c **** 
  77:Middlewares/Third_Party/FreeRTOS/Source/event_groups.c **** /*-----------------------------------------------------------*/
  78:Middlewares/Third_Party/FreeRTOS/Source/event_groups.c **** 
  79:Middlewares/Third_Party/FreeRTOS/Source/event_groups.c **** #if ( configSUPPORT_STATIC_ALLOCATION == 1 )
  80:Middlewares/Third_Party/FreeRTOS/Source/event_groups.c **** 
  81:Middlewares/Third_Party/FreeRTOS/Source/event_groups.c ****     EventGroupHandle_t xEventGroupCreateStatic( StaticEventGroup_t * pxEventGroupBuffer )
  82:Middlewares/Third_Party/FreeRTOS/Source/event_groups.c ****     {
  83:Middlewares/Third_Party/FreeRTOS/Source/event_groups.c ****         EventGroup_t * pxEventBits;
  84:Middlewares/Third_Party/FreeRTOS/Source/event_groups.c **** 
  85:Middlewares/Third_Party/FreeRTOS/Source/event_groups.c ****         /* A StaticEventGroup_t object must be provided. */
  86:Middlewares/Third_Party/FreeRTOS/Source/event_groups.c ****         configASSERT( pxEventGroupBuffer );
  87:Middlewares/Third_Party/FreeRTOS/Source/event_groups.c **** 
  88:Middlewares/Third_Party/FreeRTOS/Source/event_groups.c ****         #if ( configASSERT_DEFINED == 1 )
  89:Middlewares/Third_Party/FreeRTOS/Source/event_groups.c ****         {
ARM GAS  C:\Users\main\AppData\Local\Temp\ccnKsYwO.s 			page 3


  90:Middlewares/Third_Party/FreeRTOS/Source/event_groups.c ****             /* Sanity check that the size of the structure used to declare a
  91:Middlewares/Third_Party/FreeRTOS/Source/event_groups.c ****              * variable of type StaticEventGroup_t equals the size of the real
  92:Middlewares/Third_Party/FreeRTOS/Source/event_groups.c ****              * event group structure. */
  93:Middlewares/Third_Party/FreeRTOS/Source/event_groups.c ****             volatile size_t xSize = sizeof( StaticEventGroup_t );
  94:Middlewares/Third_Party/FreeRTOS/Source/event_groups.c ****             configASSERT( xSize == sizeof( EventGroup_t ) );
  95:Middlewares/Third_Party/FreeRTOS/Source/event_groups.c ****         } /*lint !e529 xSize is referenced if configASSERT() is defined. */
  96:Middlewares/Third_Party/FreeRTOS/Source/event_groups.c ****         #endif /* configASSERT_DEFINED */
  97:Middlewares/Third_Party/FreeRTOS/Source/event_groups.c **** 
  98:Middlewares/Third_Party/FreeRTOS/Source/event_groups.c ****         /* The user has provided a statically allocated event group - use it. */
  99:Middlewares/Third_Party/FreeRTOS/Source/event_groups.c ****         pxEventBits = ( EventGroup_t * ) pxEventGroupBuffer; /*lint !e740 !e9087 EventGroup_t and S
 100:Middlewares/Third_Party/FreeRTOS/Source/event_groups.c **** 
 101:Middlewares/Third_Party/FreeRTOS/Source/event_groups.c ****         if( pxEventBits != NULL )
 102:Middlewares/Third_Party/FreeRTOS/Source/event_groups.c ****         {
 103:Middlewares/Third_Party/FreeRTOS/Source/event_groups.c ****             pxEventBits->uxEventBits = 0;
 104:Middlewares/Third_Party/FreeRTOS/Source/event_groups.c ****             vListInitialise( &( pxEventBits->xTasksWaitingForBits ) );
 105:Middlewares/Third_Party/FreeRTOS/Source/event_groups.c **** 
 106:Middlewares/Third_Party/FreeRTOS/Source/event_groups.c ****             #if ( configSUPPORT_DYNAMIC_ALLOCATION == 1 )
 107:Middlewares/Third_Party/FreeRTOS/Source/event_groups.c ****             {
 108:Middlewares/Third_Party/FreeRTOS/Source/event_groups.c ****                 /* Both static and dynamic allocation can be used, so note that
 109:Middlewares/Third_Party/FreeRTOS/Source/event_groups.c ****                  * this event group was created statically in case the event group
 110:Middlewares/Third_Party/FreeRTOS/Source/event_groups.c ****                  * is later deleted. */
 111:Middlewares/Third_Party/FreeRTOS/Source/event_groups.c ****                 pxEventBits->ucStaticallyAllocated = pdTRUE;
 112:Middlewares/Third_Party/FreeRTOS/Source/event_groups.c ****             }
 113:Middlewares/Third_Party/FreeRTOS/Source/event_groups.c ****             #endif /* configSUPPORT_DYNAMIC_ALLOCATION */
 114:Middlewares/Third_Party/FreeRTOS/Source/event_groups.c **** 
 115:Middlewares/Third_Party/FreeRTOS/Source/event_groups.c ****             traceEVENT_GROUP_CREATE( pxEventBits );
 116:Middlewares/Third_Party/FreeRTOS/Source/event_groups.c ****         }
 117:Middlewares/Third_Party/FreeRTOS/Source/event_groups.c ****         else
 118:Middlewares/Third_Party/FreeRTOS/Source/event_groups.c ****         {
 119:Middlewares/Third_Party/FreeRTOS/Source/event_groups.c ****             /* xEventGroupCreateStatic should only ever be called with
 120:Middlewares/Third_Party/FreeRTOS/Source/event_groups.c ****              * pxEventGroupBuffer pointing to a pre-allocated (compile time
 121:Middlewares/Third_Party/FreeRTOS/Source/event_groups.c ****              * allocated) StaticEventGroup_t variable. */
 122:Middlewares/Third_Party/FreeRTOS/Source/event_groups.c ****             traceEVENT_GROUP_CREATE_FAILED();
 123:Middlewares/Third_Party/FreeRTOS/Source/event_groups.c ****         }
 124:Middlewares/Third_Party/FreeRTOS/Source/event_groups.c **** 
 125:Middlewares/Third_Party/FreeRTOS/Source/event_groups.c ****         return pxEventBits;
 126:Middlewares/Third_Party/FreeRTOS/Source/event_groups.c ****     }
 127:Middlewares/Third_Party/FreeRTOS/Source/event_groups.c **** 
 128:Middlewares/Third_Party/FreeRTOS/Source/event_groups.c **** #endif /* configSUPPORT_STATIC_ALLOCATION */
 129:Middlewares/Third_Party/FreeRTOS/Source/event_groups.c **** /*-----------------------------------------------------------*/
 130:Middlewares/Third_Party/FreeRTOS/Source/event_groups.c **** 
 131:Middlewares/Third_Party/FreeRTOS/Source/event_groups.c **** #if ( configSUPPORT_DYNAMIC_ALLOCATION == 1 )
 132:Middlewares/Third_Party/FreeRTOS/Source/event_groups.c **** 
 133:Middlewares/Third_Party/FreeRTOS/Source/event_groups.c ****     EventGroupHandle_t xEventGroupCreate( void )
 134:Middlewares/Third_Party/FreeRTOS/Source/event_groups.c ****     {
 135:Middlewares/Third_Party/FreeRTOS/Source/event_groups.c ****         EventGroup_t * pxEventBits;
 136:Middlewares/Third_Party/FreeRTOS/Source/event_groups.c **** 
 137:Middlewares/Third_Party/FreeRTOS/Source/event_groups.c ****         /* Allocate the event group.  Justification for MISRA deviation as
 138:Middlewares/Third_Party/FreeRTOS/Source/event_groups.c ****          * follows:  pvPortMalloc() always ensures returned memory blocks are
 139:Middlewares/Third_Party/FreeRTOS/Source/event_groups.c ****          * aligned per the requirements of the MCU stack.  In this case
 140:Middlewares/Third_Party/FreeRTOS/Source/event_groups.c ****          * pvPortMalloc() must return a pointer that is guaranteed to meet the
 141:Middlewares/Third_Party/FreeRTOS/Source/event_groups.c ****          * alignment requirements of the EventGroup_t structure - which (if you
 142:Middlewares/Third_Party/FreeRTOS/Source/event_groups.c ****          * follow it through) is the alignment requirements of the TickType_t type
 143:Middlewares/Third_Party/FreeRTOS/Source/event_groups.c ****          * (EventBits_t being of TickType_t itself).  Therefore, whenever the
 144:Middlewares/Third_Party/FreeRTOS/Source/event_groups.c ****          * stack alignment requirements are greater than or equal to the
 145:Middlewares/Third_Party/FreeRTOS/Source/event_groups.c ****          * TickType_t alignment requirements the cast is safe.  In other cases,
 146:Middlewares/Third_Party/FreeRTOS/Source/event_groups.c ****          * where the natural word size of the architecture is less than
ARM GAS  C:\Users\main\AppData\Local\Temp\ccnKsYwO.s 			page 4


 147:Middlewares/Third_Party/FreeRTOS/Source/event_groups.c ****          * sizeof( TickType_t ), the TickType_t variables will be accessed in two
 148:Middlewares/Third_Party/FreeRTOS/Source/event_groups.c ****          * or more reads operations, and the alignment requirements is only that
 149:Middlewares/Third_Party/FreeRTOS/Source/event_groups.c ****          * of each individual read. */
 150:Middlewares/Third_Party/FreeRTOS/Source/event_groups.c ****         pxEventBits = ( EventGroup_t * ) pvPortMalloc( sizeof( EventGroup_t ) ); /*lint !e9087 !e90
 151:Middlewares/Third_Party/FreeRTOS/Source/event_groups.c **** 
 152:Middlewares/Third_Party/FreeRTOS/Source/event_groups.c ****         if( pxEventBits != NULL )
 153:Middlewares/Third_Party/FreeRTOS/Source/event_groups.c ****         {
 154:Middlewares/Third_Party/FreeRTOS/Source/event_groups.c ****             pxEventBits->uxEventBits = 0;
 155:Middlewares/Third_Party/FreeRTOS/Source/event_groups.c ****             vListInitialise( &( pxEventBits->xTasksWaitingForBits ) );
 156:Middlewares/Third_Party/FreeRTOS/Source/event_groups.c **** 
 157:Middlewares/Third_Party/FreeRTOS/Source/event_groups.c ****             #if ( configSUPPORT_STATIC_ALLOCATION == 1 )
 158:Middlewares/Third_Party/FreeRTOS/Source/event_groups.c ****             {
 159:Middlewares/Third_Party/FreeRTOS/Source/event_groups.c ****                 /* Both static and dynamic allocation can be used, so note this
 160:Middlewares/Third_Party/FreeRTOS/Source/event_groups.c ****                  * event group was allocated statically in case the event group is
 161:Middlewares/Third_Party/FreeRTOS/Source/event_groups.c ****                  * later deleted. */
 162:Middlewares/Third_Party/FreeRTOS/Source/event_groups.c ****                 pxEventBits->ucStaticallyAllocated = pdFALSE;
 163:Middlewares/Third_Party/FreeRTOS/Source/event_groups.c ****             }
 164:Middlewares/Third_Party/FreeRTOS/Source/event_groups.c ****             #endif /* configSUPPORT_STATIC_ALLOCATION */
 165:Middlewares/Third_Party/FreeRTOS/Source/event_groups.c **** 
 166:Middlewares/Third_Party/FreeRTOS/Source/event_groups.c ****             traceEVENT_GROUP_CREATE( pxEventBits );
 167:Middlewares/Third_Party/FreeRTOS/Source/event_groups.c ****         }
 168:Middlewares/Third_Party/FreeRTOS/Source/event_groups.c ****         else
 169:Middlewares/Third_Party/FreeRTOS/Source/event_groups.c ****         {
 170:Middlewares/Third_Party/FreeRTOS/Source/event_groups.c ****             traceEVENT_GROUP_CREATE_FAILED(); /*lint !e9063 Else branch only exists to allow tracin
 171:Middlewares/Third_Party/FreeRTOS/Source/event_groups.c ****         }
 172:Middlewares/Third_Party/FreeRTOS/Source/event_groups.c **** 
 173:Middlewares/Third_Party/FreeRTOS/Source/event_groups.c ****         return pxEventBits;
 174:Middlewares/Third_Party/FreeRTOS/Source/event_groups.c ****     }
 175:Middlewares/Third_Party/FreeRTOS/Source/event_groups.c **** 
 176:Middlewares/Third_Party/FreeRTOS/Source/event_groups.c **** #endif /* configSUPPORT_DYNAMIC_ALLOCATION */
 177:Middlewares/Third_Party/FreeRTOS/Source/event_groups.c **** /*-----------------------------------------------------------*/
 178:Middlewares/Third_Party/FreeRTOS/Source/event_groups.c **** 
 179:Middlewares/Third_Party/FreeRTOS/Source/event_groups.c **** EventBits_t xEventGroupSync( EventGroupHandle_t xEventGroup,
 180:Middlewares/Third_Party/FreeRTOS/Source/event_groups.c ****                              const EventBits_t uxBitsToSet,
 181:Middlewares/Third_Party/FreeRTOS/Source/event_groups.c ****                              const EventBits_t uxBitsToWaitFor,
 182:Middlewares/Third_Party/FreeRTOS/Source/event_groups.c ****                              TickType_t xTicksToWait )
 183:Middlewares/Third_Party/FreeRTOS/Source/event_groups.c **** {
 184:Middlewares/Third_Party/FreeRTOS/Source/event_groups.c ****     EventBits_t uxOriginalBitValue, uxReturn;
 185:Middlewares/Third_Party/FreeRTOS/Source/event_groups.c ****     EventGroup_t * pxEventBits = xEventGroup;
 186:Middlewares/Third_Party/FreeRTOS/Source/event_groups.c ****     BaseType_t xAlreadyYielded;
 187:Middlewares/Third_Party/FreeRTOS/Source/event_groups.c ****     BaseType_t xTimeoutOccurred = pdFALSE;
 188:Middlewares/Third_Party/FreeRTOS/Source/event_groups.c **** 
 189:Middlewares/Third_Party/FreeRTOS/Source/event_groups.c ****     configASSERT( ( uxBitsToWaitFor & eventEVENT_BITS_CONTROL_BYTES ) == 0 );
 190:Middlewares/Third_Party/FreeRTOS/Source/event_groups.c ****     configASSERT( uxBitsToWaitFor != 0 );
 191:Middlewares/Third_Party/FreeRTOS/Source/event_groups.c ****     #if ( ( INCLUDE_xTaskGetSchedulerState == 1 ) || ( configUSE_TIMERS == 1 ) )
 192:Middlewares/Third_Party/FreeRTOS/Source/event_groups.c ****     {
 193:Middlewares/Third_Party/FreeRTOS/Source/event_groups.c ****         configASSERT( !( ( xTaskGetSchedulerState() == taskSCHEDULER_SUSPENDED ) && ( xTicksToWait 
 194:Middlewares/Third_Party/FreeRTOS/Source/event_groups.c ****     }
 195:Middlewares/Third_Party/FreeRTOS/Source/event_groups.c ****     #endif
 196:Middlewares/Third_Party/FreeRTOS/Source/event_groups.c **** 
 197:Middlewares/Third_Party/FreeRTOS/Source/event_groups.c ****     vTaskSuspendAll();
 198:Middlewares/Third_Party/FreeRTOS/Source/event_groups.c ****     {
 199:Middlewares/Third_Party/FreeRTOS/Source/event_groups.c ****         uxOriginalBitValue = pxEventBits->uxEventBits;
 200:Middlewares/Third_Party/FreeRTOS/Source/event_groups.c **** 
 201:Middlewares/Third_Party/FreeRTOS/Source/event_groups.c ****         ( void ) xEventGroupSetBits( xEventGroup, uxBitsToSet );
 202:Middlewares/Third_Party/FreeRTOS/Source/event_groups.c **** 
 203:Middlewares/Third_Party/FreeRTOS/Source/event_groups.c ****         if( ( ( uxOriginalBitValue | uxBitsToSet ) & uxBitsToWaitFor ) == uxBitsToWaitFor )
ARM GAS  C:\Users\main\AppData\Local\Temp\ccnKsYwO.s 			page 5


 204:Middlewares/Third_Party/FreeRTOS/Source/event_groups.c ****         {
 205:Middlewares/Third_Party/FreeRTOS/Source/event_groups.c ****             /* All the rendezvous bits are now set - no need to block. */
 206:Middlewares/Third_Party/FreeRTOS/Source/event_groups.c ****             uxReturn = ( uxOriginalBitValue | uxBitsToSet );
 207:Middlewares/Third_Party/FreeRTOS/Source/event_groups.c **** 
 208:Middlewares/Third_Party/FreeRTOS/Source/event_groups.c ****             /* Rendezvous always clear the bits.  They will have been cleared
 209:Middlewares/Third_Party/FreeRTOS/Source/event_groups.c ****              * already unless this is the only task in the rendezvous. */
 210:Middlewares/Third_Party/FreeRTOS/Source/event_groups.c ****             pxEventBits->uxEventBits &= ~uxBitsToWaitFor;
 211:Middlewares/Third_Party/FreeRTOS/Source/event_groups.c **** 
 212:Middlewares/Third_Party/FreeRTOS/Source/event_groups.c ****             xTicksToWait = 0;
 213:Middlewares/Third_Party/FreeRTOS/Source/event_groups.c ****         }
 214:Middlewares/Third_Party/FreeRTOS/Source/event_groups.c ****         else
 215:Middlewares/Third_Party/FreeRTOS/Source/event_groups.c ****         {
 216:Middlewares/Third_Party/FreeRTOS/Source/event_groups.c ****             if( xTicksToWait != ( TickType_t ) 0 )
 217:Middlewares/Third_Party/FreeRTOS/Source/event_groups.c ****             {
 218:Middlewares/Third_Party/FreeRTOS/Source/event_groups.c ****                 traceEVENT_GROUP_SYNC_BLOCK( xEventGroup, uxBitsToSet, uxBitsToWaitFor );
 219:Middlewares/Third_Party/FreeRTOS/Source/event_groups.c **** 
 220:Middlewares/Third_Party/FreeRTOS/Source/event_groups.c ****                 /* Store the bits that the calling task is waiting for in the
 221:Middlewares/Third_Party/FreeRTOS/Source/event_groups.c ****                  * task's event list item so the kernel knows when a match is
 222:Middlewares/Third_Party/FreeRTOS/Source/event_groups.c ****                  * found.  Then enter the blocked state. */
 223:Middlewares/Third_Party/FreeRTOS/Source/event_groups.c ****                 vTaskPlaceOnUnorderedEventList( &( pxEventBits->xTasksWaitingForBits ), ( uxBitsToW
 224:Middlewares/Third_Party/FreeRTOS/Source/event_groups.c **** 
 225:Middlewares/Third_Party/FreeRTOS/Source/event_groups.c ****                 /* This assignment is obsolete as uxReturn will get set after
 226:Middlewares/Third_Party/FreeRTOS/Source/event_groups.c ****                  * the task unblocks, but some compilers mistakenly generate a
 227:Middlewares/Third_Party/FreeRTOS/Source/event_groups.c ****                  * warning about uxReturn being returned without being set if the
 228:Middlewares/Third_Party/FreeRTOS/Source/event_groups.c ****                  * assignment is omitted. */
 229:Middlewares/Third_Party/FreeRTOS/Source/event_groups.c ****                 uxReturn = 0;
 230:Middlewares/Third_Party/FreeRTOS/Source/event_groups.c ****             }
 231:Middlewares/Third_Party/FreeRTOS/Source/event_groups.c ****             else
 232:Middlewares/Third_Party/FreeRTOS/Source/event_groups.c ****             {
 233:Middlewares/Third_Party/FreeRTOS/Source/event_groups.c ****                 /* The rendezvous bits were not set, but no block time was
 234:Middlewares/Third_Party/FreeRTOS/Source/event_groups.c ****                  * specified - just return the current event bit value. */
 235:Middlewares/Third_Party/FreeRTOS/Source/event_groups.c ****                 uxReturn = pxEventBits->uxEventBits;
 236:Middlewares/Third_Party/FreeRTOS/Source/event_groups.c ****                 xTimeoutOccurred = pdTRUE;
 237:Middlewares/Third_Party/FreeRTOS/Source/event_groups.c ****             }
 238:Middlewares/Third_Party/FreeRTOS/Source/event_groups.c ****         }
 239:Middlewares/Third_Party/FreeRTOS/Source/event_groups.c ****     }
 240:Middlewares/Third_Party/FreeRTOS/Source/event_groups.c ****     xAlreadyYielded = xTaskResumeAll();
 241:Middlewares/Third_Party/FreeRTOS/Source/event_groups.c **** 
 242:Middlewares/Third_Party/FreeRTOS/Source/event_groups.c ****     if( xTicksToWait != ( TickType_t ) 0 )
 243:Middlewares/Third_Party/FreeRTOS/Source/event_groups.c ****     {
 244:Middlewares/Third_Party/FreeRTOS/Source/event_groups.c ****         if( xAlreadyYielded == pdFALSE )
 245:Middlewares/Third_Party/FreeRTOS/Source/event_groups.c ****         {
 246:Middlewares/Third_Party/FreeRTOS/Source/event_groups.c ****             portYIELD_WITHIN_API();
 247:Middlewares/Third_Party/FreeRTOS/Source/event_groups.c ****         }
 248:Middlewares/Third_Party/FreeRTOS/Source/event_groups.c ****         else
 249:Middlewares/Third_Party/FreeRTOS/Source/event_groups.c ****         {
 250:Middlewares/Third_Party/FreeRTOS/Source/event_groups.c ****             mtCOVERAGE_TEST_MARKER();
 251:Middlewares/Third_Party/FreeRTOS/Source/event_groups.c ****         }
 252:Middlewares/Third_Party/FreeRTOS/Source/event_groups.c **** 
 253:Middlewares/Third_Party/FreeRTOS/Source/event_groups.c ****         /* The task blocked to wait for its required bits to be set - at this
 254:Middlewares/Third_Party/FreeRTOS/Source/event_groups.c ****          * point either the required bits were set or the block time expired.  If
 255:Middlewares/Third_Party/FreeRTOS/Source/event_groups.c ****          * the required bits were set they will have been stored in the task's
 256:Middlewares/Third_Party/FreeRTOS/Source/event_groups.c ****          * event list item, and they should now be retrieved then cleared. */
 257:Middlewares/Third_Party/FreeRTOS/Source/event_groups.c ****         uxReturn = uxTaskResetEventItemValue();
 258:Middlewares/Third_Party/FreeRTOS/Source/event_groups.c **** 
 259:Middlewares/Third_Party/FreeRTOS/Source/event_groups.c ****         if( ( uxReturn & eventUNBLOCKED_DUE_TO_BIT_SET ) == ( EventBits_t ) 0 )
 260:Middlewares/Third_Party/FreeRTOS/Source/event_groups.c ****         {
ARM GAS  C:\Users\main\AppData\Local\Temp\ccnKsYwO.s 			page 6


 261:Middlewares/Third_Party/FreeRTOS/Source/event_groups.c ****             /* The task timed out, just return the current event bit value. */
 262:Middlewares/Third_Party/FreeRTOS/Source/event_groups.c ****             taskENTER_CRITICAL();
 263:Middlewares/Third_Party/FreeRTOS/Source/event_groups.c ****             {
 264:Middlewares/Third_Party/FreeRTOS/Source/event_groups.c ****                 uxReturn = pxEventBits->uxEventBits;
 265:Middlewares/Third_Party/FreeRTOS/Source/event_groups.c **** 
 266:Middlewares/Third_Party/FreeRTOS/Source/event_groups.c ****                 /* Although the task got here because it timed out before the
 267:Middlewares/Third_Party/FreeRTOS/Source/event_groups.c ****                  * bits it was waiting for were set, it is possible that since it
 268:Middlewares/Third_Party/FreeRTOS/Source/event_groups.c ****                  * unblocked another task has set the bits.  If this is the case
 269:Middlewares/Third_Party/FreeRTOS/Source/event_groups.c ****                  * then it needs to clear the bits before exiting. */
 270:Middlewares/Third_Party/FreeRTOS/Source/event_groups.c ****                 if( ( uxReturn & uxBitsToWaitFor ) == uxBitsToWaitFor )
 271:Middlewares/Third_Party/FreeRTOS/Source/event_groups.c ****                 {
 272:Middlewares/Third_Party/FreeRTOS/Source/event_groups.c ****                     pxEventBits->uxEventBits &= ~uxBitsToWaitFor;
 273:Middlewares/Third_Party/FreeRTOS/Source/event_groups.c ****                 }
 274:Middlewares/Third_Party/FreeRTOS/Source/event_groups.c ****                 else
 275:Middlewares/Third_Party/FreeRTOS/Source/event_groups.c ****                 {
 276:Middlewares/Third_Party/FreeRTOS/Source/event_groups.c ****                     mtCOVERAGE_TEST_MARKER();
 277:Middlewares/Third_Party/FreeRTOS/Source/event_groups.c ****                 }
 278:Middlewares/Third_Party/FreeRTOS/Source/event_groups.c ****             }
 279:Middlewares/Third_Party/FreeRTOS/Source/event_groups.c ****             taskEXIT_CRITICAL();
 280:Middlewares/Third_Party/FreeRTOS/Source/event_groups.c **** 
 281:Middlewares/Third_Party/FreeRTOS/Source/event_groups.c ****             xTimeoutOccurred = pdTRUE;
 282:Middlewares/Third_Party/FreeRTOS/Source/event_groups.c ****         }
 283:Middlewares/Third_Party/FreeRTOS/Source/event_groups.c ****         else
 284:Middlewares/Third_Party/FreeRTOS/Source/event_groups.c ****         {
 285:Middlewares/Third_Party/FreeRTOS/Source/event_groups.c ****             /* The task unblocked because the bits were set. */
 286:Middlewares/Third_Party/FreeRTOS/Source/event_groups.c ****         }
 287:Middlewares/Third_Party/FreeRTOS/Source/event_groups.c **** 
 288:Middlewares/Third_Party/FreeRTOS/Source/event_groups.c ****         /* Control bits might be set as the task had blocked should not be
 289:Middlewares/Third_Party/FreeRTOS/Source/event_groups.c ****          * returned. */
 290:Middlewares/Third_Party/FreeRTOS/Source/event_groups.c ****         uxReturn &= ~eventEVENT_BITS_CONTROL_BYTES;
 291:Middlewares/Third_Party/FreeRTOS/Source/event_groups.c ****     }
 292:Middlewares/Third_Party/FreeRTOS/Source/event_groups.c **** 
 293:Middlewares/Third_Party/FreeRTOS/Source/event_groups.c ****     traceEVENT_GROUP_SYNC_END( xEventGroup, uxBitsToSet, uxBitsToWaitFor, xTimeoutOccurred );
 294:Middlewares/Third_Party/FreeRTOS/Source/event_groups.c **** 
 295:Middlewares/Third_Party/FreeRTOS/Source/event_groups.c ****     /* Prevent compiler warnings when trace macros are not used. */
 296:Middlewares/Third_Party/FreeRTOS/Source/event_groups.c ****     ( void ) xTimeoutOccurred;
 297:Middlewares/Third_Party/FreeRTOS/Source/event_groups.c **** 
 298:Middlewares/Third_Party/FreeRTOS/Source/event_groups.c ****     return uxReturn;
 299:Middlewares/Third_Party/FreeRTOS/Source/event_groups.c **** }
 300:Middlewares/Third_Party/FreeRTOS/Source/event_groups.c **** /*-----------------------------------------------------------*/
 301:Middlewares/Third_Party/FreeRTOS/Source/event_groups.c **** 
 302:Middlewares/Third_Party/FreeRTOS/Source/event_groups.c **** EventBits_t xEventGroupWaitBits( EventGroupHandle_t xEventGroup,
 303:Middlewares/Third_Party/FreeRTOS/Source/event_groups.c ****                                  const EventBits_t uxBitsToWaitFor,
 304:Middlewares/Third_Party/FreeRTOS/Source/event_groups.c ****                                  const BaseType_t xClearOnExit,
 305:Middlewares/Third_Party/FreeRTOS/Source/event_groups.c ****                                  const BaseType_t xWaitForAllBits,
 306:Middlewares/Third_Party/FreeRTOS/Source/event_groups.c ****                                  TickType_t xTicksToWait )
 307:Middlewares/Third_Party/FreeRTOS/Source/event_groups.c **** {
 308:Middlewares/Third_Party/FreeRTOS/Source/event_groups.c ****     EventGroup_t * pxEventBits = xEventGroup;
 309:Middlewares/Third_Party/FreeRTOS/Source/event_groups.c ****     EventBits_t uxReturn, uxControlBits = 0;
 310:Middlewares/Third_Party/FreeRTOS/Source/event_groups.c ****     BaseType_t xWaitConditionMet, xAlreadyYielded;
 311:Middlewares/Third_Party/FreeRTOS/Source/event_groups.c ****     BaseType_t xTimeoutOccurred = pdFALSE;
 312:Middlewares/Third_Party/FreeRTOS/Source/event_groups.c **** 
 313:Middlewares/Third_Party/FreeRTOS/Source/event_groups.c ****     /* Check the user is not attempting to wait on the bits used by the kernel
 314:Middlewares/Third_Party/FreeRTOS/Source/event_groups.c ****      * itself, and that at least one bit is being requested. */
 315:Middlewares/Third_Party/FreeRTOS/Source/event_groups.c ****     configASSERT( xEventGroup );
 316:Middlewares/Third_Party/FreeRTOS/Source/event_groups.c ****     configASSERT( ( uxBitsToWaitFor & eventEVENT_BITS_CONTROL_BYTES ) == 0 );
 317:Middlewares/Third_Party/FreeRTOS/Source/event_groups.c ****     configASSERT( uxBitsToWaitFor != 0 );
ARM GAS  C:\Users\main\AppData\Local\Temp\ccnKsYwO.s 			page 7


 318:Middlewares/Third_Party/FreeRTOS/Source/event_groups.c ****     #if ( ( INCLUDE_xTaskGetSchedulerState == 1 ) || ( configUSE_TIMERS == 1 ) )
 319:Middlewares/Third_Party/FreeRTOS/Source/event_groups.c ****     {
 320:Middlewares/Third_Party/FreeRTOS/Source/event_groups.c ****         configASSERT( !( ( xTaskGetSchedulerState() == taskSCHEDULER_SUSPENDED ) && ( xTicksToWait 
 321:Middlewares/Third_Party/FreeRTOS/Source/event_groups.c ****     }
 322:Middlewares/Third_Party/FreeRTOS/Source/event_groups.c ****     #endif
 323:Middlewares/Third_Party/FreeRTOS/Source/event_groups.c **** 
 324:Middlewares/Third_Party/FreeRTOS/Source/event_groups.c ****     vTaskSuspendAll();
 325:Middlewares/Third_Party/FreeRTOS/Source/event_groups.c ****     {
 326:Middlewares/Third_Party/FreeRTOS/Source/event_groups.c ****         const EventBits_t uxCurrentEventBits = pxEventBits->uxEventBits;
 327:Middlewares/Third_Party/FreeRTOS/Source/event_groups.c **** 
 328:Middlewares/Third_Party/FreeRTOS/Source/event_groups.c ****         /* Check to see if the wait condition is already met or not. */
 329:Middlewares/Third_Party/FreeRTOS/Source/event_groups.c ****         xWaitConditionMet = prvTestWaitCondition( uxCurrentEventBits, uxBitsToWaitFor, xWaitForAllB
 330:Middlewares/Third_Party/FreeRTOS/Source/event_groups.c **** 
 331:Middlewares/Third_Party/FreeRTOS/Source/event_groups.c ****         if( xWaitConditionMet != pdFALSE )
 332:Middlewares/Third_Party/FreeRTOS/Source/event_groups.c ****         {
 333:Middlewares/Third_Party/FreeRTOS/Source/event_groups.c ****             /* The wait condition has already been met so there is no need to
 334:Middlewares/Third_Party/FreeRTOS/Source/event_groups.c ****              * block. */
 335:Middlewares/Third_Party/FreeRTOS/Source/event_groups.c ****             uxReturn = uxCurrentEventBits;
 336:Middlewares/Third_Party/FreeRTOS/Source/event_groups.c ****             xTicksToWait = ( TickType_t ) 0;
 337:Middlewares/Third_Party/FreeRTOS/Source/event_groups.c **** 
 338:Middlewares/Third_Party/FreeRTOS/Source/event_groups.c ****             /* Clear the wait bits if requested to do so. */
 339:Middlewares/Third_Party/FreeRTOS/Source/event_groups.c ****             if( xClearOnExit != pdFALSE )
 340:Middlewares/Third_Party/FreeRTOS/Source/event_groups.c ****             {
 341:Middlewares/Third_Party/FreeRTOS/Source/event_groups.c ****                 pxEventBits->uxEventBits &= ~uxBitsToWaitFor;
 342:Middlewares/Third_Party/FreeRTOS/Source/event_groups.c ****             }
 343:Middlewares/Third_Party/FreeRTOS/Source/event_groups.c ****             else
 344:Middlewares/Third_Party/FreeRTOS/Source/event_groups.c ****             {
 345:Middlewares/Third_Party/FreeRTOS/Source/event_groups.c ****                 mtCOVERAGE_TEST_MARKER();
 346:Middlewares/Third_Party/FreeRTOS/Source/event_groups.c ****             }
 347:Middlewares/Third_Party/FreeRTOS/Source/event_groups.c ****         }
 348:Middlewares/Third_Party/FreeRTOS/Source/event_groups.c ****         else if( xTicksToWait == ( TickType_t ) 0 )
 349:Middlewares/Third_Party/FreeRTOS/Source/event_groups.c ****         {
 350:Middlewares/Third_Party/FreeRTOS/Source/event_groups.c ****             /* The wait condition has not been met, but no block time was
 351:Middlewares/Third_Party/FreeRTOS/Source/event_groups.c ****              * specified, so just return the current value. */
 352:Middlewares/Third_Party/FreeRTOS/Source/event_groups.c ****             uxReturn = uxCurrentEventBits;
 353:Middlewares/Third_Party/FreeRTOS/Source/event_groups.c ****             xTimeoutOccurred = pdTRUE;
 354:Middlewares/Third_Party/FreeRTOS/Source/event_groups.c ****         }
 355:Middlewares/Third_Party/FreeRTOS/Source/event_groups.c ****         else
 356:Middlewares/Third_Party/FreeRTOS/Source/event_groups.c ****         {
 357:Middlewares/Third_Party/FreeRTOS/Source/event_groups.c ****             /* The task is going to block to wait for its required bits to be
 358:Middlewares/Third_Party/FreeRTOS/Source/event_groups.c ****              * set.  uxControlBits are used to remember the specified behaviour of
 359:Middlewares/Third_Party/FreeRTOS/Source/event_groups.c ****              * this call to xEventGroupWaitBits() - for use when the event bits
 360:Middlewares/Third_Party/FreeRTOS/Source/event_groups.c ****              * unblock the task. */
 361:Middlewares/Third_Party/FreeRTOS/Source/event_groups.c ****             if( xClearOnExit != pdFALSE )
 362:Middlewares/Third_Party/FreeRTOS/Source/event_groups.c ****             {
 363:Middlewares/Third_Party/FreeRTOS/Source/event_groups.c ****                 uxControlBits |= eventCLEAR_EVENTS_ON_EXIT_BIT;
 364:Middlewares/Third_Party/FreeRTOS/Source/event_groups.c ****             }
 365:Middlewares/Third_Party/FreeRTOS/Source/event_groups.c ****             else
 366:Middlewares/Third_Party/FreeRTOS/Source/event_groups.c ****             {
 367:Middlewares/Third_Party/FreeRTOS/Source/event_groups.c ****                 mtCOVERAGE_TEST_MARKER();
 368:Middlewares/Third_Party/FreeRTOS/Source/event_groups.c ****             }
 369:Middlewares/Third_Party/FreeRTOS/Source/event_groups.c **** 
 370:Middlewares/Third_Party/FreeRTOS/Source/event_groups.c ****             if( xWaitForAllBits != pdFALSE )
 371:Middlewares/Third_Party/FreeRTOS/Source/event_groups.c ****             {
 372:Middlewares/Third_Party/FreeRTOS/Source/event_groups.c ****                 uxControlBits |= eventWAIT_FOR_ALL_BITS;
 373:Middlewares/Third_Party/FreeRTOS/Source/event_groups.c ****             }
 374:Middlewares/Third_Party/FreeRTOS/Source/event_groups.c ****             else
ARM GAS  C:\Users\main\AppData\Local\Temp\ccnKsYwO.s 			page 8


 375:Middlewares/Third_Party/FreeRTOS/Source/event_groups.c ****             {
 376:Middlewares/Third_Party/FreeRTOS/Source/event_groups.c ****                 mtCOVERAGE_TEST_MARKER();
 377:Middlewares/Third_Party/FreeRTOS/Source/event_groups.c ****             }
 378:Middlewares/Third_Party/FreeRTOS/Source/event_groups.c **** 
 379:Middlewares/Third_Party/FreeRTOS/Source/event_groups.c ****             /* Store the bits that the calling task is waiting for in the
 380:Middlewares/Third_Party/FreeRTOS/Source/event_groups.c ****              * task's event list item so the kernel knows when a match is
 381:Middlewares/Third_Party/FreeRTOS/Source/event_groups.c ****              * found.  Then enter the blocked state. */
 382:Middlewares/Third_Party/FreeRTOS/Source/event_groups.c ****             vTaskPlaceOnUnorderedEventList( &( pxEventBits->xTasksWaitingForBits ), ( uxBitsToWaitF
 383:Middlewares/Third_Party/FreeRTOS/Source/event_groups.c **** 
 384:Middlewares/Third_Party/FreeRTOS/Source/event_groups.c ****             /* This is obsolete as it will get set after the task unblocks, but
 385:Middlewares/Third_Party/FreeRTOS/Source/event_groups.c ****              * some compilers mistakenly generate a warning about the variable
 386:Middlewares/Third_Party/FreeRTOS/Source/event_groups.c ****              * being returned without being set if it is not done. */
 387:Middlewares/Third_Party/FreeRTOS/Source/event_groups.c ****             uxReturn = 0;
 388:Middlewares/Third_Party/FreeRTOS/Source/event_groups.c **** 
 389:Middlewares/Third_Party/FreeRTOS/Source/event_groups.c ****             traceEVENT_GROUP_WAIT_BITS_BLOCK( xEventGroup, uxBitsToWaitFor );
 390:Middlewares/Third_Party/FreeRTOS/Source/event_groups.c ****         }
 391:Middlewares/Third_Party/FreeRTOS/Source/event_groups.c ****     }
 392:Middlewares/Third_Party/FreeRTOS/Source/event_groups.c ****     xAlreadyYielded = xTaskResumeAll();
 393:Middlewares/Third_Party/FreeRTOS/Source/event_groups.c **** 
 394:Middlewares/Third_Party/FreeRTOS/Source/event_groups.c ****     if( xTicksToWait != ( TickType_t ) 0 )
 395:Middlewares/Third_Party/FreeRTOS/Source/event_groups.c ****     {
 396:Middlewares/Third_Party/FreeRTOS/Source/event_groups.c ****         if( xAlreadyYielded == pdFALSE )
 397:Middlewares/Third_Party/FreeRTOS/Source/event_groups.c ****         {
 398:Middlewares/Third_Party/FreeRTOS/Source/event_groups.c ****             portYIELD_WITHIN_API();
 399:Middlewares/Third_Party/FreeRTOS/Source/event_groups.c ****         }
 400:Middlewares/Third_Party/FreeRTOS/Source/event_groups.c ****         else
 401:Middlewares/Third_Party/FreeRTOS/Source/event_groups.c ****         {
 402:Middlewares/Third_Party/FreeRTOS/Source/event_groups.c ****             mtCOVERAGE_TEST_MARKER();
 403:Middlewares/Third_Party/FreeRTOS/Source/event_groups.c ****         }
 404:Middlewares/Third_Party/FreeRTOS/Source/event_groups.c **** 
 405:Middlewares/Third_Party/FreeRTOS/Source/event_groups.c ****         /* The task blocked to wait for its required bits to be set - at this
 406:Middlewares/Third_Party/FreeRTOS/Source/event_groups.c ****          * point either the required bits were set or the block time expired.  If
 407:Middlewares/Third_Party/FreeRTOS/Source/event_groups.c ****          * the required bits were set they will have been stored in the task's
 408:Middlewares/Third_Party/FreeRTOS/Source/event_groups.c ****          * event list item, and they should now be retrieved then cleared. */
 409:Middlewares/Third_Party/FreeRTOS/Source/event_groups.c ****         uxReturn = uxTaskResetEventItemValue();
 410:Middlewares/Third_Party/FreeRTOS/Source/event_groups.c **** 
 411:Middlewares/Third_Party/FreeRTOS/Source/event_groups.c ****         if( ( uxReturn & eventUNBLOCKED_DUE_TO_BIT_SET ) == ( EventBits_t ) 0 )
 412:Middlewares/Third_Party/FreeRTOS/Source/event_groups.c ****         {
 413:Middlewares/Third_Party/FreeRTOS/Source/event_groups.c ****             taskENTER_CRITICAL();
 414:Middlewares/Third_Party/FreeRTOS/Source/event_groups.c ****             {
 415:Middlewares/Third_Party/FreeRTOS/Source/event_groups.c ****                 /* The task timed out, just return the current event bit value. */
 416:Middlewares/Third_Party/FreeRTOS/Source/event_groups.c ****                 uxReturn = pxEventBits->uxEventBits;
 417:Middlewares/Third_Party/FreeRTOS/Source/event_groups.c **** 
 418:Middlewares/Third_Party/FreeRTOS/Source/event_groups.c ****                 /* It is possible that the event bits were updated between this
 419:Middlewares/Third_Party/FreeRTOS/Source/event_groups.c ****                  * task leaving the Blocked state and running again. */
 420:Middlewares/Third_Party/FreeRTOS/Source/event_groups.c ****                 if( prvTestWaitCondition( uxReturn, uxBitsToWaitFor, xWaitForAllBits ) != pdFALSE )
 421:Middlewares/Third_Party/FreeRTOS/Source/event_groups.c ****                 {
 422:Middlewares/Third_Party/FreeRTOS/Source/event_groups.c ****                     if( xClearOnExit != pdFALSE )
 423:Middlewares/Third_Party/FreeRTOS/Source/event_groups.c ****                     {
 424:Middlewares/Third_Party/FreeRTOS/Source/event_groups.c ****                         pxEventBits->uxEventBits &= ~uxBitsToWaitFor;
 425:Middlewares/Third_Party/FreeRTOS/Source/event_groups.c ****                     }
 426:Middlewares/Third_Party/FreeRTOS/Source/event_groups.c ****                     else
 427:Middlewares/Third_Party/FreeRTOS/Source/event_groups.c ****                     {
 428:Middlewares/Third_Party/FreeRTOS/Source/event_groups.c ****                         mtCOVERAGE_TEST_MARKER();
 429:Middlewares/Third_Party/FreeRTOS/Source/event_groups.c ****                     }
 430:Middlewares/Third_Party/FreeRTOS/Source/event_groups.c ****                 }
 431:Middlewares/Third_Party/FreeRTOS/Source/event_groups.c ****                 else
ARM GAS  C:\Users\main\AppData\Local\Temp\ccnKsYwO.s 			page 9


 432:Middlewares/Third_Party/FreeRTOS/Source/event_groups.c ****                 {
 433:Middlewares/Third_Party/FreeRTOS/Source/event_groups.c ****                     mtCOVERAGE_TEST_MARKER();
 434:Middlewares/Third_Party/FreeRTOS/Source/event_groups.c ****                 }
 435:Middlewares/Third_Party/FreeRTOS/Source/event_groups.c **** 
 436:Middlewares/Third_Party/FreeRTOS/Source/event_groups.c ****                 xTimeoutOccurred = pdTRUE;
 437:Middlewares/Third_Party/FreeRTOS/Source/event_groups.c ****             }
 438:Middlewares/Third_Party/FreeRTOS/Source/event_groups.c ****             taskEXIT_CRITICAL();
 439:Middlewares/Third_Party/FreeRTOS/Source/event_groups.c ****         }
 440:Middlewares/Third_Party/FreeRTOS/Source/event_groups.c ****         else
 441:Middlewares/Third_Party/FreeRTOS/Source/event_groups.c ****         {
 442:Middlewares/Third_Party/FreeRTOS/Source/event_groups.c ****             /* The task unblocked because the bits were set. */
 443:Middlewares/Third_Party/FreeRTOS/Source/event_groups.c ****         }
 444:Middlewares/Third_Party/FreeRTOS/Source/event_groups.c **** 
 445:Middlewares/Third_Party/FreeRTOS/Source/event_groups.c ****         /* The task blocked so control bits may have been set. */
 446:Middlewares/Third_Party/FreeRTOS/Source/event_groups.c ****         uxReturn &= ~eventEVENT_BITS_CONTROL_BYTES;
 447:Middlewares/Third_Party/FreeRTOS/Source/event_groups.c ****     }
 448:Middlewares/Third_Party/FreeRTOS/Source/event_groups.c **** 
 449:Middlewares/Third_Party/FreeRTOS/Source/event_groups.c ****     traceEVENT_GROUP_WAIT_BITS_END( xEventGroup, uxBitsToWaitFor, xTimeoutOccurred );
 450:Middlewares/Third_Party/FreeRTOS/Source/event_groups.c **** 
 451:Middlewares/Third_Party/FreeRTOS/Source/event_groups.c ****     /* Prevent compiler warnings when trace macros are not used. */
 452:Middlewares/Third_Party/FreeRTOS/Source/event_groups.c ****     ( void ) xTimeoutOccurred;
 453:Middlewares/Third_Party/FreeRTOS/Source/event_groups.c **** 
 454:Middlewares/Third_Party/FreeRTOS/Source/event_groups.c ****     return uxReturn;
 455:Middlewares/Third_Party/FreeRTOS/Source/event_groups.c **** }
 456:Middlewares/Third_Party/FreeRTOS/Source/event_groups.c **** /*-----------------------------------------------------------*/
 457:Middlewares/Third_Party/FreeRTOS/Source/event_groups.c **** 
 458:Middlewares/Third_Party/FreeRTOS/Source/event_groups.c **** EventBits_t xEventGroupClearBits( EventGroupHandle_t xEventGroup,
 459:Middlewares/Third_Party/FreeRTOS/Source/event_groups.c ****                                   const EventBits_t uxBitsToClear )
 460:Middlewares/Third_Party/FreeRTOS/Source/event_groups.c **** {
 461:Middlewares/Third_Party/FreeRTOS/Source/event_groups.c ****     EventGroup_t * pxEventBits = xEventGroup;
 462:Middlewares/Third_Party/FreeRTOS/Source/event_groups.c ****     EventBits_t uxReturn;
 463:Middlewares/Third_Party/FreeRTOS/Source/event_groups.c **** 
 464:Middlewares/Third_Party/FreeRTOS/Source/event_groups.c ****     /* Check the user is not attempting to clear the bits used by the kernel
 465:Middlewares/Third_Party/FreeRTOS/Source/event_groups.c ****      * itself. */
 466:Middlewares/Third_Party/FreeRTOS/Source/event_groups.c ****     configASSERT( xEventGroup );
 467:Middlewares/Third_Party/FreeRTOS/Source/event_groups.c ****     configASSERT( ( uxBitsToClear & eventEVENT_BITS_CONTROL_BYTES ) == 0 );
 468:Middlewares/Third_Party/FreeRTOS/Source/event_groups.c **** 
 469:Middlewares/Third_Party/FreeRTOS/Source/event_groups.c ****     taskENTER_CRITICAL();
 470:Middlewares/Third_Party/FreeRTOS/Source/event_groups.c ****     {
 471:Middlewares/Third_Party/FreeRTOS/Source/event_groups.c ****         traceEVENT_GROUP_CLEAR_BITS( xEventGroup, uxBitsToClear );
 472:Middlewares/Third_Party/FreeRTOS/Source/event_groups.c **** 
 473:Middlewares/Third_Party/FreeRTOS/Source/event_groups.c ****         /* The value returned is the event group value prior to the bits being
 474:Middlewares/Third_Party/FreeRTOS/Source/event_groups.c ****          * cleared. */
 475:Middlewares/Third_Party/FreeRTOS/Source/event_groups.c ****         uxReturn = pxEventBits->uxEventBits;
 476:Middlewares/Third_Party/FreeRTOS/Source/event_groups.c **** 
 477:Middlewares/Third_Party/FreeRTOS/Source/event_groups.c ****         /* Clear the bits. */
 478:Middlewares/Third_Party/FreeRTOS/Source/event_groups.c ****         pxEventBits->uxEventBits &= ~uxBitsToClear;
 479:Middlewares/Third_Party/FreeRTOS/Source/event_groups.c ****     }
 480:Middlewares/Third_Party/FreeRTOS/Source/event_groups.c ****     taskEXIT_CRITICAL();
 481:Middlewares/Third_Party/FreeRTOS/Source/event_groups.c **** 
 482:Middlewares/Third_Party/FreeRTOS/Source/event_groups.c ****     return uxReturn;
 483:Middlewares/Third_Party/FreeRTOS/Source/event_groups.c **** }
 484:Middlewares/Third_Party/FreeRTOS/Source/event_groups.c **** /*-----------------------------------------------------------*/
 485:Middlewares/Third_Party/FreeRTOS/Source/event_groups.c **** 
 486:Middlewares/Third_Party/FreeRTOS/Source/event_groups.c **** #if ( ( configUSE_TRACE_FACILITY == 1 ) && ( INCLUDE_xTimerPendFunctionCall == 1 ) && ( configUSE_T
 487:Middlewares/Third_Party/FreeRTOS/Source/event_groups.c **** 
 488:Middlewares/Third_Party/FreeRTOS/Source/event_groups.c ****     BaseType_t xEventGroupClearBitsFromISR( EventGroupHandle_t xEventGroup,
ARM GAS  C:\Users\main\AppData\Local\Temp\ccnKsYwO.s 			page 10


 489:Middlewares/Third_Party/FreeRTOS/Source/event_groups.c ****                                             const EventBits_t uxBitsToClear )
 490:Middlewares/Third_Party/FreeRTOS/Source/event_groups.c ****     {
 491:Middlewares/Third_Party/FreeRTOS/Source/event_groups.c ****         BaseType_t xReturn;
 492:Middlewares/Third_Party/FreeRTOS/Source/event_groups.c **** 
 493:Middlewares/Third_Party/FreeRTOS/Source/event_groups.c ****         traceEVENT_GROUP_CLEAR_BITS_FROM_ISR( xEventGroup, uxBitsToClear );
 494:Middlewares/Third_Party/FreeRTOS/Source/event_groups.c ****         xReturn = xTimerPendFunctionCallFromISR( vEventGroupClearBitsCallback, ( void * ) xEventGro
 495:Middlewares/Third_Party/FreeRTOS/Source/event_groups.c **** 
 496:Middlewares/Third_Party/FreeRTOS/Source/event_groups.c ****         return xReturn;
 497:Middlewares/Third_Party/FreeRTOS/Source/event_groups.c ****     }
 498:Middlewares/Third_Party/FreeRTOS/Source/event_groups.c **** 
 499:Middlewares/Third_Party/FreeRTOS/Source/event_groups.c **** #endif /* if ( ( configUSE_TRACE_FACILITY == 1 ) && ( INCLUDE_xTimerPendFunctionCall == 1 ) && ( co
 500:Middlewares/Third_Party/FreeRTOS/Source/event_groups.c **** /*-----------------------------------------------------------*/
 501:Middlewares/Third_Party/FreeRTOS/Source/event_groups.c **** 
 502:Middlewares/Third_Party/FreeRTOS/Source/event_groups.c **** EventBits_t xEventGroupGetBitsFromISR( EventGroupHandle_t xEventGroup )
 503:Middlewares/Third_Party/FreeRTOS/Source/event_groups.c **** {
 504:Middlewares/Third_Party/FreeRTOS/Source/event_groups.c ****     UBaseType_t uxSavedInterruptStatus;
 505:Middlewares/Third_Party/FreeRTOS/Source/event_groups.c ****     EventGroup_t const * const pxEventBits = xEventGroup;
 506:Middlewares/Third_Party/FreeRTOS/Source/event_groups.c ****     EventBits_t uxReturn;
 507:Middlewares/Third_Party/FreeRTOS/Source/event_groups.c **** 
 508:Middlewares/Third_Party/FreeRTOS/Source/event_groups.c ****     uxSavedInterruptStatus = portSET_INTERRUPT_MASK_FROM_ISR();
 509:Middlewares/Third_Party/FreeRTOS/Source/event_groups.c ****     {
 510:Middlewares/Third_Party/FreeRTOS/Source/event_groups.c ****         uxReturn = pxEventBits->uxEventBits;
 511:Middlewares/Third_Party/FreeRTOS/Source/event_groups.c ****     }
 512:Middlewares/Third_Party/FreeRTOS/Source/event_groups.c ****     portCLEAR_INTERRUPT_MASK_FROM_ISR( uxSavedInterruptStatus );
 513:Middlewares/Third_Party/FreeRTOS/Source/event_groups.c **** 
 514:Middlewares/Third_Party/FreeRTOS/Source/event_groups.c ****     return uxReturn;
 515:Middlewares/Third_Party/FreeRTOS/Source/event_groups.c **** } /*lint !e818 EventGroupHandle_t is a typedef used in other functions to so can't be pointer to co
 516:Middlewares/Third_Party/FreeRTOS/Source/event_groups.c **** /*-----------------------------------------------------------*/
 517:Middlewares/Third_Party/FreeRTOS/Source/event_groups.c **** 
 518:Middlewares/Third_Party/FreeRTOS/Source/event_groups.c **** EventBits_t xEventGroupSetBits( EventGroupHandle_t xEventGroup,
 519:Middlewares/Third_Party/FreeRTOS/Source/event_groups.c ****                                 const EventBits_t uxBitsToSet )
 520:Middlewares/Third_Party/FreeRTOS/Source/event_groups.c **** {
 521:Middlewares/Third_Party/FreeRTOS/Source/event_groups.c ****     ListItem_t * pxListItem;
 522:Middlewares/Third_Party/FreeRTOS/Source/event_groups.c ****     ListItem_t * pxNext;
 523:Middlewares/Third_Party/FreeRTOS/Source/event_groups.c ****     ListItem_t const * pxListEnd;
 524:Middlewares/Third_Party/FreeRTOS/Source/event_groups.c ****     List_t const * pxList;
 525:Middlewares/Third_Party/FreeRTOS/Source/event_groups.c ****     EventBits_t uxBitsToClear = 0, uxBitsWaitedFor, uxControlBits;
 526:Middlewares/Third_Party/FreeRTOS/Source/event_groups.c ****     EventGroup_t * pxEventBits = xEventGroup;
 527:Middlewares/Third_Party/FreeRTOS/Source/event_groups.c ****     BaseType_t xMatchFound = pdFALSE;
 528:Middlewares/Third_Party/FreeRTOS/Source/event_groups.c **** 
 529:Middlewares/Third_Party/FreeRTOS/Source/event_groups.c ****     /* Check the user is not attempting to set the bits used by the kernel
 530:Middlewares/Third_Party/FreeRTOS/Source/event_groups.c ****      * itself. */
 531:Middlewares/Third_Party/FreeRTOS/Source/event_groups.c ****     configASSERT( xEventGroup );
 532:Middlewares/Third_Party/FreeRTOS/Source/event_groups.c ****     configASSERT( ( uxBitsToSet & eventEVENT_BITS_CONTROL_BYTES ) == 0 );
 533:Middlewares/Third_Party/FreeRTOS/Source/event_groups.c **** 
 534:Middlewares/Third_Party/FreeRTOS/Source/event_groups.c ****     pxList = &( pxEventBits->xTasksWaitingForBits );
 535:Middlewares/Third_Party/FreeRTOS/Source/event_groups.c ****     pxListEnd = listGET_END_MARKER( pxList ); /*lint !e826 !e740 !e9087 The mini list structure is 
 536:Middlewares/Third_Party/FreeRTOS/Source/event_groups.c ****     vTaskSuspendAll();
 537:Middlewares/Third_Party/FreeRTOS/Source/event_groups.c ****     {
 538:Middlewares/Third_Party/FreeRTOS/Source/event_groups.c ****         traceEVENT_GROUP_SET_BITS( xEventGroup, uxBitsToSet );
 539:Middlewares/Third_Party/FreeRTOS/Source/event_groups.c **** 
 540:Middlewares/Third_Party/FreeRTOS/Source/event_groups.c ****         pxListItem = listGET_HEAD_ENTRY( pxList );
 541:Middlewares/Third_Party/FreeRTOS/Source/event_groups.c **** 
 542:Middlewares/Third_Party/FreeRTOS/Source/event_groups.c ****         /* Set the bits. */
 543:Middlewares/Third_Party/FreeRTOS/Source/event_groups.c ****         pxEventBits->uxEventBits |= uxBitsToSet;
 544:Middlewares/Third_Party/FreeRTOS/Source/event_groups.c **** 
 545:Middlewares/Third_Party/FreeRTOS/Source/event_groups.c ****         /* See if the new bit value should unblock any tasks. */
ARM GAS  C:\Users\main\AppData\Local\Temp\ccnKsYwO.s 			page 11


 546:Middlewares/Third_Party/FreeRTOS/Source/event_groups.c ****         while( pxListItem != pxListEnd )
 547:Middlewares/Third_Party/FreeRTOS/Source/event_groups.c ****         {
 548:Middlewares/Third_Party/FreeRTOS/Source/event_groups.c ****             pxNext = listGET_NEXT( pxListItem );
 549:Middlewares/Third_Party/FreeRTOS/Source/event_groups.c ****             uxBitsWaitedFor = listGET_LIST_ITEM_VALUE( pxListItem );
 550:Middlewares/Third_Party/FreeRTOS/Source/event_groups.c ****             xMatchFound = pdFALSE;
 551:Middlewares/Third_Party/FreeRTOS/Source/event_groups.c **** 
 552:Middlewares/Third_Party/FreeRTOS/Source/event_groups.c ****             /* Split the bits waited for from the control bits. */
 553:Middlewares/Third_Party/FreeRTOS/Source/event_groups.c ****             uxControlBits = uxBitsWaitedFor & eventEVENT_BITS_CONTROL_BYTES;
 554:Middlewares/Third_Party/FreeRTOS/Source/event_groups.c ****             uxBitsWaitedFor &= ~eventEVENT_BITS_CONTROL_BYTES;
 555:Middlewares/Third_Party/FreeRTOS/Source/event_groups.c **** 
 556:Middlewares/Third_Party/FreeRTOS/Source/event_groups.c ****             if( ( uxControlBits & eventWAIT_FOR_ALL_BITS ) == ( EventBits_t ) 0 )
 557:Middlewares/Third_Party/FreeRTOS/Source/event_groups.c ****             {
 558:Middlewares/Third_Party/FreeRTOS/Source/event_groups.c ****                 /* Just looking for single bit being set. */
 559:Middlewares/Third_Party/FreeRTOS/Source/event_groups.c ****                 if( ( uxBitsWaitedFor & pxEventBits->uxEventBits ) != ( EventBits_t ) 0 )
 560:Middlewares/Third_Party/FreeRTOS/Source/event_groups.c ****                 {
 561:Middlewares/Third_Party/FreeRTOS/Source/event_groups.c ****                     xMatchFound = pdTRUE;
 562:Middlewares/Third_Party/FreeRTOS/Source/event_groups.c ****                 }
 563:Middlewares/Third_Party/FreeRTOS/Source/event_groups.c ****                 else
 564:Middlewares/Third_Party/FreeRTOS/Source/event_groups.c ****                 {
 565:Middlewares/Third_Party/FreeRTOS/Source/event_groups.c ****                     mtCOVERAGE_TEST_MARKER();
 566:Middlewares/Third_Party/FreeRTOS/Source/event_groups.c ****                 }
 567:Middlewares/Third_Party/FreeRTOS/Source/event_groups.c ****             }
 568:Middlewares/Third_Party/FreeRTOS/Source/event_groups.c ****             else if( ( uxBitsWaitedFor & pxEventBits->uxEventBits ) == uxBitsWaitedFor )
 569:Middlewares/Third_Party/FreeRTOS/Source/event_groups.c ****             {
 570:Middlewares/Third_Party/FreeRTOS/Source/event_groups.c ****                 /* All bits are set. */
 571:Middlewares/Third_Party/FreeRTOS/Source/event_groups.c ****                 xMatchFound = pdTRUE;
 572:Middlewares/Third_Party/FreeRTOS/Source/event_groups.c ****             }
 573:Middlewares/Third_Party/FreeRTOS/Source/event_groups.c ****             else
 574:Middlewares/Third_Party/FreeRTOS/Source/event_groups.c ****             {
 575:Middlewares/Third_Party/FreeRTOS/Source/event_groups.c ****                 /* Need all bits to be set, but not all the bits were set. */
 576:Middlewares/Third_Party/FreeRTOS/Source/event_groups.c ****             }
 577:Middlewares/Third_Party/FreeRTOS/Source/event_groups.c **** 
 578:Middlewares/Third_Party/FreeRTOS/Source/event_groups.c ****             if( xMatchFound != pdFALSE )
 579:Middlewares/Third_Party/FreeRTOS/Source/event_groups.c ****             {
 580:Middlewares/Third_Party/FreeRTOS/Source/event_groups.c ****                 /* The bits match.  Should the bits be cleared on exit? */
 581:Middlewares/Third_Party/FreeRTOS/Source/event_groups.c ****                 if( ( uxControlBits & eventCLEAR_EVENTS_ON_EXIT_BIT ) != ( EventBits_t ) 0 )
 582:Middlewares/Third_Party/FreeRTOS/Source/event_groups.c ****                 {
 583:Middlewares/Third_Party/FreeRTOS/Source/event_groups.c ****                     uxBitsToClear |= uxBitsWaitedFor;
 584:Middlewares/Third_Party/FreeRTOS/Source/event_groups.c ****                 }
 585:Middlewares/Third_Party/FreeRTOS/Source/event_groups.c ****                 else
 586:Middlewares/Third_Party/FreeRTOS/Source/event_groups.c ****                 {
 587:Middlewares/Third_Party/FreeRTOS/Source/event_groups.c ****                     mtCOVERAGE_TEST_MARKER();
 588:Middlewares/Third_Party/FreeRTOS/Source/event_groups.c ****                 }
 589:Middlewares/Third_Party/FreeRTOS/Source/event_groups.c **** 
 590:Middlewares/Third_Party/FreeRTOS/Source/event_groups.c ****                 /* Store the actual event flag value in the task's event list
 591:Middlewares/Third_Party/FreeRTOS/Source/event_groups.c ****                  * item before removing the task from the event list.  The
 592:Middlewares/Third_Party/FreeRTOS/Source/event_groups.c ****                  * eventUNBLOCKED_DUE_TO_BIT_SET bit is set so the task knows
 593:Middlewares/Third_Party/FreeRTOS/Source/event_groups.c ****                  * that is was unblocked due to its required bits matching, rather
 594:Middlewares/Third_Party/FreeRTOS/Source/event_groups.c ****                  * than because it timed out. */
 595:Middlewares/Third_Party/FreeRTOS/Source/event_groups.c ****                 vTaskRemoveFromUnorderedEventList( pxListItem, pxEventBits->uxEventBits | eventUNBL
 596:Middlewares/Third_Party/FreeRTOS/Source/event_groups.c ****             }
 597:Middlewares/Third_Party/FreeRTOS/Source/event_groups.c **** 
 598:Middlewares/Third_Party/FreeRTOS/Source/event_groups.c ****             /* Move onto the next list item.  Note pxListItem->pxNext is not
 599:Middlewares/Third_Party/FreeRTOS/Source/event_groups.c ****              * used here as the list item may have been removed from the event list
 600:Middlewares/Third_Party/FreeRTOS/Source/event_groups.c ****              * and inserted into the ready/pending reading list. */
 601:Middlewares/Third_Party/FreeRTOS/Source/event_groups.c ****             pxListItem = pxNext;
 602:Middlewares/Third_Party/FreeRTOS/Source/event_groups.c ****         }
ARM GAS  C:\Users\main\AppData\Local\Temp\ccnKsYwO.s 			page 12


 603:Middlewares/Third_Party/FreeRTOS/Source/event_groups.c **** 
 604:Middlewares/Third_Party/FreeRTOS/Source/event_groups.c ****         /* Clear any bits that matched when the eventCLEAR_EVENTS_ON_EXIT_BIT
 605:Middlewares/Third_Party/FreeRTOS/Source/event_groups.c ****          * bit was set in the control word. */
 606:Middlewares/Third_Party/FreeRTOS/Source/event_groups.c ****         pxEventBits->uxEventBits &= ~uxBitsToClear;
 607:Middlewares/Third_Party/FreeRTOS/Source/event_groups.c ****     }
 608:Middlewares/Third_Party/FreeRTOS/Source/event_groups.c ****     ( void ) xTaskResumeAll();
 609:Middlewares/Third_Party/FreeRTOS/Source/event_groups.c **** 
 610:Middlewares/Third_Party/FreeRTOS/Source/event_groups.c ****     return pxEventBits->uxEventBits;
 611:Middlewares/Third_Party/FreeRTOS/Source/event_groups.c **** }
 612:Middlewares/Third_Party/FreeRTOS/Source/event_groups.c **** /*-----------------------------------------------------------*/
 613:Middlewares/Third_Party/FreeRTOS/Source/event_groups.c **** 
 614:Middlewares/Third_Party/FreeRTOS/Source/event_groups.c **** void vEventGroupDelete( EventGroupHandle_t xEventGroup )
 615:Middlewares/Third_Party/FreeRTOS/Source/event_groups.c **** {
 616:Middlewares/Third_Party/FreeRTOS/Source/event_groups.c ****     EventGroup_t * pxEventBits = xEventGroup;
 617:Middlewares/Third_Party/FreeRTOS/Source/event_groups.c ****     const List_t * pxTasksWaitingForBits;
 618:Middlewares/Third_Party/FreeRTOS/Source/event_groups.c **** 
 619:Middlewares/Third_Party/FreeRTOS/Source/event_groups.c ****     configASSERT( pxEventBits );
 620:Middlewares/Third_Party/FreeRTOS/Source/event_groups.c **** 
 621:Middlewares/Third_Party/FreeRTOS/Source/event_groups.c ****     pxTasksWaitingForBits = &( pxEventBits->xTasksWaitingForBits );
 622:Middlewares/Third_Party/FreeRTOS/Source/event_groups.c **** 
 623:Middlewares/Third_Party/FreeRTOS/Source/event_groups.c ****     vTaskSuspendAll();
 624:Middlewares/Third_Party/FreeRTOS/Source/event_groups.c ****     {
 625:Middlewares/Third_Party/FreeRTOS/Source/event_groups.c ****         traceEVENT_GROUP_DELETE( xEventGroup );
 626:Middlewares/Third_Party/FreeRTOS/Source/event_groups.c **** 
 627:Middlewares/Third_Party/FreeRTOS/Source/event_groups.c ****         while( listCURRENT_LIST_LENGTH( pxTasksWaitingForBits ) > ( UBaseType_t ) 0 )
 628:Middlewares/Third_Party/FreeRTOS/Source/event_groups.c ****         {
 629:Middlewares/Third_Party/FreeRTOS/Source/event_groups.c ****             /* Unblock the task, returning 0 as the event list is being deleted
 630:Middlewares/Third_Party/FreeRTOS/Source/event_groups.c ****              * and cannot therefore have any bits set. */
 631:Middlewares/Third_Party/FreeRTOS/Source/event_groups.c ****             configASSERT( pxTasksWaitingForBits->xListEnd.pxNext != ( const ListItem_t * ) &( pxTas
 632:Middlewares/Third_Party/FreeRTOS/Source/event_groups.c ****             vTaskRemoveFromUnorderedEventList( pxTasksWaitingForBits->xListEnd.pxNext, eventUNBLOCK
 633:Middlewares/Third_Party/FreeRTOS/Source/event_groups.c ****         }
 634:Middlewares/Third_Party/FreeRTOS/Source/event_groups.c ****     }
 635:Middlewares/Third_Party/FreeRTOS/Source/event_groups.c ****     ( void ) xTaskResumeAll();
 636:Middlewares/Third_Party/FreeRTOS/Source/event_groups.c **** 
 637:Middlewares/Third_Party/FreeRTOS/Source/event_groups.c ****     #if ( ( configSUPPORT_DYNAMIC_ALLOCATION == 1 ) && ( configSUPPORT_STATIC_ALLOCATION == 0 ) )
 638:Middlewares/Third_Party/FreeRTOS/Source/event_groups.c ****     {
 639:Middlewares/Third_Party/FreeRTOS/Source/event_groups.c ****         /* The event group can only have been allocated dynamically - free
 640:Middlewares/Third_Party/FreeRTOS/Source/event_groups.c ****          * it again. */
 641:Middlewares/Third_Party/FreeRTOS/Source/event_groups.c ****         vPortFree( pxEventBits );
 642:Middlewares/Third_Party/FreeRTOS/Source/event_groups.c ****     }
 643:Middlewares/Third_Party/FreeRTOS/Source/event_groups.c ****     #elif ( ( configSUPPORT_DYNAMIC_ALLOCATION == 1 ) && ( configSUPPORT_STATIC_ALLOCATION == 1 ) )
 644:Middlewares/Third_Party/FreeRTOS/Source/event_groups.c ****     {
 645:Middlewares/Third_Party/FreeRTOS/Source/event_groups.c ****         /* The event group could have been allocated statically or
 646:Middlewares/Third_Party/FreeRTOS/Source/event_groups.c ****          * dynamically, so check before attempting to free the memory. */
 647:Middlewares/Third_Party/FreeRTOS/Source/event_groups.c ****         if( pxEventBits->ucStaticallyAllocated == ( uint8_t ) pdFALSE )
 648:Middlewares/Third_Party/FreeRTOS/Source/event_groups.c ****         {
 649:Middlewares/Third_Party/FreeRTOS/Source/event_groups.c ****             vPortFree( pxEventBits );
 650:Middlewares/Third_Party/FreeRTOS/Source/event_groups.c ****         }
 651:Middlewares/Third_Party/FreeRTOS/Source/event_groups.c ****         else
 652:Middlewares/Third_Party/FreeRTOS/Source/event_groups.c ****         {
 653:Middlewares/Third_Party/FreeRTOS/Source/event_groups.c ****             mtCOVERAGE_TEST_MARKER();
 654:Middlewares/Third_Party/FreeRTOS/Source/event_groups.c ****         }
 655:Middlewares/Third_Party/FreeRTOS/Source/event_groups.c ****     }
 656:Middlewares/Third_Party/FreeRTOS/Source/event_groups.c ****     #endif /* configSUPPORT_DYNAMIC_ALLOCATION */
 657:Middlewares/Third_Party/FreeRTOS/Source/event_groups.c **** }
 658:Middlewares/Third_Party/FreeRTOS/Source/event_groups.c **** /*-----------------------------------------------------------*/
 659:Middlewares/Third_Party/FreeRTOS/Source/event_groups.c **** 
ARM GAS  C:\Users\main\AppData\Local\Temp\ccnKsYwO.s 			page 13


 660:Middlewares/Third_Party/FreeRTOS/Source/event_groups.c **** #if ( configSUPPORT_STATIC_ALLOCATION == 1 )
 661:Middlewares/Third_Party/FreeRTOS/Source/event_groups.c ****     BaseType_t xEventGroupGetStaticBuffer( EventGroupHandle_t xEventGroup,
 662:Middlewares/Third_Party/FreeRTOS/Source/event_groups.c ****                                            StaticEventGroup_t ** ppxEventGroupBuffer )
 663:Middlewares/Third_Party/FreeRTOS/Source/event_groups.c ****     {
 664:Middlewares/Third_Party/FreeRTOS/Source/event_groups.c ****         BaseType_t xReturn;
 665:Middlewares/Third_Party/FreeRTOS/Source/event_groups.c ****         EventGroup_t * pxEventBits = xEventGroup;
 666:Middlewares/Third_Party/FreeRTOS/Source/event_groups.c **** 
 667:Middlewares/Third_Party/FreeRTOS/Source/event_groups.c ****         configASSERT( pxEventBits );
 668:Middlewares/Third_Party/FreeRTOS/Source/event_groups.c ****         configASSERT( ppxEventGroupBuffer );
 669:Middlewares/Third_Party/FreeRTOS/Source/event_groups.c **** 
 670:Middlewares/Third_Party/FreeRTOS/Source/event_groups.c ****         #if ( configSUPPORT_DYNAMIC_ALLOCATION == 1 )
 671:Middlewares/Third_Party/FreeRTOS/Source/event_groups.c ****         {
 672:Middlewares/Third_Party/FreeRTOS/Source/event_groups.c ****             /* Check if the event group was statically allocated. */
 673:Middlewares/Third_Party/FreeRTOS/Source/event_groups.c ****             if( pxEventBits->ucStaticallyAllocated == ( uint8_t ) pdTRUE )
 674:Middlewares/Third_Party/FreeRTOS/Source/event_groups.c ****             {
 675:Middlewares/Third_Party/FreeRTOS/Source/event_groups.c ****                 *ppxEventGroupBuffer = ( StaticEventGroup_t * ) pxEventBits;
 676:Middlewares/Third_Party/FreeRTOS/Source/event_groups.c ****                 xReturn = pdTRUE;
 677:Middlewares/Third_Party/FreeRTOS/Source/event_groups.c ****             }
 678:Middlewares/Third_Party/FreeRTOS/Source/event_groups.c ****             else
 679:Middlewares/Third_Party/FreeRTOS/Source/event_groups.c ****             {
 680:Middlewares/Third_Party/FreeRTOS/Source/event_groups.c ****                 xReturn = pdFALSE;
 681:Middlewares/Third_Party/FreeRTOS/Source/event_groups.c ****             }
 682:Middlewares/Third_Party/FreeRTOS/Source/event_groups.c ****         }
 683:Middlewares/Third_Party/FreeRTOS/Source/event_groups.c ****         #else /* configSUPPORT_DYNAMIC_ALLOCATION */
 684:Middlewares/Third_Party/FreeRTOS/Source/event_groups.c ****         {
 685:Middlewares/Third_Party/FreeRTOS/Source/event_groups.c ****             /* Event group must have been statically allocated. */
 686:Middlewares/Third_Party/FreeRTOS/Source/event_groups.c ****             *ppxEventGroupBuffer = ( StaticEventGroup_t * ) pxEventBits;
 687:Middlewares/Third_Party/FreeRTOS/Source/event_groups.c ****             xReturn = pdTRUE;
 688:Middlewares/Third_Party/FreeRTOS/Source/event_groups.c ****         }
 689:Middlewares/Third_Party/FreeRTOS/Source/event_groups.c ****         #endif /* configSUPPORT_DYNAMIC_ALLOCATION */
 690:Middlewares/Third_Party/FreeRTOS/Source/event_groups.c **** 
 691:Middlewares/Third_Party/FreeRTOS/Source/event_groups.c ****         return xReturn;
 692:Middlewares/Third_Party/FreeRTOS/Source/event_groups.c ****     }
 693:Middlewares/Third_Party/FreeRTOS/Source/event_groups.c **** #endif /* configSUPPORT_STATIC_ALLOCATION */
 694:Middlewares/Third_Party/FreeRTOS/Source/event_groups.c **** /*-----------------------------------------------------------*/
 695:Middlewares/Third_Party/FreeRTOS/Source/event_groups.c **** 
 696:Middlewares/Third_Party/FreeRTOS/Source/event_groups.c **** /* For internal use only - execute a 'set bits' command that was pended from
 697:Middlewares/Third_Party/FreeRTOS/Source/event_groups.c ****  * an interrupt. */
 698:Middlewares/Third_Party/FreeRTOS/Source/event_groups.c **** void vEventGroupSetBitsCallback( void * pvEventGroup,
 699:Middlewares/Third_Party/FreeRTOS/Source/event_groups.c ****                                  const uint32_t ulBitsToSet )
 700:Middlewares/Third_Party/FreeRTOS/Source/event_groups.c **** {
 701:Middlewares/Third_Party/FreeRTOS/Source/event_groups.c ****     ( void ) xEventGroupSetBits( pvEventGroup, ( EventBits_t ) ulBitsToSet ); /*lint !e9079 Can't a
 702:Middlewares/Third_Party/FreeRTOS/Source/event_groups.c **** }
 703:Middlewares/Third_Party/FreeRTOS/Source/event_groups.c **** /*-----------------------------------------------------------*/
 704:Middlewares/Third_Party/FreeRTOS/Source/event_groups.c **** 
 705:Middlewares/Third_Party/FreeRTOS/Source/event_groups.c **** /* For internal use only - execute a 'clear bits' command that was pended from
 706:Middlewares/Third_Party/FreeRTOS/Source/event_groups.c ****  * an interrupt. */
 707:Middlewares/Third_Party/FreeRTOS/Source/event_groups.c **** void vEventGroupClearBitsCallback( void * pvEventGroup,
 708:Middlewares/Third_Party/FreeRTOS/Source/event_groups.c ****                                    const uint32_t ulBitsToClear )
 709:Middlewares/Third_Party/FreeRTOS/Source/event_groups.c **** {
 710:Middlewares/Third_Party/FreeRTOS/Source/event_groups.c ****     ( void ) xEventGroupClearBits( pvEventGroup, ( EventBits_t ) ulBitsToClear ); /*lint !e9079 Can
 711:Middlewares/Third_Party/FreeRTOS/Source/event_groups.c **** }
 712:Middlewares/Third_Party/FreeRTOS/Source/event_groups.c **** /*-----------------------------------------------------------*/
 713:Middlewares/Third_Party/FreeRTOS/Source/event_groups.c **** 
 714:Middlewares/Third_Party/FreeRTOS/Source/event_groups.c **** static BaseType_t prvTestWaitCondition( const EventBits_t uxCurrentEventBits,
 715:Middlewares/Third_Party/FreeRTOS/Source/event_groups.c ****                                         const EventBits_t uxBitsToWaitFor,
 716:Middlewares/Third_Party/FreeRTOS/Source/event_groups.c ****                                         const BaseType_t xWaitForAllBits )
ARM GAS  C:\Users\main\AppData\Local\Temp\ccnKsYwO.s 			page 14


 717:Middlewares/Third_Party/FreeRTOS/Source/event_groups.c **** {
  27              		.loc 1 717 1 view -0
  28              		.cfi_startproc
  29              		@ args = 0, pretend = 0, frame = 0
  30              		@ frame_needed = 0, uses_anonymous_args = 0
  31              		@ link register save eliminated.
 718:Middlewares/Third_Party/FreeRTOS/Source/event_groups.c ****     BaseType_t xWaitConditionMet = pdFALSE;
  32              		.loc 1 718 5 view .LVU1
 719:Middlewares/Third_Party/FreeRTOS/Source/event_groups.c **** 
 720:Middlewares/Third_Party/FreeRTOS/Source/event_groups.c ****     if( xWaitForAllBits == pdFALSE )
  33              		.loc 1 720 5 view .LVU2
  34              		.loc 1 720 7 is_stmt 0 view .LVU3
  35 0000 002A     		cmp	r2, #0
  36 0002 03D1     		bne	.L2
 721:Middlewares/Third_Party/FreeRTOS/Source/event_groups.c ****     {
 722:Middlewares/Third_Party/FreeRTOS/Source/event_groups.c ****         /* Task only has to wait for one bit within uxBitsToWaitFor to be
 723:Middlewares/Third_Party/FreeRTOS/Source/event_groups.c ****          * set.  Is one already set? */
 724:Middlewares/Third_Party/FreeRTOS/Source/event_groups.c ****         if( ( uxCurrentEventBits & uxBitsToWaitFor ) != ( EventBits_t ) 0 )
  37              		.loc 1 724 9 is_stmt 1 view .LVU4
  38              		.loc 1 724 11 is_stmt 0 view .LVU5
  39 0004 0142     		tst	r1, r0
  40 0006 06D1     		bne	.L4
 718:Middlewares/Third_Party/FreeRTOS/Source/event_groups.c **** 
  41              		.loc 1 718 16 view .LVU6
  42 0008 1000     		movs	r0, r2
  43              	.LVL1:
 718:Middlewares/Third_Party/FreeRTOS/Source/event_groups.c **** 
  44              		.loc 1 718 16 view .LVU7
  45 000a 03E0     		b	.L1
  46              	.LVL2:
  47              	.L2:
 725:Middlewares/Third_Party/FreeRTOS/Source/event_groups.c ****         {
 726:Middlewares/Third_Party/FreeRTOS/Source/event_groups.c ****             xWaitConditionMet = pdTRUE;
 727:Middlewares/Third_Party/FreeRTOS/Source/event_groups.c ****         }
 728:Middlewares/Third_Party/FreeRTOS/Source/event_groups.c ****         else
 729:Middlewares/Third_Party/FreeRTOS/Source/event_groups.c ****         {
 730:Middlewares/Third_Party/FreeRTOS/Source/event_groups.c ****             mtCOVERAGE_TEST_MARKER();
 731:Middlewares/Third_Party/FreeRTOS/Source/event_groups.c ****         }
 732:Middlewares/Third_Party/FreeRTOS/Source/event_groups.c ****     }
 733:Middlewares/Third_Party/FreeRTOS/Source/event_groups.c ****     else
 734:Middlewares/Third_Party/FreeRTOS/Source/event_groups.c ****     {
 735:Middlewares/Third_Party/FreeRTOS/Source/event_groups.c ****         /* Task has to wait for all the bits in uxBitsToWaitFor to be set.
 736:Middlewares/Third_Party/FreeRTOS/Source/event_groups.c ****          * Are they set already? */
 737:Middlewares/Third_Party/FreeRTOS/Source/event_groups.c ****         if( ( uxCurrentEventBits & uxBitsToWaitFor ) == uxBitsToWaitFor )
  48              		.loc 1 737 9 is_stmt 1 view .LVU8
  49              		.loc 1 737 34 is_stmt 0 view .LVU9
  50 000c 0840     		ands	r0, r1
  51              	.LVL3:
  52              		.loc 1 737 11 view .LVU10
  53 000e 8842     		cmp	r0, r1
  54 0010 03D0     		beq	.L5
 718:Middlewares/Third_Party/FreeRTOS/Source/event_groups.c **** 
  55              		.loc 1 718 16 view .LVU11
  56 0012 0020     		movs	r0, #0
  57              	.LVL4:
  58              	.L1:
 738:Middlewares/Third_Party/FreeRTOS/Source/event_groups.c ****         {
ARM GAS  C:\Users\main\AppData\Local\Temp\ccnKsYwO.s 			page 15


 739:Middlewares/Third_Party/FreeRTOS/Source/event_groups.c ****             xWaitConditionMet = pdTRUE;
 740:Middlewares/Third_Party/FreeRTOS/Source/event_groups.c ****         }
 741:Middlewares/Third_Party/FreeRTOS/Source/event_groups.c ****         else
 742:Middlewares/Third_Party/FreeRTOS/Source/event_groups.c ****         {
 743:Middlewares/Third_Party/FreeRTOS/Source/event_groups.c ****             mtCOVERAGE_TEST_MARKER();
 744:Middlewares/Third_Party/FreeRTOS/Source/event_groups.c ****         }
 745:Middlewares/Third_Party/FreeRTOS/Source/event_groups.c ****     }
 746:Middlewares/Third_Party/FreeRTOS/Source/event_groups.c **** 
 747:Middlewares/Third_Party/FreeRTOS/Source/event_groups.c ****     return xWaitConditionMet;
 748:Middlewares/Third_Party/FreeRTOS/Source/event_groups.c **** }
  59              		.loc 1 748 1 view .LVU12
  60              		@ sp needed
  61 0014 7047     		bx	lr
  62              	.LVL5:
  63              	.L4:
 726:Middlewares/Third_Party/FreeRTOS/Source/event_groups.c ****         }
  64              		.loc 1 726 31 view .LVU13
  65 0016 0120     		movs	r0, #1
  66              	.LVL6:
 726:Middlewares/Third_Party/FreeRTOS/Source/event_groups.c ****         }
  67              		.loc 1 726 31 view .LVU14
  68 0018 FCE7     		b	.L1
  69              	.L5:
 739:Middlewares/Third_Party/FreeRTOS/Source/event_groups.c ****         }
  70              		.loc 1 739 31 view .LVU15
  71 001a 0120     		movs	r0, #1
  72              	.LVL7:
 743:Middlewares/Third_Party/FreeRTOS/Source/event_groups.c ****         }
  73              		.loc 1 743 37 is_stmt 1 view .LVU16
 747:Middlewares/Third_Party/FreeRTOS/Source/event_groups.c **** }
  74              		.loc 1 747 5 view .LVU17
 747:Middlewares/Third_Party/FreeRTOS/Source/event_groups.c **** }
  75              		.loc 1 747 12 is_stmt 0 view .LVU18
  76 001c FAE7     		b	.L1
  77              		.cfi_endproc
  78              	.LFE13:
  80              		.section	.text.xEventGroupCreateStatic,"ax",%progbits
  81              		.align	1
  82              		.global	xEventGroupCreateStatic
  83              		.syntax unified
  84              		.code	16
  85              		.thumb_func
  87              	xEventGroupCreateStatic:
  88              	.LVL8:
  89              	.LFB1:
  82:Middlewares/Third_Party/FreeRTOS/Source/event_groups.c ****         EventGroup_t * pxEventBits;
  90              		.loc 1 82 5 is_stmt 1 view -0
  91              		.cfi_startproc
  92              		@ args = 0, pretend = 0, frame = 8
  93              		@ frame_needed = 0, uses_anonymous_args = 0
  82:Middlewares/Third_Party/FreeRTOS/Source/event_groups.c ****         EventGroup_t * pxEventBits;
  94              		.loc 1 82 5 is_stmt 0 view .LVU20
  95 0000 10B5     		push	{r4, lr}
  96              	.LCFI0:
  97              		.cfi_def_cfa_offset 8
  98              		.cfi_offset 4, -8
  99              		.cfi_offset 14, -4
ARM GAS  C:\Users\main\AppData\Local\Temp\ccnKsYwO.s 			page 16


 100 0002 82B0     		sub	sp, sp, #8
 101              	.LCFI1:
 102              		.cfi_def_cfa_offset 16
 103 0004 041E     		subs	r4, r0, #0
  83:Middlewares/Third_Party/FreeRTOS/Source/event_groups.c **** 
 104              		.loc 1 83 9 is_stmt 1 view .LVU21
  86:Middlewares/Third_Party/FreeRTOS/Source/event_groups.c **** 
 105              		.loc 1 86 9 view .LVU22
 106 0006 06D0     		beq	.L11
  86:Middlewares/Third_Party/FreeRTOS/Source/event_groups.c **** 
 107              		.loc 1 86 43 discriminator 2 view .LVU23
 108              	.LBB2:
  93:Middlewares/Third_Party/FreeRTOS/Source/event_groups.c ****             configASSERT( xSize == sizeof( EventGroup_t ) );
 109              		.loc 1 93 13 discriminator 2 view .LVU24
  93:Middlewares/Third_Party/FreeRTOS/Source/event_groups.c ****             configASSERT( xSize == sizeof( EventGroup_t ) );
 110              		.loc 1 93 29 is_stmt 0 discriminator 2 view .LVU25
 111 0008 2023     		movs	r3, #32
 112 000a 0193     		str	r3, [sp, #4]
  94:Middlewares/Third_Party/FreeRTOS/Source/event_groups.c ****         } /*lint !e529 xSize is referenced if configASSERT() is defined. */
 113              		.loc 1 94 13 is_stmt 1 discriminator 2 view .LVU26
 114 000c 019B     		ldr	r3, [sp, #4]
 115 000e 202B     		cmp	r3, #32
 116 0010 03D0     		beq	.L9
  94:Middlewares/Third_Party/FreeRTOS/Source/event_groups.c ****         } /*lint !e529 xSize is referenced if configASSERT() is defined. */
 117              		.loc 1 94 13 discriminator 1 view .LVU27
 118              		.syntax divided
 119              	@ 94 "Middlewares/Third_Party/FreeRTOS/Source/event_groups.c" 1
 120 0012 72B6     		 cpsid i 
 121              	@ 0 "" 2
 122              		.thumb
 123              		.syntax unified
 124              	.L10:
  94:Middlewares/Third_Party/FreeRTOS/Source/event_groups.c ****         } /*lint !e529 xSize is referenced if configASSERT() is defined. */
 125              		.loc 1 94 13 discriminator 2 view .LVU28
  94:Middlewares/Third_Party/FreeRTOS/Source/event_groups.c ****         } /*lint !e529 xSize is referenced if configASSERT() is defined. */
 126              		.loc 1 94 13 discriminator 2 view .LVU29
  94:Middlewares/Third_Party/FreeRTOS/Source/event_groups.c ****         } /*lint !e529 xSize is referenced if configASSERT() is defined. */
 127              		.loc 1 94 13 discriminator 2 view .LVU30
 128 0014 FEE7     		b	.L10
 129              	.L11:
 130              	.LBE2:
  86:Middlewares/Third_Party/FreeRTOS/Source/event_groups.c **** 
 131              		.loc 1 86 9 discriminator 1 view .LVU31
 132              		.syntax divided
 133              	@ 86 "Middlewares/Third_Party/FreeRTOS/Source/event_groups.c" 1
 134 0016 72B6     		 cpsid i 
 135              	@ 0 "" 2
 136              		.thumb
 137              		.syntax unified
 138              	.L8:
  86:Middlewares/Third_Party/FreeRTOS/Source/event_groups.c **** 
 139              		.loc 1 86 9 discriminator 1 view .LVU32
  86:Middlewares/Third_Party/FreeRTOS/Source/event_groups.c **** 
 140              		.loc 1 86 9 discriminator 1 view .LVU33
  86:Middlewares/Third_Party/FreeRTOS/Source/event_groups.c **** 
 141              		.loc 1 86 9 discriminator 1 view .LVU34
 142 0018 FEE7     		b	.L8
ARM GAS  C:\Users\main\AppData\Local\Temp\ccnKsYwO.s 			page 17


 143              	.L9:
 144              	.LBB3:
  94:Middlewares/Third_Party/FreeRTOS/Source/event_groups.c ****         } /*lint !e529 xSize is referenced if configASSERT() is defined. */
 145              		.loc 1 94 60 view .LVU35
 146              	.LBE3:
  99:Middlewares/Third_Party/FreeRTOS/Source/event_groups.c **** 
 147              		.loc 1 99 9 view .LVU36
 148              	.LVL9:
 101:Middlewares/Third_Party/FreeRTOS/Source/event_groups.c ****         {
 149              		.loc 1 101 9 view .LVU37
 103:Middlewares/Third_Party/FreeRTOS/Source/event_groups.c ****             vListInitialise( &( pxEventBits->xTasksWaitingForBits ) );
 150              		.loc 1 103 13 view .LVU38
 103:Middlewares/Third_Party/FreeRTOS/Source/event_groups.c ****             vListInitialise( &( pxEventBits->xTasksWaitingForBits ) );
 151              		.loc 1 103 38 is_stmt 0 view .LVU39
 152 001a 0023     		movs	r3, #0
 153 001c 08C0     		stmia	r0!, {r3}
 154              	.LVL10:
 104:Middlewares/Third_Party/FreeRTOS/Source/event_groups.c **** 
 155              		.loc 1 104 13 is_stmt 1 view .LVU40
 156 001e FFF7FEFF 		bl	vListInitialise
 157              	.LVL11:
 111:Middlewares/Third_Party/FreeRTOS/Source/event_groups.c ****             }
 158              		.loc 1 111 17 view .LVU41
 111:Middlewares/Third_Party/FreeRTOS/Source/event_groups.c ****             }
 159              		.loc 1 111 52 is_stmt 0 view .LVU42
 160 0022 0123     		movs	r3, #1
 161 0024 2377     		strb	r3, [r4, #28]
 115:Middlewares/Third_Party/FreeRTOS/Source/event_groups.c ****         }
 162              		.loc 1 115 51 is_stmt 1 view .LVU43
 122:Middlewares/Third_Party/FreeRTOS/Source/event_groups.c ****         }
 163              		.loc 1 122 45 view .LVU44
 125:Middlewares/Third_Party/FreeRTOS/Source/event_groups.c ****     }
 164              		.loc 1 125 9 view .LVU45
 126:Middlewares/Third_Party/FreeRTOS/Source/event_groups.c **** 
 165              		.loc 1 126 5 is_stmt 0 view .LVU46
 166 0026 2000     		movs	r0, r4
 167 0028 02B0     		add	sp, sp, #8
 168              		@ sp needed
 169              	.LVL12:
 126:Middlewares/Third_Party/FreeRTOS/Source/event_groups.c **** 
 170              		.loc 1 126 5 view .LVU47
 171 002a 10BD     		pop	{r4, pc}
 172              		.cfi_endproc
 173              	.LFE1:
 175              		.section	.text.xEventGroupCreate,"ax",%progbits
 176              		.align	1
 177              		.global	xEventGroupCreate
 178              		.syntax unified
 179              		.code	16
 180              		.thumb_func
 182              	xEventGroupCreate:
 183              	.LFB2:
 134:Middlewares/Third_Party/FreeRTOS/Source/event_groups.c ****         EventGroup_t * pxEventBits;
 184              		.loc 1 134 5 is_stmt 1 view -0
 185              		.cfi_startproc
 186              		@ args = 0, pretend = 0, frame = 0
 187              		@ frame_needed = 0, uses_anonymous_args = 0
ARM GAS  C:\Users\main\AppData\Local\Temp\ccnKsYwO.s 			page 18


 188 0000 70B5     		push	{r4, r5, r6, lr}
 189              	.LCFI2:
 190              		.cfi_def_cfa_offset 16
 191              		.cfi_offset 4, -16
 192              		.cfi_offset 5, -12
 193              		.cfi_offset 6, -8
 194              		.cfi_offset 14, -4
 135:Middlewares/Third_Party/FreeRTOS/Source/event_groups.c **** 
 195              		.loc 1 135 9 view .LVU49
 150:Middlewares/Third_Party/FreeRTOS/Source/event_groups.c **** 
 196              		.loc 1 150 9 view .LVU50
 150:Middlewares/Third_Party/FreeRTOS/Source/event_groups.c **** 
 197              		.loc 1 150 42 is_stmt 0 view .LVU51
 198 0002 2020     		movs	r0, #32
 199 0004 FFF7FEFF 		bl	pvPortMalloc
 200              	.LVL13:
 201 0008 041E     		subs	r4, r0, #0
 202              	.LVL14:
 152:Middlewares/Third_Party/FreeRTOS/Source/event_groups.c ****         {
 203              		.loc 1 152 9 is_stmt 1 view .LVU52
 152:Middlewares/Third_Party/FreeRTOS/Source/event_groups.c ****         {
 204              		.loc 1 152 11 is_stmt 0 view .LVU53
 205 000a 04D0     		beq	.L12
 154:Middlewares/Third_Party/FreeRTOS/Source/event_groups.c ****             vListInitialise( &( pxEventBits->xTasksWaitingForBits ) );
 206              		.loc 1 154 13 is_stmt 1 view .LVU54
 154:Middlewares/Third_Party/FreeRTOS/Source/event_groups.c ****             vListInitialise( &( pxEventBits->xTasksWaitingForBits ) );
 207              		.loc 1 154 38 is_stmt 0 view .LVU55
 208 000c 0025     		movs	r5, #0
 209 000e 20C0     		stmia	r0!, {r5}
 210              	.LVL15:
 155:Middlewares/Third_Party/FreeRTOS/Source/event_groups.c **** 
 211              		.loc 1 155 13 is_stmt 1 view .LVU56
 212 0010 FFF7FEFF 		bl	vListInitialise
 213              	.LVL16:
 162:Middlewares/Third_Party/FreeRTOS/Source/event_groups.c ****             }
 214              		.loc 1 162 17 view .LVU57
 162:Middlewares/Third_Party/FreeRTOS/Source/event_groups.c ****             }
 215              		.loc 1 162 52 is_stmt 0 view .LVU58
 216 0014 2577     		strb	r5, [r4, #28]
 166:Middlewares/Third_Party/FreeRTOS/Source/event_groups.c ****         }
 217              		.loc 1 166 51 is_stmt 1 view .LVU59
 170:Middlewares/Third_Party/FreeRTOS/Source/event_groups.c ****         }
 218              		.loc 1 170 45 view .LVU60
 173:Middlewares/Third_Party/FreeRTOS/Source/event_groups.c ****     }
 219              		.loc 1 173 9 view .LVU61
 220              	.L12:
 174:Middlewares/Third_Party/FreeRTOS/Source/event_groups.c **** 
 221              		.loc 1 174 5 is_stmt 0 view .LVU62
 222 0016 2000     		movs	r0, r4
 223              		@ sp needed
 224              	.LVL17:
 174:Middlewares/Third_Party/FreeRTOS/Source/event_groups.c **** 
 225              		.loc 1 174 5 view .LVU63
 226 0018 70BD     		pop	{r4, r5, r6, pc}
 227              		.cfi_endproc
 228              	.LFE2:
 230              		.section	.text.xEventGroupWaitBits,"ax",%progbits
ARM GAS  C:\Users\main\AppData\Local\Temp\ccnKsYwO.s 			page 19


 231              		.align	1
 232              		.global	xEventGroupWaitBits
 233              		.syntax unified
 234              		.code	16
 235              		.thumb_func
 237              	xEventGroupWaitBits:
 238              	.LVL18:
 239              	.LFB4:
 307:Middlewares/Third_Party/FreeRTOS/Source/event_groups.c ****     EventGroup_t * pxEventBits = xEventGroup;
 240              		.loc 1 307 1 is_stmt 1 view -0
 241              		.cfi_startproc
 242              		@ args = 4, pretend = 0, frame = 8
 243              		@ frame_needed = 0, uses_anonymous_args = 0
 307:Middlewares/Third_Party/FreeRTOS/Source/event_groups.c ****     EventGroup_t * pxEventBits = xEventGroup;
 244              		.loc 1 307 1 is_stmt 0 view .LVU65
 245 0000 F0B5     		push	{r4, r5, r6, r7, lr}
 246              	.LCFI3:
 247              		.cfi_def_cfa_offset 20
 248              		.cfi_offset 4, -20
 249              		.cfi_offset 5, -16
 250              		.cfi_offset 6, -12
 251              		.cfi_offset 7, -8
 252              		.cfi_offset 14, -4
 253 0002 CE46     		mov	lr, r9
 254 0004 4746     		mov	r7, r8
 255 0006 80B5     		push	{r7, lr}
 256              	.LCFI4:
 257              		.cfi_def_cfa_offset 28
 258              		.cfi_offset 8, -28
 259              		.cfi_offset 9, -24
 260 0008 83B0     		sub	sp, sp, #12
 261              	.LCFI5:
 262              		.cfi_def_cfa_offset 40
 263 000a 0400     		movs	r4, r0
 264 000c 0D00     		movs	r5, r1
 265 000e 0192     		str	r2, [sp, #4]
 266 0010 1E00     		movs	r6, r3
 308:Middlewares/Third_Party/FreeRTOS/Source/event_groups.c ****     EventBits_t uxReturn, uxControlBits = 0;
 267              		.loc 1 308 5 is_stmt 1 view .LVU66
 268              	.LVL19:
 309:Middlewares/Third_Party/FreeRTOS/Source/event_groups.c ****     BaseType_t xWaitConditionMet, xAlreadyYielded;
 269              		.loc 1 309 5 view .LVU67
 310:Middlewares/Third_Party/FreeRTOS/Source/event_groups.c ****     BaseType_t xTimeoutOccurred = pdFALSE;
 270              		.loc 1 310 5 view .LVU68
 311:Middlewares/Third_Party/FreeRTOS/Source/event_groups.c **** 
 271              		.loc 1 311 5 view .LVU69
 315:Middlewares/Third_Party/FreeRTOS/Source/event_groups.c ****     configASSERT( ( uxBitsToWaitFor & eventEVENT_BITS_CONTROL_BYTES ) == 0 );
 272              		.loc 1 315 5 view .LVU70
 273 0012 0028     		cmp	r0, #0
 274 0014 05D0     		beq	.L33
 315:Middlewares/Third_Party/FreeRTOS/Source/event_groups.c ****     configASSERT( ( uxBitsToWaitFor & eventEVENT_BITS_CONTROL_BYTES ) == 0 );
 275              		.loc 1 315 32 discriminator 2 view .LVU71
 316:Middlewares/Third_Party/FreeRTOS/Source/event_groups.c ****     configASSERT( uxBitsToWaitFor != 0 );
 276              		.loc 1 316 5 discriminator 2 view .LVU72
 277 0016 0B0E     		lsrs	r3, r1, #24
 278              	.LVL20:
 316:Middlewares/Third_Party/FreeRTOS/Source/event_groups.c ****     configASSERT( uxBitsToWaitFor != 0 );
ARM GAS  C:\Users\main\AppData\Local\Temp\ccnKsYwO.s 			page 20


 279              		.loc 1 316 5 is_stmt 0 discriminator 2 view .LVU73
 280 0018 1F06     		lsls	r7, r3, #24
 281 001a 002B     		cmp	r3, #0
 282 001c 03D0     		beq	.L17
 316:Middlewares/Third_Party/FreeRTOS/Source/event_groups.c ****     configASSERT( uxBitsToWaitFor != 0 );
 283              		.loc 1 316 5 is_stmt 1 discriminator 1 view .LVU74
 284              		.syntax divided
 285              	@ 316 "Middlewares/Third_Party/FreeRTOS/Source/event_groups.c" 1
 286 001e 72B6     		 cpsid i 
 287              	@ 0 "" 2
 288              		.thumb
 289              		.syntax unified
 290              	.L18:
 316:Middlewares/Third_Party/FreeRTOS/Source/event_groups.c ****     configASSERT( uxBitsToWaitFor != 0 );
 291              		.loc 1 316 5 discriminator 2 view .LVU75
 316:Middlewares/Third_Party/FreeRTOS/Source/event_groups.c ****     configASSERT( uxBitsToWaitFor != 0 );
 292              		.loc 1 316 5 discriminator 2 view .LVU76
 316:Middlewares/Third_Party/FreeRTOS/Source/event_groups.c ****     configASSERT( uxBitsToWaitFor != 0 );
 293              		.loc 1 316 5 discriminator 2 view .LVU77
 294 0020 FEE7     		b	.L18
 295              	.LVL21:
 296              	.L33:
 315:Middlewares/Third_Party/FreeRTOS/Source/event_groups.c ****     configASSERT( ( uxBitsToWaitFor & eventEVENT_BITS_CONTROL_BYTES ) == 0 );
 297              		.loc 1 315 5 discriminator 1 view .LVU78
 298              		.syntax divided
 299              	@ 315 "Middlewares/Third_Party/FreeRTOS/Source/event_groups.c" 1
 300 0022 72B6     		 cpsid i 
 301              	@ 0 "" 2
 302              		.thumb
 303              		.syntax unified
 304              	.L16:
 315:Middlewares/Third_Party/FreeRTOS/Source/event_groups.c ****     configASSERT( ( uxBitsToWaitFor & eventEVENT_BITS_CONTROL_BYTES ) == 0 );
 305              		.loc 1 315 5 discriminator 1 view .LVU79
 315:Middlewares/Third_Party/FreeRTOS/Source/event_groups.c ****     configASSERT( ( uxBitsToWaitFor & eventEVENT_BITS_CONTROL_BYTES ) == 0 );
 306              		.loc 1 315 5 discriminator 1 view .LVU80
 315:Middlewares/Third_Party/FreeRTOS/Source/event_groups.c ****     configASSERT( ( uxBitsToWaitFor & eventEVENT_BITS_CONTROL_BYTES ) == 0 );
 307              		.loc 1 315 5 discriminator 1 view .LVU81
 308 0024 FEE7     		b	.L16
 309              	.LVL22:
 310              	.L17:
 316:Middlewares/Third_Party/FreeRTOS/Source/event_groups.c ****     configASSERT( uxBitsToWaitFor != 0 );
 311              		.loc 1 316 77 discriminator 2 view .LVU82
 317:Middlewares/Third_Party/FreeRTOS/Source/event_groups.c ****     #if ( ( INCLUDE_xTaskGetSchedulerState == 1 ) || ( configUSE_TIMERS == 1 ) )
 312              		.loc 1 317 5 discriminator 2 view .LVU83
 313 0026 0029     		cmp	r1, #0
 314 0028 01D1     		bne	.L19
 317:Middlewares/Third_Party/FreeRTOS/Source/event_groups.c ****     #if ( ( INCLUDE_xTaskGetSchedulerState == 1 ) || ( configUSE_TIMERS == 1 ) )
 315              		.loc 1 317 5 discriminator 1 view .LVU84
 316              		.syntax divided
 317              	@ 317 "Middlewares/Third_Party/FreeRTOS/Source/event_groups.c" 1
 318 002a 72B6     		 cpsid i 
 319              	@ 0 "" 2
 320              		.thumb
 321              		.syntax unified
 322              	.L20:
 317:Middlewares/Third_Party/FreeRTOS/Source/event_groups.c ****     #if ( ( INCLUDE_xTaskGetSchedulerState == 1 ) || ( configUSE_TIMERS == 1 ) )
 323              		.loc 1 317 5 discriminator 3 view .LVU85
ARM GAS  C:\Users\main\AppData\Local\Temp\ccnKsYwO.s 			page 21


 317:Middlewares/Third_Party/FreeRTOS/Source/event_groups.c ****     #if ( ( INCLUDE_xTaskGetSchedulerState == 1 ) || ( configUSE_TIMERS == 1 ) )
 324              		.loc 1 317 5 discriminator 3 view .LVU86
 317:Middlewares/Third_Party/FreeRTOS/Source/event_groups.c ****     #if ( ( INCLUDE_xTaskGetSchedulerState == 1 ) || ( configUSE_TIMERS == 1 ) )
 325              		.loc 1 317 5 discriminator 3 view .LVU87
 326 002c FEE7     		b	.L20
 327              	.L19:
 317:Middlewares/Third_Party/FreeRTOS/Source/event_groups.c ****     #if ( ( INCLUDE_xTaskGetSchedulerState == 1 ) || ( configUSE_TIMERS == 1 ) )
 328              		.loc 1 317 41 discriminator 2 view .LVU88
 320:Middlewares/Third_Party/FreeRTOS/Source/event_groups.c ****     }
 329              		.loc 1 320 9 discriminator 2 view .LVU89
 330 002e FFF7FEFF 		bl	xTaskGetSchedulerState
 331              	.LVL23:
 320:Middlewares/Third_Party/FreeRTOS/Source/event_groups.c ****     }
 332              		.loc 1 320 9 is_stmt 0 discriminator 2 view .LVU90
 333 0032 0028     		cmp	r0, #0
 334 0034 04D1     		bne	.L21
 335 0036 0A9B     		ldr	r3, [sp, #40]
 336 0038 002B     		cmp	r3, #0
 337 003a 01D0     		beq	.L21
 320:Middlewares/Third_Party/FreeRTOS/Source/event_groups.c ****     }
 338              		.loc 1 320 9 is_stmt 1 view .LVU91
 339              		.syntax divided
 340              	@ 320 "Middlewares/Third_Party/FreeRTOS/Source/event_groups.c" 1
 341 003c 72B6     		 cpsid i 
 342              	@ 0 "" 2
 343              		.thumb
 344              		.syntax unified
 345              	.L22:
 320:Middlewares/Third_Party/FreeRTOS/Source/event_groups.c ****     }
 346              		.loc 1 320 9 discriminator 4 view .LVU92
 320:Middlewares/Third_Party/FreeRTOS/Source/event_groups.c ****     }
 347              		.loc 1 320 9 discriminator 4 view .LVU93
 320:Middlewares/Third_Party/FreeRTOS/Source/event_groups.c ****     }
 348              		.loc 1 320 9 discriminator 4 view .LVU94
 349 003e FEE7     		b	.L22
 350              	.L21:
 320:Middlewares/Third_Party/FreeRTOS/Source/event_groups.c ****     }
 351              		.loc 1 320 110 discriminator 8 view .LVU95
 324:Middlewares/Third_Party/FreeRTOS/Source/event_groups.c ****     {
 352              		.loc 1 324 5 discriminator 8 view .LVU96
 353 0040 FFF7FEFF 		bl	vTaskSuspendAll
 354              	.LVL24:
 355              	.LBB4:
 326:Middlewares/Third_Party/FreeRTOS/Source/event_groups.c **** 
 356              		.loc 1 326 9 discriminator 8 view .LVU97
 326:Middlewares/Third_Party/FreeRTOS/Source/event_groups.c **** 
 357              		.loc 1 326 27 is_stmt 0 discriminator 8 view .LVU98
 358 0044 2368     		ldr	r3, [r4]
 359 0046 9946     		mov	r9, r3
 360              	.LVL25:
 329:Middlewares/Third_Party/FreeRTOS/Source/event_groups.c **** 
 361              		.loc 1 329 9 is_stmt 1 discriminator 8 view .LVU99
 329:Middlewares/Third_Party/FreeRTOS/Source/event_groups.c **** 
 362              		.loc 1 329 29 is_stmt 0 discriminator 8 view .LVU100
 363 0048 3200     		movs	r2, r6
 364 004a 2900     		movs	r1, r5
 365 004c 1800     		movs	r0, r3
ARM GAS  C:\Users\main\AppData\Local\Temp\ccnKsYwO.s 			page 22


 366 004e FFF7FEFF 		bl	prvTestWaitCondition
 367              	.LVL26:
 331:Middlewares/Third_Party/FreeRTOS/Source/event_groups.c ****         {
 368              		.loc 1 331 9 is_stmt 1 discriminator 8 view .LVU101
 331:Middlewares/Third_Party/FreeRTOS/Source/event_groups.c ****         {
 369              		.loc 1 331 11 is_stmt 0 discriminator 8 view .LVU102
 370 0052 0028     		cmp	r0, #0
 371 0054 1BD0     		beq	.L23
 335:Middlewares/Third_Party/FreeRTOS/Source/event_groups.c ****             xTicksToWait = ( TickType_t ) 0;
 372              		.loc 1 335 13 is_stmt 1 view .LVU103
 373              	.LVL27:
 336:Middlewares/Third_Party/FreeRTOS/Source/event_groups.c **** 
 374              		.loc 1 336 13 view .LVU104
 339:Middlewares/Third_Party/FreeRTOS/Source/event_groups.c ****             {
 375              		.loc 1 339 13 view .LVU105
 339:Middlewares/Third_Party/FreeRTOS/Source/event_groups.c ****             {
 376              		.loc 1 339 15 is_stmt 0 view .LVU106
 377 0056 019B     		ldr	r3, [sp, #4]
 378 0058 002B     		cmp	r3, #0
 379 005a 02D0     		beq	.L24
 341:Middlewares/Third_Party/FreeRTOS/Source/event_groups.c ****             }
 380              		.loc 1 341 17 is_stmt 1 view .LVU107
 341:Middlewares/Third_Party/FreeRTOS/Source/event_groups.c ****             }
 381              		.loc 1 341 42 is_stmt 0 view .LVU108
 382 005c 4B46     		mov	r3, r9
 383 005e AB43     		bics	r3, r5
 384 0060 2360     		str	r3, [r4]
 385              	.LVL28:
 386              	.L24:
 389:Middlewares/Third_Party/FreeRTOS/Source/event_groups.c ****         }
 387              		.loc 1 389 77 is_stmt 1 view .LVU109
 388              	.LBE4:
 392:Middlewares/Third_Party/FreeRTOS/Source/event_groups.c **** 
 389              		.loc 1 392 5 view .LVU110
 392:Middlewares/Third_Party/FreeRTOS/Source/event_groups.c **** 
 390              		.loc 1 392 23 is_stmt 0 view .LVU111
 391 0062 FFF7FEFF 		bl	xTaskResumeAll
 392              	.LVL29:
 394:Middlewares/Third_Party/FreeRTOS/Source/event_groups.c ****     {
 393              		.loc 1 394 5 is_stmt 1 view .LVU112
 394:Middlewares/Third_Party/FreeRTOS/Source/event_groups.c ****     {
 394              		.loc 1 394 7 is_stmt 0 view .LVU113
 395 0066 002F     		cmp	r7, #0
 396 0068 0BD0     		beq	.L14
 396:Middlewares/Third_Party/FreeRTOS/Source/event_groups.c ****         {
 397              		.loc 1 396 9 is_stmt 1 view .LVU114
 396:Middlewares/Third_Party/FreeRTOS/Source/event_groups.c ****         {
 398              		.loc 1 396 11 is_stmt 0 view .LVU115
 399 006a 0028     		cmp	r0, #0
 400 006c 28D0     		beq	.L34
 401              	.LVL30:
 402              	.L28:
 402:Middlewares/Third_Party/FreeRTOS/Source/event_groups.c ****         }
 403              		.loc 1 402 37 is_stmt 1 view .LVU116
 409:Middlewares/Third_Party/FreeRTOS/Source/event_groups.c **** 
 404              		.loc 1 409 9 view .LVU117
 409:Middlewares/Third_Party/FreeRTOS/Source/event_groups.c **** 
ARM GAS  C:\Users\main\AppData\Local\Temp\ccnKsYwO.s 			page 23


 405              		.loc 1 409 20 is_stmt 0 view .LVU118
 406 006e FFF7FEFF 		bl	uxTaskResetEventItemValue
 407              	.LVL31:
 408 0072 8046     		mov	r8, r0
 409              	.LVL32:
 411:Middlewares/Third_Party/FreeRTOS/Source/event_groups.c ****         {
 410              		.loc 1 411 9 is_stmt 1 view .LVU119
 411:Middlewares/Third_Party/FreeRTOS/Source/event_groups.c ****         {
 411              		.loc 1 411 11 is_stmt 0 view .LVU120
 412 0074 0300     		movs	r3, r0
 413 0076 9B01     		lsls	r3, r3, #6
 414 0078 25D5     		bpl	.L35
 415              	.LVL33:
 416              	.L29:
 443:Middlewares/Third_Party/FreeRTOS/Source/event_groups.c **** 
 417              		.loc 1 443 9 is_stmt 1 view .LVU121
 446:Middlewares/Third_Party/FreeRTOS/Source/event_groups.c ****     }
 418              		.loc 1 446 9 view .LVU122
 446:Middlewares/Third_Party/FreeRTOS/Source/event_groups.c ****     }
 419              		.loc 1 446 18 is_stmt 0 view .LVU123
 420 007a 4346     		mov	r3, r8
 421 007c 1802     		lsls	r0, r3, #8
 422 007e 030A     		lsrs	r3, r0, #8
 423 0080 9946     		mov	r9, r3
 424              	.LVL34:
 449:Middlewares/Third_Party/FreeRTOS/Source/event_groups.c **** 
 425              		.loc 1 449 5 is_stmt 1 view .LVU124
 452:Middlewares/Third_Party/FreeRTOS/Source/event_groups.c **** 
 426              		.loc 1 452 5 view .LVU125
 454:Middlewares/Third_Party/FreeRTOS/Source/event_groups.c **** }
 427              		.loc 1 454 5 view .LVU126
 428              	.L14:
 455:Middlewares/Third_Party/FreeRTOS/Source/event_groups.c **** /*-----------------------------------------------------------*/
 429              		.loc 1 455 1 is_stmt 0 view .LVU127
 430 0082 4846     		mov	r0, r9
 431 0084 03B0     		add	sp, sp, #12
 432              		@ sp needed
 433              	.LVL35:
 434              	.LVL36:
 435              	.LVL37:
 436              	.LVL38:
 437              	.LVL39:
 455:Middlewares/Third_Party/FreeRTOS/Source/event_groups.c **** /*-----------------------------------------------------------*/
 438              		.loc 1 455 1 view .LVU128
 439 0086 C0BC     		pop	{r6, r7}
 440 0088 B946     		mov	r9, r7
 441 008a B046     		mov	r8, r6
 442 008c F0BD     		pop	{r4, r5, r6, r7, pc}
 443              	.LVL40:
 444              	.L23:
 445              	.LBB5:
 348:Middlewares/Third_Party/FreeRTOS/Source/event_groups.c ****         {
 446              		.loc 1 348 14 is_stmt 1 view .LVU129
 348:Middlewares/Third_Party/FreeRTOS/Source/event_groups.c ****         {
 447              		.loc 1 348 16 is_stmt 0 view .LVU130
 448 008e 0A9B     		ldr	r3, [sp, #40]
 449 0090 002B     		cmp	r3, #0
ARM GAS  C:\Users\main\AppData\Local\Temp\ccnKsYwO.s 			page 24


 450 0092 13D0     		beq	.L31
 361:Middlewares/Third_Party/FreeRTOS/Source/event_groups.c ****             {
 451              		.loc 1 361 13 is_stmt 1 view .LVU131
 361:Middlewares/Third_Party/FreeRTOS/Source/event_groups.c ****             {
 452              		.loc 1 361 15 is_stmt 0 view .LVU132
 453 0094 019B     		ldr	r3, [sp, #4]
 454 0096 002B     		cmp	r3, #0
 455 0098 0DD1     		bne	.L32
 456              	.LBE5:
 309:Middlewares/Third_Party/FreeRTOS/Source/event_groups.c ****     BaseType_t xWaitConditionMet, xAlreadyYielded;
 457              		.loc 1 309 27 view .LVU133
 458 009a 3900     		movs	r1, r7
 459              	.L25:
 460              	.LVL41:
 461              	.LBB6:
 367:Middlewares/Third_Party/FreeRTOS/Source/event_groups.c ****             }
 462              		.loc 1 367 41 is_stmt 1 view .LVU134
 370:Middlewares/Third_Party/FreeRTOS/Source/event_groups.c ****             {
 463              		.loc 1 370 13 view .LVU135
 370:Middlewares/Third_Party/FreeRTOS/Source/event_groups.c ****             {
 464              		.loc 1 370 15 is_stmt 0 view .LVU136
 465 009c 002E     		cmp	r6, #0
 466 009e 02D0     		beq	.L26
 372:Middlewares/Third_Party/FreeRTOS/Source/event_groups.c ****             }
 467              		.loc 1 372 17 is_stmt 1 view .LVU137
 372:Middlewares/Third_Party/FreeRTOS/Source/event_groups.c ****             }
 468              		.loc 1 372 31 is_stmt 0 view .LVU138
 469 00a0 8023     		movs	r3, #128
 470 00a2 DB04     		lsls	r3, r3, #19
 471 00a4 1943     		orrs	r1, r3
 472              	.LVL42:
 473              	.L26:
 376:Middlewares/Third_Party/FreeRTOS/Source/event_groups.c ****             }
 474              		.loc 1 376 41 is_stmt 1 view .LVU139
 382:Middlewares/Third_Party/FreeRTOS/Source/event_groups.c **** 
 475              		.loc 1 382 13 view .LVU140
 476 00a6 2943     		orrs	r1, r5
 477              	.LVL43:
 382:Middlewares/Third_Party/FreeRTOS/Source/event_groups.c **** 
 478              		.loc 1 382 13 is_stmt 0 view .LVU141
 479 00a8 201D     		adds	r0, r4, #4
 480              	.LVL44:
 382:Middlewares/Third_Party/FreeRTOS/Source/event_groups.c **** 
 481              		.loc 1 382 13 view .LVU142
 482 00aa 0A9A     		ldr	r2, [sp, #40]
 483 00ac FFF7FEFF 		bl	vTaskPlaceOnUnorderedEventList
 484              	.LVL45:
 387:Middlewares/Third_Party/FreeRTOS/Source/event_groups.c **** 
 485              		.loc 1 387 13 is_stmt 1 view .LVU143
 387:Middlewares/Third_Party/FreeRTOS/Source/event_groups.c **** 
 486              		.loc 1 387 22 is_stmt 0 view .LVU144
 487 00b0 B946     		mov	r9, r7
 488              	.LVL46:
 382:Middlewares/Third_Party/FreeRTOS/Source/event_groups.c **** 
 489              		.loc 1 382 13 view .LVU145
 490 00b2 0A9F     		ldr	r7, [sp, #40]
 491 00b4 D5E7     		b	.L24
ARM GAS  C:\Users\main\AppData\Local\Temp\ccnKsYwO.s 			page 25


 492              	.LVL47:
 493              	.L32:
 363:Middlewares/Third_Party/FreeRTOS/Source/event_groups.c ****             }
 494              		.loc 1 363 31 view .LVU146
 495 00b6 8021     		movs	r1, #128
 496 00b8 4904     		lsls	r1, r1, #17
 497 00ba EFE7     		b	.L25
 498              	.L31:
 499 00bc 0A9F     		ldr	r7, [sp, #40]
 500 00be D0E7     		b	.L24
 501              	.LVL48:
 502              	.L34:
 363:Middlewares/Third_Party/FreeRTOS/Source/event_groups.c ****             }
 503              		.loc 1 363 31 view .LVU147
 504              	.LBE6:
 398:Middlewares/Third_Party/FreeRTOS/Source/event_groups.c ****         }
 505              		.loc 1 398 13 is_stmt 1 view .LVU148
 506 00c0 FFF7FEFF 		bl	vPortYield
 507              	.LVL49:
 398:Middlewares/Third_Party/FreeRTOS/Source/event_groups.c ****         }
 508              		.loc 1 398 13 is_stmt 0 view .LVU149
 509 00c4 D3E7     		b	.L28
 510              	.LVL50:
 511              	.L35:
 413:Middlewares/Third_Party/FreeRTOS/Source/event_groups.c ****             {
 512              		.loc 1 413 13 is_stmt 1 view .LVU150
 513 00c6 FFF7FEFF 		bl	vPortEnterCritical
 514              	.LVL51:
 416:Middlewares/Third_Party/FreeRTOS/Source/event_groups.c **** 
 515              		.loc 1 416 17 view .LVU151
 416:Middlewares/Third_Party/FreeRTOS/Source/event_groups.c **** 
 516              		.loc 1 416 26 is_stmt 0 view .LVU152
 517 00ca 2368     		ldr	r3, [r4]
 518 00cc 9846     		mov	r8, r3
 519              	.LVL52:
 420:Middlewares/Third_Party/FreeRTOS/Source/event_groups.c ****                 {
 520              		.loc 1 420 17 is_stmt 1 view .LVU153
 420:Middlewares/Third_Party/FreeRTOS/Source/event_groups.c ****                 {
 521              		.loc 1 420 21 is_stmt 0 view .LVU154
 522 00ce 3200     		movs	r2, r6
 523 00d0 2900     		movs	r1, r5
 524 00d2 1800     		movs	r0, r3
 525 00d4 FFF7FEFF 		bl	prvTestWaitCondition
 526              	.LVL53:
 420:Middlewares/Third_Party/FreeRTOS/Source/event_groups.c ****                 {
 527              		.loc 1 420 19 view .LVU155
 528 00d8 0028     		cmp	r0, #0
 529 00da 05D0     		beq	.L30
 422:Middlewares/Third_Party/FreeRTOS/Source/event_groups.c ****                     {
 530              		.loc 1 422 21 is_stmt 1 view .LVU156
 422:Middlewares/Third_Party/FreeRTOS/Source/event_groups.c ****                     {
 531              		.loc 1 422 23 is_stmt 0 view .LVU157
 532 00dc 019B     		ldr	r3, [sp, #4]
 533 00de 002B     		cmp	r3, #0
 534 00e0 02D0     		beq	.L30
 424:Middlewares/Third_Party/FreeRTOS/Source/event_groups.c ****                     }
 535              		.loc 1 424 25 is_stmt 1 view .LVU158
ARM GAS  C:\Users\main\AppData\Local\Temp\ccnKsYwO.s 			page 26


 424:Middlewares/Third_Party/FreeRTOS/Source/event_groups.c ****                     }
 536              		.loc 1 424 50 is_stmt 0 view .LVU159
 537 00e2 4346     		mov	r3, r8
 538 00e4 AB43     		bics	r3, r5
 539 00e6 2360     		str	r3, [r4]
 540              	.L30:
 433:Middlewares/Third_Party/FreeRTOS/Source/event_groups.c ****                 }
 541              		.loc 1 433 45 is_stmt 1 view .LVU160
 436:Middlewares/Third_Party/FreeRTOS/Source/event_groups.c ****             }
 542              		.loc 1 436 17 view .LVU161
 543              	.LVL54:
 438:Middlewares/Third_Party/FreeRTOS/Source/event_groups.c ****         }
 544              		.loc 1 438 13 view .LVU162
 545 00e8 FFF7FEFF 		bl	vPortExitCritical
 546              	.LVL55:
 547 00ec C5E7     		b	.L29
 548              		.cfi_endproc
 549              	.LFE4:
 551              		.section	.text.xEventGroupClearBits,"ax",%progbits
 552              		.align	1
 553              		.global	xEventGroupClearBits
 554              		.syntax unified
 555              		.code	16
 556              		.thumb_func
 558              	xEventGroupClearBits:
 559              	.LVL56:
 560              	.LFB5:
 460:Middlewares/Third_Party/FreeRTOS/Source/event_groups.c ****     EventGroup_t * pxEventBits = xEventGroup;
 561              		.loc 1 460 1 view -0
 562              		.cfi_startproc
 563              		@ args = 0, pretend = 0, frame = 0
 564              		@ frame_needed = 0, uses_anonymous_args = 0
 460:Middlewares/Third_Party/FreeRTOS/Source/event_groups.c ****     EventGroup_t * pxEventBits = xEventGroup;
 565              		.loc 1 460 1 is_stmt 0 view .LVU164
 566 0000 70B5     		push	{r4, r5, r6, lr}
 567              	.LCFI6:
 568              		.cfi_def_cfa_offset 16
 569              		.cfi_offset 4, -16
 570              		.cfi_offset 5, -12
 571              		.cfi_offset 6, -8
 572              		.cfi_offset 14, -4
 573 0002 0400     		movs	r4, r0
 574 0004 0D00     		movs	r5, r1
 461:Middlewares/Third_Party/FreeRTOS/Source/event_groups.c ****     EventBits_t uxReturn;
 575              		.loc 1 461 5 is_stmt 1 view .LVU165
 576              	.LVL57:
 462:Middlewares/Third_Party/FreeRTOS/Source/event_groups.c **** 
 577              		.loc 1 462 5 view .LVU166
 466:Middlewares/Third_Party/FreeRTOS/Source/event_groups.c ****     configASSERT( ( uxBitsToClear & eventEVENT_BITS_CONTROL_BYTES ) == 0 );
 578              		.loc 1 466 5 view .LVU167
 579 0006 0028     		cmp	r0, #0
 580 0008 03D0     		beq	.L41
 466:Middlewares/Third_Party/FreeRTOS/Source/event_groups.c ****     configASSERT( ( uxBitsToClear & eventEVENT_BITS_CONTROL_BYTES ) == 0 );
 581              		.loc 1 466 32 discriminator 2 view .LVU168
 467:Middlewares/Third_Party/FreeRTOS/Source/event_groups.c **** 
 582              		.loc 1 467 5 discriminator 2 view .LVU169
 583 000a 0B0E     		lsrs	r3, r1, #24
ARM GAS  C:\Users\main\AppData\Local\Temp\ccnKsYwO.s 			page 27


 584 000c 03D0     		beq	.L39
 467:Middlewares/Third_Party/FreeRTOS/Source/event_groups.c **** 
 585              		.loc 1 467 5 discriminator 1 view .LVU170
 586              		.syntax divided
 587              	@ 467 "Middlewares/Third_Party/FreeRTOS/Source/event_groups.c" 1
 588 000e 72B6     		 cpsid i 
 589              	@ 0 "" 2
 590              		.thumb
 591              		.syntax unified
 592              	.L40:
 467:Middlewares/Third_Party/FreeRTOS/Source/event_groups.c **** 
 593              		.loc 1 467 5 discriminator 2 view .LVU171
 467:Middlewares/Third_Party/FreeRTOS/Source/event_groups.c **** 
 594              		.loc 1 467 5 discriminator 2 view .LVU172
 467:Middlewares/Third_Party/FreeRTOS/Source/event_groups.c **** 
 595              		.loc 1 467 5 discriminator 2 view .LVU173
 596 0010 FEE7     		b	.L40
 597              	.L41:
 466:Middlewares/Third_Party/FreeRTOS/Source/event_groups.c ****     configASSERT( ( uxBitsToClear & eventEVENT_BITS_CONTROL_BYTES ) == 0 );
 598              		.loc 1 466 5 discriminator 1 view .LVU174
 599              		.syntax divided
 600              	@ 466 "Middlewares/Third_Party/FreeRTOS/Source/event_groups.c" 1
 601 0012 72B6     		 cpsid i 
 602              	@ 0 "" 2
 603              		.thumb
 604              		.syntax unified
 605              	.L38:
 466:Middlewares/Third_Party/FreeRTOS/Source/event_groups.c ****     configASSERT( ( uxBitsToClear & eventEVENT_BITS_CONTROL_BYTES ) == 0 );
 606              		.loc 1 466 5 discriminator 1 view .LVU175
 466:Middlewares/Third_Party/FreeRTOS/Source/event_groups.c ****     configASSERT( ( uxBitsToClear & eventEVENT_BITS_CONTROL_BYTES ) == 0 );
 607              		.loc 1 466 5 discriminator 1 view .LVU176
 466:Middlewares/Third_Party/FreeRTOS/Source/event_groups.c ****     configASSERT( ( uxBitsToClear & eventEVENT_BITS_CONTROL_BYTES ) == 0 );
 608              		.loc 1 466 5 discriminator 1 view .LVU177
 609 0014 FEE7     		b	.L38
 610              	.L39:
 467:Middlewares/Third_Party/FreeRTOS/Source/event_groups.c **** 
 611              		.loc 1 467 75 discriminator 2 view .LVU178
 469:Middlewares/Third_Party/FreeRTOS/Source/event_groups.c ****     {
 612              		.loc 1 469 5 discriminator 2 view .LVU179
 613 0016 FFF7FEFF 		bl	vPortEnterCritical
 614              	.LVL58:
 471:Middlewares/Third_Party/FreeRTOS/Source/event_groups.c **** 
 615              		.loc 1 471 66 discriminator 2 view .LVU180
 475:Middlewares/Third_Party/FreeRTOS/Source/event_groups.c **** 
 616              		.loc 1 475 9 discriminator 2 view .LVU181
 475:Middlewares/Third_Party/FreeRTOS/Source/event_groups.c **** 
 617              		.loc 1 475 18 is_stmt 0 discriminator 2 view .LVU182
 618 001a 2668     		ldr	r6, [r4]
 619              	.LVL59:
 478:Middlewares/Third_Party/FreeRTOS/Source/event_groups.c ****     }
 620              		.loc 1 478 9 is_stmt 1 discriminator 2 view .LVU183
 478:Middlewares/Third_Party/FreeRTOS/Source/event_groups.c ****     }
 621              		.loc 1 478 34 is_stmt 0 discriminator 2 view .LVU184
 622 001c 3300     		movs	r3, r6
 623 001e AB43     		bics	r3, r5
 624 0020 2360     		str	r3, [r4]
 480:Middlewares/Third_Party/FreeRTOS/Source/event_groups.c **** 
ARM GAS  C:\Users\main\AppData\Local\Temp\ccnKsYwO.s 			page 28


 625              		.loc 1 480 5 is_stmt 1 discriminator 2 view .LVU185
 626 0022 FFF7FEFF 		bl	vPortExitCritical
 627              	.LVL60:
 482:Middlewares/Third_Party/FreeRTOS/Source/event_groups.c **** }
 628              		.loc 1 482 5 discriminator 2 view .LVU186
 483:Middlewares/Third_Party/FreeRTOS/Source/event_groups.c **** /*-----------------------------------------------------------*/
 629              		.loc 1 483 1 is_stmt 0 discriminator 2 view .LVU187
 630 0026 3000     		movs	r0, r6
 631              		@ sp needed
 632              	.LVL61:
 633              	.LVL62:
 634              	.LVL63:
 483:Middlewares/Third_Party/FreeRTOS/Source/event_groups.c **** /*-----------------------------------------------------------*/
 635              		.loc 1 483 1 discriminator 2 view .LVU188
 636 0028 70BD     		pop	{r4, r5, r6, pc}
 637              		.cfi_endproc
 638              	.LFE5:
 640              		.section	.text.vEventGroupClearBitsCallback,"ax",%progbits
 641              		.align	1
 642              		.global	vEventGroupClearBitsCallback
 643              		.syntax unified
 644              		.code	16
 645              		.thumb_func
 647              	vEventGroupClearBitsCallback:
 648              	.LVL64:
 649              	.LFB12:
 709:Middlewares/Third_Party/FreeRTOS/Source/event_groups.c ****     ( void ) xEventGroupClearBits( pvEventGroup, ( EventBits_t ) ulBitsToClear ); /*lint !e9079 Can
 650              		.loc 1 709 1 is_stmt 1 view -0
 651              		.cfi_startproc
 652              		@ args = 0, pretend = 0, frame = 0
 653              		@ frame_needed = 0, uses_anonymous_args = 0
 709:Middlewares/Third_Party/FreeRTOS/Source/event_groups.c ****     ( void ) xEventGroupClearBits( pvEventGroup, ( EventBits_t ) ulBitsToClear ); /*lint !e9079 Can
 654              		.loc 1 709 1 is_stmt 0 view .LVU190
 655 0000 10B5     		push	{r4, lr}
 656              	.LCFI7:
 657              		.cfi_def_cfa_offset 8
 658              		.cfi_offset 4, -8
 659              		.cfi_offset 14, -4
 710:Middlewares/Third_Party/FreeRTOS/Source/event_groups.c **** }
 660              		.loc 1 710 5 is_stmt 1 view .LVU191
 710:Middlewares/Third_Party/FreeRTOS/Source/event_groups.c **** }
 661              		.loc 1 710 14 is_stmt 0 view .LVU192
 662 0002 FFF7FEFF 		bl	xEventGroupClearBits
 663              	.LVL65:
 711:Middlewares/Third_Party/FreeRTOS/Source/event_groups.c **** /*-----------------------------------------------------------*/
 664              		.loc 1 711 1 view .LVU193
 665              		@ sp needed
 666 0006 10BD     		pop	{r4, pc}
 667              		.cfi_endproc
 668              	.LFE12:
 670              		.section	.text.xEventGroupClearBitsFromISR,"ax",%progbits
 671              		.align	1
 672              		.global	xEventGroupClearBitsFromISR
 673              		.syntax unified
 674              		.code	16
 675              		.thumb_func
 677              	xEventGroupClearBitsFromISR:
ARM GAS  C:\Users\main\AppData\Local\Temp\ccnKsYwO.s 			page 29


 678              	.LVL66:
 679              	.LFB6:
 490:Middlewares/Third_Party/FreeRTOS/Source/event_groups.c ****         BaseType_t xReturn;
 680              		.loc 1 490 5 is_stmt 1 view -0
 681              		.cfi_startproc
 682              		@ args = 0, pretend = 0, frame = 0
 683              		@ frame_needed = 0, uses_anonymous_args = 0
 490:Middlewares/Third_Party/FreeRTOS/Source/event_groups.c ****         BaseType_t xReturn;
 684              		.loc 1 490 5 is_stmt 0 view .LVU195
 685 0000 10B5     		push	{r4, lr}
 686              	.LCFI8:
 687              		.cfi_def_cfa_offset 8
 688              		.cfi_offset 4, -8
 689              		.cfi_offset 14, -4
 690 0002 0A00     		movs	r2, r1
 491:Middlewares/Third_Party/FreeRTOS/Source/event_groups.c **** 
 691              		.loc 1 491 9 is_stmt 1 view .LVU196
 493:Middlewares/Third_Party/FreeRTOS/Source/event_groups.c ****         xReturn = xTimerPendFunctionCallFromISR( vEventGroupClearBitsCallback, ( void * ) xEventGro
 692              		.loc 1 493 75 view .LVU197
 494:Middlewares/Third_Party/FreeRTOS/Source/event_groups.c **** 
 693              		.loc 1 494 9 view .LVU198
 494:Middlewares/Third_Party/FreeRTOS/Source/event_groups.c **** 
 694              		.loc 1 494 19 is_stmt 0 view .LVU199
 695 0004 0023     		movs	r3, #0
 696 0006 0100     		movs	r1, r0
 697              	.LVL67:
 494:Middlewares/Third_Party/FreeRTOS/Source/event_groups.c **** 
 698              		.loc 1 494 19 view .LVU200
 699 0008 0148     		ldr	r0, .L44
 700              	.LVL68:
 494:Middlewares/Third_Party/FreeRTOS/Source/event_groups.c **** 
 701              		.loc 1 494 19 view .LVU201
 702 000a FFF7FEFF 		bl	xTimerPendFunctionCallFromISR
 703              	.LVL69:
 496:Middlewares/Third_Party/FreeRTOS/Source/event_groups.c ****     }
 704              		.loc 1 496 9 is_stmt 1 view .LVU202
 497:Middlewares/Third_Party/FreeRTOS/Source/event_groups.c **** 
 705              		.loc 1 497 5 is_stmt 0 view .LVU203
 706              		@ sp needed
 707 000e 10BD     		pop	{r4, pc}
 708              	.L45:
 709              		.align	2
 710              	.L44:
 711 0010 00000000 		.word	vEventGroupClearBitsCallback
 712              		.cfi_endproc
 713              	.LFE6:
 715              		.section	.text.xEventGroupGetBitsFromISR,"ax",%progbits
 716              		.align	1
 717              		.global	xEventGroupGetBitsFromISR
 718              		.syntax unified
 719              		.code	16
 720              		.thumb_func
 722              	xEventGroupGetBitsFromISR:
 723              	.LVL70:
 724              	.LFB7:
 503:Middlewares/Third_Party/FreeRTOS/Source/event_groups.c ****     UBaseType_t uxSavedInterruptStatus;
 725              		.loc 1 503 1 is_stmt 1 view -0
ARM GAS  C:\Users\main\AppData\Local\Temp\ccnKsYwO.s 			page 30


 726              		.cfi_startproc
 727              		@ args = 0, pretend = 0, frame = 0
 728              		@ frame_needed = 0, uses_anonymous_args = 0
 503:Middlewares/Third_Party/FreeRTOS/Source/event_groups.c ****     UBaseType_t uxSavedInterruptStatus;
 729              		.loc 1 503 1 is_stmt 0 view .LVU205
 730 0000 10B5     		push	{r4, lr}
 731              	.LCFI9:
 732              		.cfi_def_cfa_offset 8
 733              		.cfi_offset 4, -8
 734              		.cfi_offset 14, -4
 735 0002 0400     		movs	r4, r0
 504:Middlewares/Third_Party/FreeRTOS/Source/event_groups.c ****     EventGroup_t const * const pxEventBits = xEventGroup;
 736              		.loc 1 504 5 is_stmt 1 view .LVU206
 505:Middlewares/Third_Party/FreeRTOS/Source/event_groups.c ****     EventBits_t uxReturn;
 737              		.loc 1 505 5 view .LVU207
 738              	.LVL71:
 506:Middlewares/Third_Party/FreeRTOS/Source/event_groups.c **** 
 739              		.loc 1 506 5 view .LVU208
 508:Middlewares/Third_Party/FreeRTOS/Source/event_groups.c ****     {
 740              		.loc 1 508 5 view .LVU209
 508:Middlewares/Third_Party/FreeRTOS/Source/event_groups.c ****     {
 741              		.loc 1 508 30 is_stmt 0 view .LVU210
 742 0004 FFF7FEFF 		bl	ulSetInterruptMaskFromISR
 743              	.LVL72:
 510:Middlewares/Third_Party/FreeRTOS/Source/event_groups.c ****     }
 744              		.loc 1 510 9 is_stmt 1 view .LVU211
 510:Middlewares/Third_Party/FreeRTOS/Source/event_groups.c ****     }
 745              		.loc 1 510 18 is_stmt 0 view .LVU212
 746 0008 2468     		ldr	r4, [r4]
 747              	.LVL73:
 512:Middlewares/Third_Party/FreeRTOS/Source/event_groups.c **** 
 748              		.loc 1 512 5 is_stmt 1 view .LVU213
 749 000a FFF7FEFF 		bl	vClearInterruptMaskFromISR
 750              	.LVL74:
 514:Middlewares/Third_Party/FreeRTOS/Source/event_groups.c **** } /*lint !e818 EventGroupHandle_t is a typedef used in other functions to so can't be pointer to co
 751              		.loc 1 514 5 view .LVU214
 515:Middlewares/Third_Party/FreeRTOS/Source/event_groups.c **** /*-----------------------------------------------------------*/
 752              		.loc 1 515 1 is_stmt 0 view .LVU215
 753 000e 2000     		movs	r0, r4
 754              		@ sp needed
 755              	.LVL75:
 515:Middlewares/Third_Party/FreeRTOS/Source/event_groups.c **** /*-----------------------------------------------------------*/
 756              		.loc 1 515 1 view .LVU216
 757 0010 10BD     		pop	{r4, pc}
 758              		.cfi_endproc
 759              	.LFE7:
 761              		.section	.text.xEventGroupSetBits,"ax",%progbits
 762              		.align	1
 763              		.global	xEventGroupSetBits
 764              		.syntax unified
 765              		.code	16
 766              		.thumb_func
 768              	xEventGroupSetBits:
 769              	.LVL76:
 770              	.LFB8:
 520:Middlewares/Third_Party/FreeRTOS/Source/event_groups.c ****     ListItem_t * pxListItem;
 771              		.loc 1 520 1 is_stmt 1 view -0
ARM GAS  C:\Users\main\AppData\Local\Temp\ccnKsYwO.s 			page 31


 772              		.cfi_startproc
 773              		@ args = 0, pretend = 0, frame = 0
 774              		@ frame_needed = 0, uses_anonymous_args = 0
 520:Middlewares/Third_Party/FreeRTOS/Source/event_groups.c ****     ListItem_t * pxListItem;
 775              		.loc 1 520 1 is_stmt 0 view .LVU218
 776 0000 F8B5     		push	{r3, r4, r5, r6, r7, lr}
 777              	.LCFI10:
 778              		.cfi_def_cfa_offset 24
 779              		.cfi_offset 3, -24
 780              		.cfi_offset 4, -20
 781              		.cfi_offset 5, -16
 782              		.cfi_offset 6, -12
 783              		.cfi_offset 7, -8
 784              		.cfi_offset 14, -4
 785 0002 0400     		movs	r4, r0
 786 0004 0D00     		movs	r5, r1
 521:Middlewares/Third_Party/FreeRTOS/Source/event_groups.c ****     ListItem_t * pxNext;
 787              		.loc 1 521 5 is_stmt 1 view .LVU219
 522:Middlewares/Third_Party/FreeRTOS/Source/event_groups.c ****     ListItem_t const * pxListEnd;
 788              		.loc 1 522 5 view .LVU220
 523:Middlewares/Third_Party/FreeRTOS/Source/event_groups.c ****     List_t const * pxList;
 789              		.loc 1 523 5 view .LVU221
 524:Middlewares/Third_Party/FreeRTOS/Source/event_groups.c ****     EventBits_t uxBitsToClear = 0, uxBitsWaitedFor, uxControlBits;
 790              		.loc 1 524 5 view .LVU222
 525:Middlewares/Third_Party/FreeRTOS/Source/event_groups.c ****     EventGroup_t * pxEventBits = xEventGroup;
 791              		.loc 1 525 5 view .LVU223
 792              	.LVL77:
 526:Middlewares/Third_Party/FreeRTOS/Source/event_groups.c ****     BaseType_t xMatchFound = pdFALSE;
 793              		.loc 1 526 5 view .LVU224
 527:Middlewares/Third_Party/FreeRTOS/Source/event_groups.c **** 
 794              		.loc 1 527 5 view .LVU225
 531:Middlewares/Third_Party/FreeRTOS/Source/event_groups.c ****     configASSERT( ( uxBitsToSet & eventEVENT_BITS_CONTROL_BYTES ) == 0 );
 795              		.loc 1 531 5 view .LVU226
 796 0006 0028     		cmp	r0, #0
 797 0008 05D0     		beq	.L58
 531:Middlewares/Third_Party/FreeRTOS/Source/event_groups.c ****     configASSERT( ( uxBitsToSet & eventEVENT_BITS_CONTROL_BYTES ) == 0 );
 798              		.loc 1 531 32 discriminator 2 view .LVU227
 532:Middlewares/Third_Party/FreeRTOS/Source/event_groups.c **** 
 799              		.loc 1 532 5 discriminator 2 view .LVU228
 800 000a 0B0E     		lsrs	r3, r1, #24
 801 000c 1F06     		lsls	r7, r3, #24
 802 000e 002B     		cmp	r3, #0
 803 0010 03D0     		beq	.L50
 532:Middlewares/Third_Party/FreeRTOS/Source/event_groups.c **** 
 804              		.loc 1 532 5 discriminator 1 view .LVU229
 805              		.syntax divided
 806              	@ 532 "Middlewares/Third_Party/FreeRTOS/Source/event_groups.c" 1
 807 0012 72B6     		 cpsid i 
 808              	@ 0 "" 2
 809              		.thumb
 810              		.syntax unified
 811              	.L51:
 532:Middlewares/Third_Party/FreeRTOS/Source/event_groups.c **** 
 812              		.loc 1 532 5 discriminator 2 view .LVU230
 532:Middlewares/Third_Party/FreeRTOS/Source/event_groups.c **** 
 813              		.loc 1 532 5 discriminator 2 view .LVU231
 532:Middlewares/Third_Party/FreeRTOS/Source/event_groups.c **** 
ARM GAS  C:\Users\main\AppData\Local\Temp\ccnKsYwO.s 			page 32


 814              		.loc 1 532 5 discriminator 2 view .LVU232
 815 0014 FEE7     		b	.L51
 816              	.L58:
 531:Middlewares/Third_Party/FreeRTOS/Source/event_groups.c ****     configASSERT( ( uxBitsToSet & eventEVENT_BITS_CONTROL_BYTES ) == 0 );
 817              		.loc 1 531 5 discriminator 1 view .LVU233
 818              		.syntax divided
 819              	@ 531 "Middlewares/Third_Party/FreeRTOS/Source/event_groups.c" 1
 820 0016 72B6     		 cpsid i 
 821              	@ 0 "" 2
 822              		.thumb
 823              		.syntax unified
 824              	.L49:
 531:Middlewares/Third_Party/FreeRTOS/Source/event_groups.c ****     configASSERT( ( uxBitsToSet & eventEVENT_BITS_CONTROL_BYTES ) == 0 );
 825              		.loc 1 531 5 discriminator 1 view .LVU234
 531:Middlewares/Third_Party/FreeRTOS/Source/event_groups.c ****     configASSERT( ( uxBitsToSet & eventEVENT_BITS_CONTROL_BYTES ) == 0 );
 826              		.loc 1 531 5 discriminator 1 view .LVU235
 531:Middlewares/Third_Party/FreeRTOS/Source/event_groups.c ****     configASSERT( ( uxBitsToSet & eventEVENT_BITS_CONTROL_BYTES ) == 0 );
 827              		.loc 1 531 5 discriminator 1 view .LVU236
 828 0018 FEE7     		b	.L49
 829              	.L50:
 532:Middlewares/Third_Party/FreeRTOS/Source/event_groups.c **** 
 830              		.loc 1 532 73 discriminator 2 view .LVU237
 534:Middlewares/Third_Party/FreeRTOS/Source/event_groups.c ****     pxListEnd = listGET_END_MARKER( pxList ); /*lint !e826 !e740 !e9087 The mini list structure is 
 831              		.loc 1 534 5 discriminator 2 view .LVU238
 832              	.LVL78:
 535:Middlewares/Third_Party/FreeRTOS/Source/event_groups.c ****     vTaskSuspendAll();
 833              		.loc 1 535 5 discriminator 2 view .LVU239
 535:Middlewares/Third_Party/FreeRTOS/Source/event_groups.c ****     vTaskSuspendAll();
 834              		.loc 1 535 15 is_stmt 0 discriminator 2 view .LVU240
 835 001a 0600     		movs	r6, r0
 836 001c 0C36     		adds	r6, r6, #12
 837              	.LVL79:
 536:Middlewares/Third_Party/FreeRTOS/Source/event_groups.c ****     {
 838              		.loc 1 536 5 is_stmt 1 discriminator 2 view .LVU241
 839 001e FFF7FEFF 		bl	vTaskSuspendAll
 840              	.LVL80:
 538:Middlewares/Third_Party/FreeRTOS/Source/event_groups.c **** 
 841              		.loc 1 538 62 discriminator 2 view .LVU242
 540:Middlewares/Third_Party/FreeRTOS/Source/event_groups.c **** 
 842              		.loc 1 540 9 discriminator 2 view .LVU243
 540:Middlewares/Third_Party/FreeRTOS/Source/event_groups.c **** 
 843              		.loc 1 540 20 is_stmt 0 discriminator 2 view .LVU244
 844 0022 2069     		ldr	r0, [r4, #16]
 845              	.LVL81:
 543:Middlewares/Third_Party/FreeRTOS/Source/event_groups.c **** 
 846              		.loc 1 543 9 is_stmt 1 discriminator 2 view .LVU245
 543:Middlewares/Third_Party/FreeRTOS/Source/event_groups.c **** 
 847              		.loc 1 543 34 is_stmt 0 discriminator 2 view .LVU246
 848 0024 2368     		ldr	r3, [r4]
 849 0026 1D43     		orrs	r5, r3
 850              	.LVL82:
 543:Middlewares/Third_Party/FreeRTOS/Source/event_groups.c **** 
 851              		.loc 1 543 34 discriminator 2 view .LVU247
 852 0028 2560     		str	r5, [r4]
 546:Middlewares/Third_Party/FreeRTOS/Source/event_groups.c ****         {
 853              		.loc 1 546 9 is_stmt 1 discriminator 2 view .LVU248
 546:Middlewares/Third_Party/FreeRTOS/Source/event_groups.c ****         {
ARM GAS  C:\Users\main\AppData\Local\Temp\ccnKsYwO.s 			page 33


 854              		.loc 1 546 14 is_stmt 0 discriminator 2 view .LVU249
 855 002a 0BE0     		b	.L52
 856              	.LVL83:
 857              	.L53:
 568:Middlewares/Third_Party/FreeRTOS/Source/event_groups.c ****             {
 858              		.loc 1 568 18 is_stmt 1 view .LVU250
 568:Middlewares/Third_Party/FreeRTOS/Source/event_groups.c ****             {
 859              		.loc 1 568 40 is_stmt 0 view .LVU251
 860 002c 2168     		ldr	r1, [r4]
 861 002e 1940     		ands	r1, r3
 568:Middlewares/Third_Party/FreeRTOS/Source/event_groups.c ****             {
 862              		.loc 1 568 20 view .LVU252
 863 0030 9942     		cmp	r1, r3
 864 0032 06D1     		bne	.L55
 568:Middlewares/Third_Party/FreeRTOS/Source/event_groups.c ****             {
 865              		.loc 1 568 20 view .LVU253
 866 0034 11E0     		b	.L54
 867              	.LVL84:
 868              	.L56:
 587:Middlewares/Third_Party/FreeRTOS/Source/event_groups.c ****                 }
 869              		.loc 1 587 45 is_stmt 1 view .LVU254
 595:Middlewares/Third_Party/FreeRTOS/Source/event_groups.c ****             }
 870              		.loc 1 595 17 view .LVU255
 871 0036 8021     		movs	r1, #128
 872 0038 8904     		lsls	r1, r1, #18
 873 003a 2368     		ldr	r3, [r4]
 874              	.LVL85:
 595:Middlewares/Third_Party/FreeRTOS/Source/event_groups.c ****             }
 875              		.loc 1 595 17 is_stmt 0 view .LVU256
 876 003c 1943     		orrs	r1, r3
 877 003e FFF7FEFF 		bl	vTaskRemoveFromUnorderedEventList
 878              	.LVL86:
 879              	.L55:
 520:Middlewares/Third_Party/FreeRTOS/Source/event_groups.c ****     ListItem_t * pxListItem;
 880              		.loc 1 520 1 view .LVU257
 881 0042 2800     		movs	r0, r5
 882              	.LVL87:
 883              	.L52:
 546:Middlewares/Third_Party/FreeRTOS/Source/event_groups.c ****         {
 884              		.loc 1 546 14 is_stmt 1 view .LVU258
 885 0044 B042     		cmp	r0, r6
 886 0046 0CD0     		beq	.L59
 548:Middlewares/Third_Party/FreeRTOS/Source/event_groups.c ****             uxBitsWaitedFor = listGET_LIST_ITEM_VALUE( pxListItem );
 887              		.loc 1 548 13 view .LVU259
 548:Middlewares/Third_Party/FreeRTOS/Source/event_groups.c ****             uxBitsWaitedFor = listGET_LIST_ITEM_VALUE( pxListItem );
 888              		.loc 1 548 20 is_stmt 0 view .LVU260
 889 0048 4568     		ldr	r5, [r0, #4]
 890              	.LVL88:
 549:Middlewares/Third_Party/FreeRTOS/Source/event_groups.c ****             xMatchFound = pdFALSE;
 891              		.loc 1 549 13 is_stmt 1 view .LVU261
 549:Middlewares/Third_Party/FreeRTOS/Source/event_groups.c ****             xMatchFound = pdFALSE;
 892              		.loc 1 549 29 is_stmt 0 view .LVU262
 893 004a 0268     		ldr	r2, [r0]
 894              	.LVL89:
 550:Middlewares/Third_Party/FreeRTOS/Source/event_groups.c **** 
 895              		.loc 1 550 13 is_stmt 1 view .LVU263
 553:Middlewares/Third_Party/FreeRTOS/Source/event_groups.c ****             uxBitsWaitedFor &= ~eventEVENT_BITS_CONTROL_BYTES;
ARM GAS  C:\Users\main\AppData\Local\Temp\ccnKsYwO.s 			page 34


 896              		.loc 1 553 13 view .LVU264
 554:Middlewares/Third_Party/FreeRTOS/Source/event_groups.c **** 
 897              		.loc 1 554 13 view .LVU265
 554:Middlewares/Third_Party/FreeRTOS/Source/event_groups.c **** 
 898              		.loc 1 554 29 is_stmt 0 view .LVU266
 899 004c 1302     		lsls	r3, r2, #8
 900 004e 1B0A     		lsrs	r3, r3, #8
 901              	.LVL90:
 556:Middlewares/Third_Party/FreeRTOS/Source/event_groups.c ****             {
 902              		.loc 1 556 13 is_stmt 1 view .LVU267
 556:Middlewares/Third_Party/FreeRTOS/Source/event_groups.c ****             {
 903              		.loc 1 556 15 is_stmt 0 view .LVU268
 904 0050 5101     		lsls	r1, r2, #5
 905 0052 EBD4     		bmi	.L53
 559:Middlewares/Third_Party/FreeRTOS/Source/event_groups.c ****                 {
 906              		.loc 1 559 17 is_stmt 1 view .LVU269
 559:Middlewares/Third_Party/FreeRTOS/Source/event_groups.c ****                 {
 907              		.loc 1 559 19 is_stmt 0 view .LVU270
 908 0054 2168     		ldr	r1, [r4]
 909 0056 0B42     		tst	r3, r1
 910 0058 F3D0     		beq	.L55
 911              	.L54:
 912              	.LVL91:
 581:Middlewares/Third_Party/FreeRTOS/Source/event_groups.c ****                 {
 913              		.loc 1 581 17 is_stmt 1 view .LVU271
 581:Middlewares/Third_Party/FreeRTOS/Source/event_groups.c ****                 {
 914              		.loc 1 581 19 is_stmt 0 view .LVU272
 915 005a D201     		lsls	r2, r2, #7
 916 005c EBD5     		bpl	.L56
 917              	.LVL92:
 583:Middlewares/Third_Party/FreeRTOS/Source/event_groups.c ****                 }
 918              		.loc 1 583 21 is_stmt 1 view .LVU273
 583:Middlewares/Third_Party/FreeRTOS/Source/event_groups.c ****                 }
 919              		.loc 1 583 35 is_stmt 0 view .LVU274
 920 005e 1F43     		orrs	r7, r3
 921              	.LVL93:
 583:Middlewares/Third_Party/FreeRTOS/Source/event_groups.c ****                 }
 922              		.loc 1 583 35 view .LVU275
 923 0060 E9E7     		b	.L56
 924              	.LVL94:
 925              	.L59:
 606:Middlewares/Third_Party/FreeRTOS/Source/event_groups.c ****     }
 926              		.loc 1 606 9 is_stmt 1 view .LVU276
 606:Middlewares/Third_Party/FreeRTOS/Source/event_groups.c ****     }
 927              		.loc 1 606 34 is_stmt 0 view .LVU277
 928 0062 2368     		ldr	r3, [r4]
 929 0064 BB43     		bics	r3, r7
 930 0066 2360     		str	r3, [r4]
 608:Middlewares/Third_Party/FreeRTOS/Source/event_groups.c **** 
 931              		.loc 1 608 5 is_stmt 1 view .LVU278
 608:Middlewares/Third_Party/FreeRTOS/Source/event_groups.c **** 
 932              		.loc 1 608 14 is_stmt 0 view .LVU279
 933 0068 FFF7FEFF 		bl	xTaskResumeAll
 934              	.LVL95:
 610:Middlewares/Third_Party/FreeRTOS/Source/event_groups.c **** }
 935              		.loc 1 610 5 is_stmt 1 view .LVU280
 610:Middlewares/Third_Party/FreeRTOS/Source/event_groups.c **** }
ARM GAS  C:\Users\main\AppData\Local\Temp\ccnKsYwO.s 			page 35


 936              		.loc 1 610 23 is_stmt 0 view .LVU281
 937 006c 2068     		ldr	r0, [r4]
 611:Middlewares/Third_Party/FreeRTOS/Source/event_groups.c **** /*-----------------------------------------------------------*/
 938              		.loc 1 611 1 view .LVU282
 939              		@ sp needed
 940              	.LVL96:
 941              	.LVL97:
 942              	.LVL98:
 611:Middlewares/Third_Party/FreeRTOS/Source/event_groups.c **** /*-----------------------------------------------------------*/
 943              		.loc 1 611 1 view .LVU283
 944 006e F8BD     		pop	{r3, r4, r5, r6, r7, pc}
 945              		.cfi_endproc
 946              	.LFE8:
 948              		.section	.text.xEventGroupSync,"ax",%progbits
 949              		.align	1
 950              		.global	xEventGroupSync
 951              		.syntax unified
 952              		.code	16
 953              		.thumb_func
 955              	xEventGroupSync:
 956              	.LVL99:
 957              	.LFB3:
 183:Middlewares/Third_Party/FreeRTOS/Source/event_groups.c ****     EventBits_t uxOriginalBitValue, uxReturn;
 958              		.loc 1 183 1 is_stmt 1 view -0
 959              		.cfi_startproc
 960              		@ args = 0, pretend = 0, frame = 8
 961              		@ frame_needed = 0, uses_anonymous_args = 0
 183:Middlewares/Third_Party/FreeRTOS/Source/event_groups.c ****     EventBits_t uxOriginalBitValue, uxReturn;
 962              		.loc 1 183 1 is_stmt 0 view .LVU285
 963 0000 F0B5     		push	{r4, r5, r6, r7, lr}
 964              	.LCFI11:
 965              		.cfi_def_cfa_offset 20
 966              		.cfi_offset 4, -20
 967              		.cfi_offset 5, -16
 968              		.cfi_offset 6, -12
 969              		.cfi_offset 7, -8
 970              		.cfi_offset 14, -4
 971 0002 C646     		mov	lr, r8
 972 0004 00B5     		push	{lr}
 973              	.LCFI12:
 974              		.cfi_def_cfa_offset 24
 975              		.cfi_offset 8, -24
 976 0006 82B0     		sub	sp, sp, #8
 977              	.LCFI13:
 978              		.cfi_def_cfa_offset 32
 979 0008 0700     		movs	r7, r0
 980 000a 0D00     		movs	r5, r1
 981 000c 1400     		movs	r4, r2
 982 000e 0193     		str	r3, [sp, #4]
 184:Middlewares/Third_Party/FreeRTOS/Source/event_groups.c ****     EventGroup_t * pxEventBits = xEventGroup;
 983              		.loc 1 184 5 is_stmt 1 view .LVU286
 185:Middlewares/Third_Party/FreeRTOS/Source/event_groups.c ****     BaseType_t xAlreadyYielded;
 984              		.loc 1 185 5 view .LVU287
 985              	.LVL100:
 186:Middlewares/Third_Party/FreeRTOS/Source/event_groups.c ****     BaseType_t xTimeoutOccurred = pdFALSE;
 986              		.loc 1 186 5 view .LVU288
 187:Middlewares/Third_Party/FreeRTOS/Source/event_groups.c **** 
ARM GAS  C:\Users\main\AppData\Local\Temp\ccnKsYwO.s 			page 36


 987              		.loc 1 187 5 view .LVU289
 189:Middlewares/Third_Party/FreeRTOS/Source/event_groups.c ****     configASSERT( uxBitsToWaitFor != 0 );
 988              		.loc 1 189 5 view .LVU290
 989 0010 120E     		lsrs	r2, r2, #24
 990              	.LVL101:
 189:Middlewares/Third_Party/FreeRTOS/Source/event_groups.c ****     configASSERT( uxBitsToWaitFor != 0 );
 991              		.loc 1 189 5 is_stmt 0 view .LVU291
 992 0012 1606     		lsls	r6, r2, #24
 993 0014 002A     		cmp	r2, #0
 994 0016 01D0     		beq	.L61
 189:Middlewares/Third_Party/FreeRTOS/Source/event_groups.c ****     configASSERT( uxBitsToWaitFor != 0 );
 995              		.loc 1 189 5 is_stmt 1 discriminator 1 view .LVU292
 996              		.syntax divided
 997              	@ 189 "Middlewares/Third_Party/FreeRTOS/Source/event_groups.c" 1
 998 0018 72B6     		 cpsid i 
 999              	@ 0 "" 2
 1000              		.thumb
 1001              		.syntax unified
 1002              	.L62:
 189:Middlewares/Third_Party/FreeRTOS/Source/event_groups.c ****     configASSERT( uxBitsToWaitFor != 0 );
 1003              		.loc 1 189 5 discriminator 1 view .LVU293
 189:Middlewares/Third_Party/FreeRTOS/Source/event_groups.c ****     configASSERT( uxBitsToWaitFor != 0 );
 1004              		.loc 1 189 5 discriminator 1 view .LVU294
 189:Middlewares/Third_Party/FreeRTOS/Source/event_groups.c ****     configASSERT( uxBitsToWaitFor != 0 );
 1005              		.loc 1 189 5 discriminator 1 view .LVU295
 1006 001a FEE7     		b	.L62
 1007              	.L61:
 189:Middlewares/Third_Party/FreeRTOS/Source/event_groups.c ****     configASSERT( uxBitsToWaitFor != 0 );
 1008              		.loc 1 189 77 discriminator 2 view .LVU296
 190:Middlewares/Third_Party/FreeRTOS/Source/event_groups.c ****     #if ( ( INCLUDE_xTaskGetSchedulerState == 1 ) || ( configUSE_TIMERS == 1 ) )
 1009              		.loc 1 190 5 discriminator 2 view .LVU297
 1010 001c 002C     		cmp	r4, #0
 1011 001e 01D1     		bne	.L63
 190:Middlewares/Third_Party/FreeRTOS/Source/event_groups.c ****     #if ( ( INCLUDE_xTaskGetSchedulerState == 1 ) || ( configUSE_TIMERS == 1 ) )
 1012              		.loc 1 190 5 discriminator 1 view .LVU298
 1013              		.syntax divided
 1014              	@ 190 "Middlewares/Third_Party/FreeRTOS/Source/event_groups.c" 1
 1015 0020 72B6     		 cpsid i 
 1016              	@ 0 "" 2
 1017              		.thumb
 1018              		.syntax unified
 1019              	.L64:
 190:Middlewares/Third_Party/FreeRTOS/Source/event_groups.c ****     #if ( ( INCLUDE_xTaskGetSchedulerState == 1 ) || ( configUSE_TIMERS == 1 ) )
 1020              		.loc 1 190 5 discriminator 2 view .LVU299
 190:Middlewares/Third_Party/FreeRTOS/Source/event_groups.c ****     #if ( ( INCLUDE_xTaskGetSchedulerState == 1 ) || ( configUSE_TIMERS == 1 ) )
 1021              		.loc 1 190 5 discriminator 2 view .LVU300
 190:Middlewares/Third_Party/FreeRTOS/Source/event_groups.c ****     #if ( ( INCLUDE_xTaskGetSchedulerState == 1 ) || ( configUSE_TIMERS == 1 ) )
 1022              		.loc 1 190 5 discriminator 2 view .LVU301
 1023 0022 FEE7     		b	.L64
 1024              	.L63:
 190:Middlewares/Third_Party/FreeRTOS/Source/event_groups.c ****     #if ( ( INCLUDE_xTaskGetSchedulerState == 1 ) || ( configUSE_TIMERS == 1 ) )
 1025              		.loc 1 190 41 discriminator 2 view .LVU302
 193:Middlewares/Third_Party/FreeRTOS/Source/event_groups.c ****     }
 1026              		.loc 1 193 9 discriminator 2 view .LVU303
 1027 0024 FFF7FEFF 		bl	xTaskGetSchedulerState
 1028              	.LVL102:
 193:Middlewares/Third_Party/FreeRTOS/Source/event_groups.c ****     }
ARM GAS  C:\Users\main\AppData\Local\Temp\ccnKsYwO.s 			page 37


 1029              		.loc 1 193 9 is_stmt 0 discriminator 2 view .LVU304
 1030 0028 0028     		cmp	r0, #0
 1031 002a 04D1     		bne	.L65
 1032 002c 019B     		ldr	r3, [sp, #4]
 1033 002e 002B     		cmp	r3, #0
 1034 0030 01D0     		beq	.L65
 193:Middlewares/Third_Party/FreeRTOS/Source/event_groups.c ****     }
 1035              		.loc 1 193 9 is_stmt 1 view .LVU305
 1036              		.syntax divided
 1037              	@ 193 "Middlewares/Third_Party/FreeRTOS/Source/event_groups.c" 1
 1038 0032 72B6     		 cpsid i 
 1039              	@ 0 "" 2
 1040              		.thumb
 1041              		.syntax unified
 1042              	.L66:
 193:Middlewares/Third_Party/FreeRTOS/Source/event_groups.c ****     }
 1043              		.loc 1 193 9 discriminator 3 view .LVU306
 193:Middlewares/Third_Party/FreeRTOS/Source/event_groups.c ****     }
 1044              		.loc 1 193 9 discriminator 3 view .LVU307
 193:Middlewares/Third_Party/FreeRTOS/Source/event_groups.c ****     }
 1045              		.loc 1 193 9 discriminator 3 view .LVU308
 1046 0034 FEE7     		b	.L66
 1047              	.L65:
 193:Middlewares/Third_Party/FreeRTOS/Source/event_groups.c ****     }
 1048              		.loc 1 193 110 discriminator 8 view .LVU309
 197:Middlewares/Third_Party/FreeRTOS/Source/event_groups.c ****     {
 1049              		.loc 1 197 5 discriminator 8 view .LVU310
 1050 0036 FFF7FEFF 		bl	vTaskSuspendAll
 1051              	.LVL103:
 199:Middlewares/Third_Party/FreeRTOS/Source/event_groups.c **** 
 1052              		.loc 1 199 9 discriminator 8 view .LVU311
 199:Middlewares/Third_Party/FreeRTOS/Source/event_groups.c **** 
 1053              		.loc 1 199 28 is_stmt 0 discriminator 8 view .LVU312
 1054 003a 3B68     		ldr	r3, [r7]
 1055 003c 9846     		mov	r8, r3
 1056              	.LVL104:
 201:Middlewares/Third_Party/FreeRTOS/Source/event_groups.c **** 
 1057              		.loc 1 201 9 is_stmt 1 discriminator 8 view .LVU313
 201:Middlewares/Third_Party/FreeRTOS/Source/event_groups.c **** 
 1058              		.loc 1 201 18 is_stmt 0 discriminator 8 view .LVU314
 1059 003e 2900     		movs	r1, r5
 1060 0040 3800     		movs	r0, r7
 1061 0042 FFF7FEFF 		bl	xEventGroupSetBits
 1062              	.LVL105:
 203:Middlewares/Third_Party/FreeRTOS/Source/event_groups.c ****         {
 1063              		.loc 1 203 9 is_stmt 1 discriminator 8 view .LVU315
 203:Middlewares/Third_Party/FreeRTOS/Source/event_groups.c ****         {
 1064              		.loc 1 203 36 is_stmt 0 discriminator 8 view .LVU316
 1065 0046 4346     		mov	r3, r8
 1066 0048 1D43     		orrs	r5, r3
 1067              	.LVL106:
 203:Middlewares/Third_Party/FreeRTOS/Source/event_groups.c ****         {
 1068              		.loc 1 203 52 discriminator 8 view .LVU317
 1069 004a 2300     		movs	r3, r4
 1070 004c 2B40     		ands	r3, r5
 203:Middlewares/Third_Party/FreeRTOS/Source/event_groups.c ****         {
 1071              		.loc 1 203 11 discriminator 8 view .LVU318
ARM GAS  C:\Users\main\AppData\Local\Temp\ccnKsYwO.s 			page 38


 1072 004e A342     		cmp	r3, r4
 1073 0050 16D0     		beq	.L74
 216:Middlewares/Third_Party/FreeRTOS/Source/event_groups.c ****             {
 1074              		.loc 1 216 13 is_stmt 1 view .LVU319
 216:Middlewares/Third_Party/FreeRTOS/Source/event_groups.c ****             {
 1075              		.loc 1 216 15 is_stmt 0 view .LVU320
 1076 0052 019B     		ldr	r3, [sp, #4]
 1077 0054 002B     		cmp	r3, #0
 1078 0056 18D1     		bne	.L75
 235:Middlewares/Third_Party/FreeRTOS/Source/event_groups.c ****                 xTimeoutOccurred = pdTRUE;
 1079              		.loc 1 235 17 is_stmt 1 view .LVU321
 235:Middlewares/Third_Party/FreeRTOS/Source/event_groups.c ****                 xTimeoutOccurred = pdTRUE;
 1080              		.loc 1 235 26 is_stmt 0 view .LVU322
 1081 0058 3D68     		ldr	r5, [r7]
 1082              	.LVL107:
 236:Middlewares/Third_Party/FreeRTOS/Source/event_groups.c ****             }
 1083              		.loc 1 236 17 is_stmt 1 view .LVU323
 1084              	.L68:
 240:Middlewares/Third_Party/FreeRTOS/Source/event_groups.c **** 
 1085              		.loc 1 240 5 view .LVU324
 240:Middlewares/Third_Party/FreeRTOS/Source/event_groups.c **** 
 1086              		.loc 1 240 23 is_stmt 0 view .LVU325
 1087 005a FFF7FEFF 		bl	xTaskResumeAll
 1088              	.LVL108:
 242:Middlewares/Third_Party/FreeRTOS/Source/event_groups.c ****     {
 1089              		.loc 1 242 5 is_stmt 1 view .LVU326
 242:Middlewares/Third_Party/FreeRTOS/Source/event_groups.c ****     {
 1090              		.loc 1 242 7 is_stmt 0 view .LVU327
 1091 005e 019B     		ldr	r3, [sp, #4]
 1092 0060 002B     		cmp	r3, #0
 1093 0062 08D0     		beq	.L60
 244:Middlewares/Third_Party/FreeRTOS/Source/event_groups.c ****         {
 1094              		.loc 1 244 9 is_stmt 1 view .LVU328
 244:Middlewares/Third_Party/FreeRTOS/Source/event_groups.c ****         {
 1095              		.loc 1 244 11 is_stmt 0 view .LVU329
 1096 0064 0028     		cmp	r0, #0
 1097 0066 19D0     		beq	.L76
 1098              	.LVL109:
 1099              	.L71:
 250:Middlewares/Third_Party/FreeRTOS/Source/event_groups.c ****         }
 1100              		.loc 1 250 37 is_stmt 1 view .LVU330
 257:Middlewares/Third_Party/FreeRTOS/Source/event_groups.c **** 
 1101              		.loc 1 257 9 view .LVU331
 257:Middlewares/Third_Party/FreeRTOS/Source/event_groups.c **** 
 1102              		.loc 1 257 20 is_stmt 0 view .LVU332
 1103 0068 FFF7FEFF 		bl	uxTaskResetEventItemValue
 1104              	.LVL110:
 1105 006c 0500     		movs	r5, r0
 1106              	.LVL111:
 259:Middlewares/Third_Party/FreeRTOS/Source/event_groups.c ****         {
 1107              		.loc 1 259 9 is_stmt 1 view .LVU333
 259:Middlewares/Third_Party/FreeRTOS/Source/event_groups.c ****         {
 1108              		.loc 1 259 11 is_stmt 0 view .LVU334
 1109 006e 8301     		lsls	r3, r0, #6
 1110 0070 17D5     		bpl	.L77
 1111              	.LVL112:
 1112              	.L72:
ARM GAS  C:\Users\main\AppData\Local\Temp\ccnKsYwO.s 			page 39


 286:Middlewares/Third_Party/FreeRTOS/Source/event_groups.c **** 
 1113              		.loc 1 286 9 is_stmt 1 view .LVU335
 290:Middlewares/Third_Party/FreeRTOS/Source/event_groups.c ****     }
 1114              		.loc 1 290 9 view .LVU336
 290:Middlewares/Third_Party/FreeRTOS/Source/event_groups.c ****     }
 1115              		.loc 1 290 18 is_stmt 0 view .LVU337
 1116 0072 2D02     		lsls	r5, r5, #8
 1117              	.LVL113:
 290:Middlewares/Third_Party/FreeRTOS/Source/event_groups.c ****     }
 1118              		.loc 1 290 18 view .LVU338
 1119 0074 2D0A     		lsrs	r5, r5, #8
 1120              	.LVL114:
 293:Middlewares/Third_Party/FreeRTOS/Source/event_groups.c **** 
 1121              		.loc 1 293 5 is_stmt 1 view .LVU339
 296:Middlewares/Third_Party/FreeRTOS/Source/event_groups.c **** 
 1122              		.loc 1 296 5 view .LVU340
 298:Middlewares/Third_Party/FreeRTOS/Source/event_groups.c **** }
 1123              		.loc 1 298 5 view .LVU341
 1124              	.L60:
 299:Middlewares/Third_Party/FreeRTOS/Source/event_groups.c **** /*-----------------------------------------------------------*/
 1125              		.loc 1 299 1 is_stmt 0 view .LVU342
 1126 0076 2800     		movs	r0, r5
 1127 0078 02B0     		add	sp, sp, #8
 1128              		@ sp needed
 1129              	.LVL115:
 1130              	.LVL116:
 1131              	.LVL117:
 1132              	.LVL118:
 299:Middlewares/Third_Party/FreeRTOS/Source/event_groups.c **** /*-----------------------------------------------------------*/
 1133              		.loc 1 299 1 view .LVU343
 1134 007a 80BC     		pop	{r7}
 1135 007c B846     		mov	r8, r7
 1136 007e F0BD     		pop	{r4, r5, r6, r7, pc}
 1137              	.LVL119:
 1138              	.L74:
 206:Middlewares/Third_Party/FreeRTOS/Source/event_groups.c **** 
 1139              		.loc 1 206 13 is_stmt 1 view .LVU344
 210:Middlewares/Third_Party/FreeRTOS/Source/event_groups.c **** 
 1140              		.loc 1 210 13 view .LVU345
 210:Middlewares/Third_Party/FreeRTOS/Source/event_groups.c **** 
 1141              		.loc 1 210 38 is_stmt 0 view .LVU346
 1142 0080 3B68     		ldr	r3, [r7]
 1143 0082 A343     		bics	r3, r4
 1144 0084 3B60     		str	r3, [r7]
 212:Middlewares/Third_Party/FreeRTOS/Source/event_groups.c ****         }
 1145              		.loc 1 212 13 is_stmt 1 view .LVU347
 1146              	.LVL120:
 212:Middlewares/Third_Party/FreeRTOS/Source/event_groups.c ****         }
 1147              		.loc 1 212 26 is_stmt 0 view .LVU348
 1148 0086 0196     		str	r6, [sp, #4]
 1149 0088 E7E7     		b	.L68
 1150              	.LVL121:
 1151              	.L75:
 218:Middlewares/Third_Party/FreeRTOS/Source/event_groups.c **** 
 1152              		.loc 1 218 89 is_stmt 1 view .LVU349
 223:Middlewares/Third_Party/FreeRTOS/Source/event_groups.c **** 
 1153              		.loc 1 223 17 view .LVU350
ARM GAS  C:\Users\main\AppData\Local\Temp\ccnKsYwO.s 			page 40


 1154 008a A021     		movs	r1, #160
 1155 008c C904     		lsls	r1, r1, #19
 1156 008e 2143     		orrs	r1, r4
 1157 0090 381D     		adds	r0, r7, #4
 1158 0092 1A00     		movs	r2, r3
 1159 0094 FFF7FEFF 		bl	vTaskPlaceOnUnorderedEventList
 1160              	.LVL122:
 229:Middlewares/Third_Party/FreeRTOS/Source/event_groups.c ****             }
 1161              		.loc 1 229 17 view .LVU351
 229:Middlewares/Third_Party/FreeRTOS/Source/event_groups.c ****             }
 1162              		.loc 1 229 26 is_stmt 0 view .LVU352
 1163 0098 3500     		movs	r5, r6
 1164 009a DEE7     		b	.L68
 1165              	.LVL123:
 1166              	.L76:
 246:Middlewares/Third_Party/FreeRTOS/Source/event_groups.c ****         }
 1167              		.loc 1 246 13 is_stmt 1 view .LVU353
 1168 009c FFF7FEFF 		bl	vPortYield
 1169              	.LVL124:
 246:Middlewares/Third_Party/FreeRTOS/Source/event_groups.c ****         }
 1170              		.loc 1 246 13 is_stmt 0 view .LVU354
 1171 00a0 E2E7     		b	.L71
 1172              	.LVL125:
 1173              	.L77:
 262:Middlewares/Third_Party/FreeRTOS/Source/event_groups.c ****             {
 1174              		.loc 1 262 13 is_stmt 1 view .LVU355
 1175 00a2 FFF7FEFF 		bl	vPortEnterCritical
 1176              	.LVL126:
 264:Middlewares/Third_Party/FreeRTOS/Source/event_groups.c **** 
 1177              		.loc 1 264 17 view .LVU356
 264:Middlewares/Third_Party/FreeRTOS/Source/event_groups.c **** 
 1178              		.loc 1 264 26 is_stmt 0 view .LVU357
 1179 00a6 3D68     		ldr	r5, [r7]
 1180              	.LVL127:
 270:Middlewares/Third_Party/FreeRTOS/Source/event_groups.c ****                 {
 1181              		.loc 1 270 17 is_stmt 1 view .LVU358
 270:Middlewares/Third_Party/FreeRTOS/Source/event_groups.c ****                 {
 1182              		.loc 1 270 32 is_stmt 0 view .LVU359
 1183 00a8 2B00     		movs	r3, r5
 1184 00aa 2340     		ands	r3, r4
 270:Middlewares/Third_Party/FreeRTOS/Source/event_groups.c ****                 {
 1185              		.loc 1 270 19 view .LVU360
 1186 00ac A342     		cmp	r3, r4
 1187 00ae 02D0     		beq	.L78
 1188              	.L73:
 276:Middlewares/Third_Party/FreeRTOS/Source/event_groups.c ****                 }
 1189              		.loc 1 276 45 is_stmt 1 view .LVU361
 279:Middlewares/Third_Party/FreeRTOS/Source/event_groups.c **** 
 1190              		.loc 1 279 13 view .LVU362
 1191 00b0 FFF7FEFF 		bl	vPortExitCritical
 1192              	.LVL128:
 281:Middlewares/Third_Party/FreeRTOS/Source/event_groups.c ****         }
 1193              		.loc 1 281 13 view .LVU363
 281:Middlewares/Third_Party/FreeRTOS/Source/event_groups.c ****         }
 1194              		.loc 1 281 13 is_stmt 0 view .LVU364
 1195 00b4 DDE7     		b	.L72
 1196              	.LVL129:
ARM GAS  C:\Users\main\AppData\Local\Temp\ccnKsYwO.s 			page 41


 1197              	.L78:
 272:Middlewares/Third_Party/FreeRTOS/Source/event_groups.c ****                 }
 1198              		.loc 1 272 21 is_stmt 1 view .LVU365
 272:Middlewares/Third_Party/FreeRTOS/Source/event_groups.c ****                 }
 1199              		.loc 1 272 46 is_stmt 0 view .LVU366
 1200 00b6 2B00     		movs	r3, r5
 1201 00b8 A343     		bics	r3, r4
 1202 00ba 3B60     		str	r3, [r7]
 1203 00bc F8E7     		b	.L73
 1204              		.cfi_endproc
 1205              	.LFE3:
 1207              		.section	.text.vEventGroupSetBitsCallback,"ax",%progbits
 1208              		.align	1
 1209              		.global	vEventGroupSetBitsCallback
 1210              		.syntax unified
 1211              		.code	16
 1212              		.thumb_func
 1214              	vEventGroupSetBitsCallback:
 1215              	.LVL130:
 1216              	.LFB11:
 700:Middlewares/Third_Party/FreeRTOS/Source/event_groups.c ****     ( void ) xEventGroupSetBits( pvEventGroup, ( EventBits_t ) ulBitsToSet ); /*lint !e9079 Can't a
 1217              		.loc 1 700 1 is_stmt 1 view -0
 1218              		.cfi_startproc
 1219              		@ args = 0, pretend = 0, frame = 0
 1220              		@ frame_needed = 0, uses_anonymous_args = 0
 700:Middlewares/Third_Party/FreeRTOS/Source/event_groups.c ****     ( void ) xEventGroupSetBits( pvEventGroup, ( EventBits_t ) ulBitsToSet ); /*lint !e9079 Can't a
 1221              		.loc 1 700 1 is_stmt 0 view .LVU368
 1222 0000 10B5     		push	{r4, lr}
 1223              	.LCFI14:
 1224              		.cfi_def_cfa_offset 8
 1225              		.cfi_offset 4, -8
 1226              		.cfi_offset 14, -4
 701:Middlewares/Third_Party/FreeRTOS/Source/event_groups.c **** }
 1227              		.loc 1 701 5 is_stmt 1 view .LVU369
 701:Middlewares/Third_Party/FreeRTOS/Source/event_groups.c **** }
 1228              		.loc 1 701 14 is_stmt 0 view .LVU370
 1229 0002 FFF7FEFF 		bl	xEventGroupSetBits
 1230              	.LVL131:
 702:Middlewares/Third_Party/FreeRTOS/Source/event_groups.c **** /*-----------------------------------------------------------*/
 1231              		.loc 1 702 1 view .LVU371
 1232              		@ sp needed
 1233 0006 10BD     		pop	{r4, pc}
 1234              		.cfi_endproc
 1235              	.LFE11:
 1237              		.section	.text.vEventGroupDelete,"ax",%progbits
 1238              		.align	1
 1239              		.global	vEventGroupDelete
 1240              		.syntax unified
 1241              		.code	16
 1242              		.thumb_func
 1244              	vEventGroupDelete:
 1245              	.LVL132:
 1246              	.LFB9:
 615:Middlewares/Third_Party/FreeRTOS/Source/event_groups.c ****     EventGroup_t * pxEventBits = xEventGroup;
 1247              		.loc 1 615 1 is_stmt 1 view -0
 1248              		.cfi_startproc
 1249              		@ args = 0, pretend = 0, frame = 0
ARM GAS  C:\Users\main\AppData\Local\Temp\ccnKsYwO.s 			page 42


 1250              		@ frame_needed = 0, uses_anonymous_args = 0
 615:Middlewares/Third_Party/FreeRTOS/Source/event_groups.c ****     EventGroup_t * pxEventBits = xEventGroup;
 1251              		.loc 1 615 1 is_stmt 0 view .LVU373
 1252 0000 10B5     		push	{r4, lr}
 1253              	.LCFI15:
 1254              		.cfi_def_cfa_offset 8
 1255              		.cfi_offset 4, -8
 1256              		.cfi_offset 14, -4
 1257 0002 041E     		subs	r4, r0, #0
 616:Middlewares/Third_Party/FreeRTOS/Source/event_groups.c ****     const List_t * pxTasksWaitingForBits;
 1258              		.loc 1 616 5 is_stmt 1 view .LVU374
 1259              	.LVL133:
 617:Middlewares/Third_Party/FreeRTOS/Source/event_groups.c **** 
 1260              		.loc 1 617 5 view .LVU375
 619:Middlewares/Third_Party/FreeRTOS/Source/event_groups.c **** 
 1261              		.loc 1 619 5 view .LVU376
 1262 0004 0ED0     		beq	.L88
 619:Middlewares/Third_Party/FreeRTOS/Source/event_groups.c **** 
 1263              		.loc 1 619 32 discriminator 2 view .LVU377
 621:Middlewares/Third_Party/FreeRTOS/Source/event_groups.c **** 
 1264              		.loc 1 621 5 discriminator 2 view .LVU378
 1265              	.LVL134:
 623:Middlewares/Third_Party/FreeRTOS/Source/event_groups.c ****     {
 1266              		.loc 1 623 5 discriminator 2 view .LVU379
 1267 0006 FFF7FEFF 		bl	vTaskSuspendAll
 1268              	.LVL135:
 625:Middlewares/Third_Party/FreeRTOS/Source/event_groups.c **** 
 1269              		.loc 1 625 47 discriminator 2 view .LVU380
 627:Middlewares/Third_Party/FreeRTOS/Source/event_groups.c ****         {
 1270              		.loc 1 627 9 discriminator 2 view .LVU381
 1271              	.L83:
 627:Middlewares/Third_Party/FreeRTOS/Source/event_groups.c ****         {
 1272              		.loc 1 627 14 view .LVU382
 627:Middlewares/Third_Party/FreeRTOS/Source/event_groups.c ****         {
 1273              		.loc 1 627 16 is_stmt 0 view .LVU383
 1274 000a 6368     		ldr	r3, [r4, #4]
 627:Middlewares/Third_Party/FreeRTOS/Source/event_groups.c ****         {
 1275              		.loc 1 627 14 view .LVU384
 1276 000c 002B     		cmp	r3, #0
 1277 000e 0DD0     		beq	.L89
 631:Middlewares/Third_Party/FreeRTOS/Source/event_groups.c ****             vTaskRemoveFromUnorderedEventList( pxTasksWaitingForBits->xListEnd.pxNext, eventUNBLOCK
 1278              		.loc 1 631 13 is_stmt 1 view .LVU385
 1279 0010 2069     		ldr	r0, [r4, #16]
 1280 0012 2300     		movs	r3, r4
 1281 0014 0C33     		adds	r3, r3, #12
 1282 0016 9842     		cmp	r0, r3
 1283 0018 06D0     		beq	.L90
 631:Middlewares/Third_Party/FreeRTOS/Source/event_groups.c ****             vTaskRemoveFromUnorderedEventList( pxTasksWaitingForBits->xListEnd.pxNext, eventUNBLOCK
 1284              		.loc 1 631 130 discriminator 2 view .LVU386
 632:Middlewares/Third_Party/FreeRTOS/Source/event_groups.c ****         }
 1285              		.loc 1 632 13 discriminator 2 view .LVU387
 1286 001a 8021     		movs	r1, #128
 1287 001c 8904     		lsls	r1, r1, #18
 1288 001e FFF7FEFF 		bl	vTaskRemoveFromUnorderedEventList
 1289              	.LVL136:
 1290 0022 F2E7     		b	.L83
 1291              	.LVL137:
ARM GAS  C:\Users\main\AppData\Local\Temp\ccnKsYwO.s 			page 43


 1292              	.L88:
 619:Middlewares/Third_Party/FreeRTOS/Source/event_groups.c **** 
 1293              		.loc 1 619 5 discriminator 1 view .LVU388
 1294              		.syntax divided
 1295              	@ 619 "Middlewares/Third_Party/FreeRTOS/Source/event_groups.c" 1
 1296 0024 72B6     		 cpsid i 
 1297              	@ 0 "" 2
 1298              		.thumb
 1299              		.syntax unified
 1300              	.L82:
 619:Middlewares/Third_Party/FreeRTOS/Source/event_groups.c **** 
 1301              		.loc 1 619 5 discriminator 1 view .LVU389
 619:Middlewares/Third_Party/FreeRTOS/Source/event_groups.c **** 
 1302              		.loc 1 619 5 discriminator 1 view .LVU390
 619:Middlewares/Third_Party/FreeRTOS/Source/event_groups.c **** 
 1303              		.loc 1 619 5 discriminator 1 view .LVU391
 1304 0026 FEE7     		b	.L82
 1305              	.LVL138:
 1306              	.L90:
 631:Middlewares/Third_Party/FreeRTOS/Source/event_groups.c ****             vTaskRemoveFromUnorderedEventList( pxTasksWaitingForBits->xListEnd.pxNext, eventUNBLOCK
 1307              		.loc 1 631 13 discriminator 1 view .LVU392
 1308              		.syntax divided
 1309              	@ 631 "Middlewares/Third_Party/FreeRTOS/Source/event_groups.c" 1
 1310 0028 72B6     		 cpsid i 
 1311              	@ 0 "" 2
 1312              		.thumb
 1313              		.syntax unified
 1314              	.L85:
 631:Middlewares/Third_Party/FreeRTOS/Source/event_groups.c ****             vTaskRemoveFromUnorderedEventList( pxTasksWaitingForBits->xListEnd.pxNext, eventUNBLOCK
 1315              		.loc 1 631 13 discriminator 2 view .LVU393
 631:Middlewares/Third_Party/FreeRTOS/Source/event_groups.c ****             vTaskRemoveFromUnorderedEventList( pxTasksWaitingForBits->xListEnd.pxNext, eventUNBLOCK
 1316              		.loc 1 631 13 discriminator 2 view .LVU394
 631:Middlewares/Third_Party/FreeRTOS/Source/event_groups.c ****             vTaskRemoveFromUnorderedEventList( pxTasksWaitingForBits->xListEnd.pxNext, eventUNBLOCK
 1317              		.loc 1 631 13 discriminator 2 view .LVU395
 1318 002a FEE7     		b	.L85
 1319              	.L89:
 635:Middlewares/Third_Party/FreeRTOS/Source/event_groups.c **** 
 1320              		.loc 1 635 5 view .LVU396
 635:Middlewares/Third_Party/FreeRTOS/Source/event_groups.c **** 
 1321              		.loc 1 635 14 is_stmt 0 view .LVU397
 1322 002c FFF7FEFF 		bl	xTaskResumeAll
 1323              	.LVL139:
 647:Middlewares/Third_Party/FreeRTOS/Source/event_groups.c ****         {
 1324              		.loc 1 647 9 is_stmt 1 view .LVU398
 647:Middlewares/Third_Party/FreeRTOS/Source/event_groups.c ****         {
 1325              		.loc 1 647 24 is_stmt 0 view .LVU399
 1326 0030 237F     		ldrb	r3, [r4, #28]
 647:Middlewares/Third_Party/FreeRTOS/Source/event_groups.c ****         {
 1327              		.loc 1 647 11 view .LVU400
 1328 0032 002B     		cmp	r3, #0
 1329 0034 00D0     		beq	.L91
 1330              	.L80:
 657:Middlewares/Third_Party/FreeRTOS/Source/event_groups.c **** /*-----------------------------------------------------------*/
 1331              		.loc 1 657 1 view .LVU401
 1332              		@ sp needed
 1333              	.LVL140:
 657:Middlewares/Third_Party/FreeRTOS/Source/event_groups.c **** /*-----------------------------------------------------------*/
ARM GAS  C:\Users\main\AppData\Local\Temp\ccnKsYwO.s 			page 44


 1334              		.loc 1 657 1 view .LVU402
 1335 0036 10BD     		pop	{r4, pc}
 1336              	.LVL141:
 1337              	.L91:
 649:Middlewares/Third_Party/FreeRTOS/Source/event_groups.c ****         }
 1338              		.loc 1 649 13 is_stmt 1 view .LVU403
 1339 0038 2000     		movs	r0, r4
 1340 003a FFF7FEFF 		bl	vPortFree
 1341              	.LVL142:
 653:Middlewares/Third_Party/FreeRTOS/Source/event_groups.c ****         }
 1342              		.loc 1 653 37 view .LVU404
 657:Middlewares/Third_Party/FreeRTOS/Source/event_groups.c **** /*-----------------------------------------------------------*/
 1343              		.loc 1 657 1 is_stmt 0 view .LVU405
 1344 003e FAE7     		b	.L80
 1345              		.cfi_endproc
 1346              	.LFE9:
 1348              		.section	.text.xEventGroupGetStaticBuffer,"ax",%progbits
 1349              		.align	1
 1350              		.global	xEventGroupGetStaticBuffer
 1351              		.syntax unified
 1352              		.code	16
 1353              		.thumb_func
 1355              	xEventGroupGetStaticBuffer:
 1356              	.LVL143:
 1357              	.LFB10:
 663:Middlewares/Third_Party/FreeRTOS/Source/event_groups.c ****         BaseType_t xReturn;
 1358              		.loc 1 663 5 is_stmt 1 view -0
 1359              		.cfi_startproc
 1360              		@ args = 0, pretend = 0, frame = 0
 1361              		@ frame_needed = 0, uses_anonymous_args = 0
 1362              		@ link register save eliminated.
 664:Middlewares/Third_Party/FreeRTOS/Source/event_groups.c ****         EventGroup_t * pxEventBits = xEventGroup;
 1363              		.loc 1 664 9 view .LVU407
 665:Middlewares/Third_Party/FreeRTOS/Source/event_groups.c **** 
 1364              		.loc 1 665 9 view .LVU408
 667:Middlewares/Third_Party/FreeRTOS/Source/event_groups.c ****         configASSERT( ppxEventGroupBuffer );
 1365              		.loc 1 667 9 view .LVU409
 1366 0000 0028     		cmp	r0, #0
 1367 0002 06D0     		beq	.L99
 667:Middlewares/Third_Party/FreeRTOS/Source/event_groups.c ****         configASSERT( ppxEventGroupBuffer );
 1368              		.loc 1 667 36 discriminator 2 view .LVU410
 668:Middlewares/Third_Party/FreeRTOS/Source/event_groups.c **** 
 1369              		.loc 1 668 9 discriminator 2 view .LVU411
 1370 0004 0029     		cmp	r1, #0
 1371 0006 06D0     		beq	.L100
 668:Middlewares/Third_Party/FreeRTOS/Source/event_groups.c **** 
 1372              		.loc 1 668 44 discriminator 2 view .LVU412
 673:Middlewares/Third_Party/FreeRTOS/Source/event_groups.c ****             {
 1373              		.loc 1 673 13 discriminator 2 view .LVU413
 673:Middlewares/Third_Party/FreeRTOS/Source/event_groups.c ****             {
 1374              		.loc 1 673 28 is_stmt 0 discriminator 2 view .LVU414
 1375 0008 037F     		ldrb	r3, [r0, #28]
 673:Middlewares/Third_Party/FreeRTOS/Source/event_groups.c ****             {
 1376              		.loc 1 673 15 discriminator 2 view .LVU415
 1377 000a 012B     		cmp	r3, #1
 1378 000c 05D0     		beq	.L101
 680:Middlewares/Third_Party/FreeRTOS/Source/event_groups.c ****             }
ARM GAS  C:\Users\main\AppData\Local\Temp\ccnKsYwO.s 			page 45


 1379              		.loc 1 680 25 view .LVU416
 1380 000e 0020     		movs	r0, #0
 1381              	.LVL144:
 691:Middlewares/Third_Party/FreeRTOS/Source/event_groups.c ****     }
 1382              		.loc 1 691 9 is_stmt 1 view .LVU417
 1383              	.L92:
 692:Middlewares/Third_Party/FreeRTOS/Source/event_groups.c **** #endif /* configSUPPORT_STATIC_ALLOCATION */
 1384              		.loc 1 692 5 is_stmt 0 view .LVU418
 1385              		@ sp needed
 1386 0010 7047     		bx	lr
 1387              	.LVL145:
 1388              	.L99:
 667:Middlewares/Third_Party/FreeRTOS/Source/event_groups.c ****         configASSERT( ppxEventGroupBuffer );
 1389              		.loc 1 667 9 is_stmt 1 discriminator 1 view .LVU419
 1390              		.syntax divided
 1391              	@ 667 "Middlewares/Third_Party/FreeRTOS/Source/event_groups.c" 1
 1392 0012 72B6     		 cpsid i 
 1393              	@ 0 "" 2
 1394              		.thumb
 1395              		.syntax unified
 1396              	.L94:
 667:Middlewares/Third_Party/FreeRTOS/Source/event_groups.c ****         configASSERT( ppxEventGroupBuffer );
 1397              		.loc 1 667 9 discriminator 1 view .LVU420
 667:Middlewares/Third_Party/FreeRTOS/Source/event_groups.c ****         configASSERT( ppxEventGroupBuffer );
 1398              		.loc 1 667 9 discriminator 1 view .LVU421
 667:Middlewares/Third_Party/FreeRTOS/Source/event_groups.c ****         configASSERT( ppxEventGroupBuffer );
 1399              		.loc 1 667 9 discriminator 1 view .LVU422
 1400 0014 FEE7     		b	.L94
 1401              	.L100:
 668:Middlewares/Third_Party/FreeRTOS/Source/event_groups.c **** 
 1402              		.loc 1 668 9 discriminator 1 view .LVU423
 1403              		.syntax divided
 1404              	@ 668 "Middlewares/Third_Party/FreeRTOS/Source/event_groups.c" 1
 1405 0016 72B6     		 cpsid i 
 1406              	@ 0 "" 2
 1407              		.thumb
 1408              		.syntax unified
 1409              	.L96:
 668:Middlewares/Third_Party/FreeRTOS/Source/event_groups.c **** 
 1410              		.loc 1 668 9 discriminator 2 view .LVU424
 668:Middlewares/Third_Party/FreeRTOS/Source/event_groups.c **** 
 1411              		.loc 1 668 9 discriminator 2 view .LVU425
 668:Middlewares/Third_Party/FreeRTOS/Source/event_groups.c **** 
 1412              		.loc 1 668 9 discriminator 2 view .LVU426
 1413 0018 FEE7     		b	.L96
 1414              	.L101:
 675:Middlewares/Third_Party/FreeRTOS/Source/event_groups.c ****                 xReturn = pdTRUE;
 1415              		.loc 1 675 17 view .LVU427
 675:Middlewares/Third_Party/FreeRTOS/Source/event_groups.c ****                 xReturn = pdTRUE;
 1416              		.loc 1 675 38 is_stmt 0 view .LVU428
 1417 001a 0860     		str	r0, [r1]
 676:Middlewares/Third_Party/FreeRTOS/Source/event_groups.c ****             }
 1418              		.loc 1 676 17 is_stmt 1 view .LVU429
 1419              	.LVL146:
 676:Middlewares/Third_Party/FreeRTOS/Source/event_groups.c ****             }
 1420              		.loc 1 676 25 is_stmt 0 view .LVU430
 1421 001c 0120     		movs	r0, #1
ARM GAS  C:\Users\main\AppData\Local\Temp\ccnKsYwO.s 			page 46


 1422              	.LVL147:
 676:Middlewares/Third_Party/FreeRTOS/Source/event_groups.c ****             }
 1423              		.loc 1 676 25 view .LVU431
 1424 001e F7E7     		b	.L92
 1425              		.cfi_endproc
 1426              	.LFE10:
 1428              		.section	.text.xEventGroupSetBitsFromISR,"ax",%progbits
 1429              		.align	1
 1430              		.global	xEventGroupSetBitsFromISR
 1431              		.syntax unified
 1432              		.code	16
 1433              		.thumb_func
 1435              	xEventGroupSetBitsFromISR:
 1436              	.LVL148:
 1437              	.LFB14:
 749:Middlewares/Third_Party/FreeRTOS/Source/event_groups.c **** /*-----------------------------------------------------------*/
 750:Middlewares/Third_Party/FreeRTOS/Source/event_groups.c **** 
 751:Middlewares/Third_Party/FreeRTOS/Source/event_groups.c **** #if ( ( configUSE_TRACE_FACILITY == 1 ) && ( INCLUDE_xTimerPendFunctionCall == 1 ) && ( configUSE_T
 752:Middlewares/Third_Party/FreeRTOS/Source/event_groups.c **** 
 753:Middlewares/Third_Party/FreeRTOS/Source/event_groups.c ****     BaseType_t xEventGroupSetBitsFromISR( EventGroupHandle_t xEventGroup,
 754:Middlewares/Third_Party/FreeRTOS/Source/event_groups.c ****                                           const EventBits_t uxBitsToSet,
 755:Middlewares/Third_Party/FreeRTOS/Source/event_groups.c ****                                           BaseType_t * pxHigherPriorityTaskWoken )
 756:Middlewares/Third_Party/FreeRTOS/Source/event_groups.c ****     {
 1438              		.loc 1 756 5 is_stmt 1 view -0
 1439              		.cfi_startproc
 1440              		@ args = 0, pretend = 0, frame = 0
 1441              		@ frame_needed = 0, uses_anonymous_args = 0
 1442              		.loc 1 756 5 is_stmt 0 view .LVU433
 1443 0000 10B5     		push	{r4, lr}
 1444              	.LCFI16:
 1445              		.cfi_def_cfa_offset 8
 1446              		.cfi_offset 4, -8
 1447              		.cfi_offset 14, -4
 1448 0002 1300     		movs	r3, r2
 757:Middlewares/Third_Party/FreeRTOS/Source/event_groups.c ****         BaseType_t xReturn;
 1449              		.loc 1 757 9 is_stmt 1 view .LVU434
 758:Middlewares/Third_Party/FreeRTOS/Source/event_groups.c **** 
 759:Middlewares/Third_Party/FreeRTOS/Source/event_groups.c ****         traceEVENT_GROUP_SET_BITS_FROM_ISR( xEventGroup, uxBitsToSet );
 1450              		.loc 1 759 71 view .LVU435
 760:Middlewares/Third_Party/FreeRTOS/Source/event_groups.c ****         xReturn = xTimerPendFunctionCallFromISR( vEventGroupSetBitsCallback, ( void * ) xEventGroup
 1451              		.loc 1 760 9 view .LVU436
 1452              		.loc 1 760 19 is_stmt 0 view .LVU437
 1453 0004 0A00     		movs	r2, r1
 1454              	.LVL149:
 1455              		.loc 1 760 19 view .LVU438
 1456 0006 0100     		movs	r1, r0
 1457              	.LVL150:
 1458              		.loc 1 760 19 view .LVU439
 1459 0008 0148     		ldr	r0, .L103
 1460              	.LVL151:
 1461              		.loc 1 760 19 view .LVU440
 1462 000a FFF7FEFF 		bl	xTimerPendFunctionCallFromISR
 1463              	.LVL152:
 761:Middlewares/Third_Party/FreeRTOS/Source/event_groups.c **** 
 762:Middlewares/Third_Party/FreeRTOS/Source/event_groups.c ****         return xReturn;
 1464              		.loc 1 762 9 is_stmt 1 view .LVU441
 763:Middlewares/Third_Party/FreeRTOS/Source/event_groups.c ****     }
ARM GAS  C:\Users\main\AppData\Local\Temp\ccnKsYwO.s 			page 47


 1465              		.loc 1 763 5 is_stmt 0 view .LVU442
 1466              		@ sp needed
 1467 000e 10BD     		pop	{r4, pc}
 1468              	.L104:
 1469              		.align	2
 1470              	.L103:
 1471 0010 00000000 		.word	vEventGroupSetBitsCallback
 1472              		.cfi_endproc
 1473              	.LFE14:
 1475              		.section	.text.uxEventGroupGetNumber,"ax",%progbits
 1476              		.align	1
 1477              		.global	uxEventGroupGetNumber
 1478              		.syntax unified
 1479              		.code	16
 1480              		.thumb_func
 1482              	uxEventGroupGetNumber:
 1483              	.LVL153:
 1484              	.LFB15:
 764:Middlewares/Third_Party/FreeRTOS/Source/event_groups.c **** 
 765:Middlewares/Third_Party/FreeRTOS/Source/event_groups.c **** #endif /* if ( ( configUSE_TRACE_FACILITY == 1 ) && ( INCLUDE_xTimerPendFunctionCall == 1 ) && ( co
 766:Middlewares/Third_Party/FreeRTOS/Source/event_groups.c **** /*-----------------------------------------------------------*/
 767:Middlewares/Third_Party/FreeRTOS/Source/event_groups.c **** 
 768:Middlewares/Third_Party/FreeRTOS/Source/event_groups.c **** #if ( configUSE_TRACE_FACILITY == 1 )
 769:Middlewares/Third_Party/FreeRTOS/Source/event_groups.c **** 
 770:Middlewares/Third_Party/FreeRTOS/Source/event_groups.c ****     UBaseType_t uxEventGroupGetNumber( void * xEventGroup )
 771:Middlewares/Third_Party/FreeRTOS/Source/event_groups.c ****     {
 1485              		.loc 1 771 5 is_stmt 1 view -0
 1486              		.cfi_startproc
 1487              		@ args = 0, pretend = 0, frame = 0
 1488              		@ frame_needed = 0, uses_anonymous_args = 0
 1489              		@ link register save eliminated.
 772:Middlewares/Third_Party/FreeRTOS/Source/event_groups.c ****         UBaseType_t xReturn;
 1490              		.loc 1 772 9 view .LVU444
 773:Middlewares/Third_Party/FreeRTOS/Source/event_groups.c ****         EventGroup_t const * pxEventBits = ( EventGroup_t * ) xEventGroup; /*lint !e9087 !e9079 Eve
 1491              		.loc 1 773 9 view .LVU445
 774:Middlewares/Third_Party/FreeRTOS/Source/event_groups.c **** 
 775:Middlewares/Third_Party/FreeRTOS/Source/event_groups.c ****         if( xEventGroup == NULL )
 1492              		.loc 1 775 9 view .LVU446
 1493              		.loc 1 775 11 is_stmt 0 view .LVU447
 1494 0000 0028     		cmp	r0, #0
 1495 0002 01D0     		beq	.L107
 776:Middlewares/Third_Party/FreeRTOS/Source/event_groups.c ****         {
 777:Middlewares/Third_Party/FreeRTOS/Source/event_groups.c ****             xReturn = 0;
 778:Middlewares/Third_Party/FreeRTOS/Source/event_groups.c ****         }
 779:Middlewares/Third_Party/FreeRTOS/Source/event_groups.c ****         else
 780:Middlewares/Third_Party/FreeRTOS/Source/event_groups.c ****         {
 781:Middlewares/Third_Party/FreeRTOS/Source/event_groups.c ****             xReturn = pxEventBits->uxEventGroupNumber;
 1496              		.loc 1 781 13 is_stmt 1 view .LVU448
 1497              		.loc 1 781 21 is_stmt 0 view .LVU449
 1498 0004 8069     		ldr	r0, [r0, #24]
 1499              	.LVL154:
 1500              	.L105:
 782:Middlewares/Third_Party/FreeRTOS/Source/event_groups.c ****         }
 783:Middlewares/Third_Party/FreeRTOS/Source/event_groups.c **** 
 784:Middlewares/Third_Party/FreeRTOS/Source/event_groups.c ****         return xReturn;
 785:Middlewares/Third_Party/FreeRTOS/Source/event_groups.c ****     }
 1501              		.loc 1 785 5 view .LVU450
ARM GAS  C:\Users\main\AppData\Local\Temp\ccnKsYwO.s 			page 48


 1502              		@ sp needed
 1503 0006 7047     		bx	lr
 1504              	.LVL155:
 1505              	.L107:
 777:Middlewares/Third_Party/FreeRTOS/Source/event_groups.c ****         }
 1506              		.loc 1 777 21 view .LVU451
 1507 0008 0020     		movs	r0, #0
 1508              	.LVL156:
 784:Middlewares/Third_Party/FreeRTOS/Source/event_groups.c ****     }
 1509              		.loc 1 784 9 is_stmt 1 view .LVU452
 784:Middlewares/Third_Party/FreeRTOS/Source/event_groups.c ****     }
 1510              		.loc 1 784 16 is_stmt 0 view .LVU453
 1511 000a FCE7     		b	.L105
 1512              		.cfi_endproc
 1513              	.LFE15:
 1515              		.section	.text.vEventGroupSetNumber,"ax",%progbits
 1516              		.align	1
 1517              		.global	vEventGroupSetNumber
 1518              		.syntax unified
 1519              		.code	16
 1520              		.thumb_func
 1522              	vEventGroupSetNumber:
 1523              	.LVL157:
 1524              	.LFB16:
 786:Middlewares/Third_Party/FreeRTOS/Source/event_groups.c **** 
 787:Middlewares/Third_Party/FreeRTOS/Source/event_groups.c **** #endif /* configUSE_TRACE_FACILITY */
 788:Middlewares/Third_Party/FreeRTOS/Source/event_groups.c **** /*-----------------------------------------------------------*/
 789:Middlewares/Third_Party/FreeRTOS/Source/event_groups.c **** 
 790:Middlewares/Third_Party/FreeRTOS/Source/event_groups.c **** #if ( configUSE_TRACE_FACILITY == 1 )
 791:Middlewares/Third_Party/FreeRTOS/Source/event_groups.c **** 
 792:Middlewares/Third_Party/FreeRTOS/Source/event_groups.c ****     void vEventGroupSetNumber( void * xEventGroup,
 793:Middlewares/Third_Party/FreeRTOS/Source/event_groups.c ****                                UBaseType_t uxEventGroupNumber )
 794:Middlewares/Third_Party/FreeRTOS/Source/event_groups.c ****     {
 1525              		.loc 1 794 5 is_stmt 1 view -0
 1526              		.cfi_startproc
 1527              		@ args = 0, pretend = 0, frame = 0
 1528              		@ frame_needed = 0, uses_anonymous_args = 0
 1529              		@ link register save eliminated.
 795:Middlewares/Third_Party/FreeRTOS/Source/event_groups.c ****         ( ( EventGroup_t * ) xEventGroup )->uxEventGroupNumber = uxEventGroupNumber; /*lint !e9087 
 1530              		.loc 1 795 9 view .LVU455
 1531              		.loc 1 795 64 is_stmt 0 view .LVU456
 1532 0000 8161     		str	r1, [r0, #24]
 796:Middlewares/Third_Party/FreeRTOS/Source/event_groups.c ****     }
 1533              		.loc 1 796 5 view .LVU457
 1534              		@ sp needed
 1535 0002 7047     		bx	lr
 1536              		.cfi_endproc
 1537              	.LFE16:
 1539              		.text
 1540              	.Letext0:
 1541              		.file 2 "c:\\program files (x86)\\gnu arm embedded toolchain\\10 2021.10\\lib\\gcc\\arm-none-eabi\
 1542              		.file 3 "c:\\program files (x86)\\gnu arm embedded toolchain\\10 2021.10\\arm-none-eabi\\include\\
 1543              		.file 4 "c:\\program files (x86)\\gnu arm embedded toolchain\\10 2021.10\\arm-none-eabi\\include\\
 1544              		.file 5 "Middlewares/Third_Party/FreeRTOS/Source/portable/GCC/ARM_CM0/portmacro.h"
 1545              		.file 6 "Middlewares/Third_Party/FreeRTOS/Source/include/FreeRTOS.h"
 1546              		.file 7 "Middlewares/Third_Party/FreeRTOS/Source/include/list.h"
 1547              		.file 8 "Middlewares/Third_Party/FreeRTOS/Source/include/event_groups.h"
ARM GAS  C:\Users\main\AppData\Local\Temp\ccnKsYwO.s 			page 49


 1548              		.file 9 "Middlewares/Third_Party/FreeRTOS/Source/include/timers.h"
 1549              		.file 10 "Middlewares/Third_Party/FreeRTOS/Source/include/task.h"
 1550              		.file 11 "Middlewares/Third_Party/FreeRTOS/Source/include/portable.h"
ARM GAS  C:\Users\main\AppData\Local\Temp\ccnKsYwO.s 			page 50

