ARM GAS  C:\Users\main\AppData\Local\Temp\ccl99xqh.s 			page 1


   1              		.cpu cortex-m0plus
   2              		.arch armv6s-m
   3              		.fpu softvfp
   4              		.eabi_attribute 20, 1
   5              		.eabi_attribute 21, 1
   6              		.eabi_attribute 23, 3
   7              		.eabi_attribute 24, 1
   8              		.eabi_attribute 25, 1
   9              		.eabi_attribute 26, 1
  10              		.eabi_attribute 30, 1
  11              		.eabi_attribute 34, 0
  12              		.eabi_attribute 18, 4
  13              		.file	"qf_act.c"
  14              		.text
  15              	.Ltext0:
  16              		.cfi_sections	.debug_frame
  17              		.section	.text.QF_bzero_,"ax",%progbits
  18              		.align	1
  19              		.global	QF_bzero_
  20              		.syntax unified
  21              		.code	16
  22              		.thumb_func
  24              	QF_bzero_:
  25              	.LVL0:
  26              	.LFB18:
  27              		.file 1 "Middlewares/Third_Party/QuantumLeaps_RTEF_qpc/src/qf/qf_act.c"
   1:Middlewares/Third_Party/QuantumLeaps_RTEF_qpc/src/qf/qf_act.c **** //============================================================================
   2:Middlewares/Third_Party/QuantumLeaps_RTEF_qpc/src/qf/qf_act.c **** // QP/C Real-Time Embedded Framework (RTEF)
   3:Middlewares/Third_Party/QuantumLeaps_RTEF_qpc/src/qf/qf_act.c **** // Version 8.0.2
   4:Middlewares/Third_Party/QuantumLeaps_RTEF_qpc/src/qf/qf_act.c **** //
   5:Middlewares/Third_Party/QuantumLeaps_RTEF_qpc/src/qf/qf_act.c **** // Copyright (C) 2005 Quantum Leaps, LLC. All rights reserved.
   6:Middlewares/Third_Party/QuantumLeaps_RTEF_qpc/src/qf/qf_act.c **** //
   7:Middlewares/Third_Party/QuantumLeaps_RTEF_qpc/src/qf/qf_act.c **** //                    Q u a n t u m  L e a P s
   8:Middlewares/Third_Party/QuantumLeaps_RTEF_qpc/src/qf/qf_act.c **** //                    ------------------------
   9:Middlewares/Third_Party/QuantumLeaps_RTEF_qpc/src/qf/qf_act.c **** //                    Modern Embedded Software
  10:Middlewares/Third_Party/QuantumLeaps_RTEF_qpc/src/qf/qf_act.c **** //
  11:Middlewares/Third_Party/QuantumLeaps_RTEF_qpc/src/qf/qf_act.c **** // SPDX-License-Identifier: GPL-3.0-or-later OR LicenseRef-QL-commercial
  12:Middlewares/Third_Party/QuantumLeaps_RTEF_qpc/src/qf/qf_act.c **** //
  13:Middlewares/Third_Party/QuantumLeaps_RTEF_qpc/src/qf/qf_act.c **** // This software is dual-licensed under the terms of the open-source GNU
  14:Middlewares/Third_Party/QuantumLeaps_RTEF_qpc/src/qf/qf_act.c **** // General Public License (GPL) or under the terms of one of the closed-
  15:Middlewares/Third_Party/QuantumLeaps_RTEF_qpc/src/qf/qf_act.c **** // source Quantum Leaps commercial licenses.
  16:Middlewares/Third_Party/QuantumLeaps_RTEF_qpc/src/qf/qf_act.c **** //
  17:Middlewares/Third_Party/QuantumLeaps_RTEF_qpc/src/qf/qf_act.c **** // Redistributions in source code must retain this top-level comment block.
  18:Middlewares/Third_Party/QuantumLeaps_RTEF_qpc/src/qf/qf_act.c **** // Plagiarizing this software to sidestep the license obligations is illegal.
  19:Middlewares/Third_Party/QuantumLeaps_RTEF_qpc/src/qf/qf_act.c **** //
  20:Middlewares/Third_Party/QuantumLeaps_RTEF_qpc/src/qf/qf_act.c **** // NOTE:
  21:Middlewares/Third_Party/QuantumLeaps_RTEF_qpc/src/qf/qf_act.c **** // The GPL does NOT permit the incorporation of this code into proprietary
  22:Middlewares/Third_Party/QuantumLeaps_RTEF_qpc/src/qf/qf_act.c **** // programs. Please contact Quantum Leaps for commercial licensing options,
  23:Middlewares/Third_Party/QuantumLeaps_RTEF_qpc/src/qf/qf_act.c **** // which expressly supersede the GPL and are designed explicitly for
  24:Middlewares/Third_Party/QuantumLeaps_RTEF_qpc/src/qf/qf_act.c **** // closed-source distribution.
  25:Middlewares/Third_Party/QuantumLeaps_RTEF_qpc/src/qf/qf_act.c **** //
  26:Middlewares/Third_Party/QuantumLeaps_RTEF_qpc/src/qf/qf_act.c **** // Quantum Leaps contact information:
  27:Middlewares/Third_Party/QuantumLeaps_RTEF_qpc/src/qf/qf_act.c **** // <www.state-machine.com/licensing>
  28:Middlewares/Third_Party/QuantumLeaps_RTEF_qpc/src/qf/qf_act.c **** // <info@state-machine.com>
  29:Middlewares/Third_Party/QuantumLeaps_RTEF_qpc/src/qf/qf_act.c **** //============================================================================
  30:Middlewares/Third_Party/QuantumLeaps_RTEF_qpc/src/qf/qf_act.c **** #define QP_IMPL           // this is QP implementation
  31:Middlewares/Third_Party/QuantumLeaps_RTEF_qpc/src/qf/qf_act.c **** #include "qp_port.h"      // QP port
ARM GAS  C:\Users\main\AppData\Local\Temp\ccl99xqh.s 			page 2


  32:Middlewares/Third_Party/QuantumLeaps_RTEF_qpc/src/qf/qf_act.c **** #include "qp_pkg.h"       // QP package-scope interface
  33:Middlewares/Third_Party/QuantumLeaps_RTEF_qpc/src/qf/qf_act.c **** #include "qsafe.h"        // QP Functional Safety (FuSa) Subsystem
  34:Middlewares/Third_Party/QuantumLeaps_RTEF_qpc/src/qf/qf_act.c **** #ifdef Q_SPY              // QS software tracing enabled?
  35:Middlewares/Third_Party/QuantumLeaps_RTEF_qpc/src/qf/qf_act.c ****     #include "qs_port.h"  // QS port
  36:Middlewares/Third_Party/QuantumLeaps_RTEF_qpc/src/qf/qf_act.c ****     #include "qs_pkg.h"   // QS facilities for pre-defined trace records
  37:Middlewares/Third_Party/QuantumLeaps_RTEF_qpc/src/qf/qf_act.c **** #else
  38:Middlewares/Third_Party/QuantumLeaps_RTEF_qpc/src/qf/qf_act.c ****     #include "qs_dummy.h" // disable the QS software tracing
  39:Middlewares/Third_Party/QuantumLeaps_RTEF_qpc/src/qf/qf_act.c **** #endif // Q_SPY
  40:Middlewares/Third_Party/QuantumLeaps_RTEF_qpc/src/qf/qf_act.c **** 
  41:Middlewares/Third_Party/QuantumLeaps_RTEF_qpc/src/qf/qf_act.c **** //Q_DEFINE_THIS_MODULE("qf_act")
  42:Middlewares/Third_Party/QuantumLeaps_RTEF_qpc/src/qf/qf_act.c **** 
  43:Middlewares/Third_Party/QuantumLeaps_RTEF_qpc/src/qf/qf_act.c **** // QP version string embedded in the binary image
  44:Middlewares/Third_Party/QuantumLeaps_RTEF_qpc/src/qf/qf_act.c **** char const QP_versionStr[24] = "QP/C " QP_VERSION_STR;
  45:Middlewares/Third_Party/QuantumLeaps_RTEF_qpc/src/qf/qf_act.c **** 
  46:Middlewares/Third_Party/QuantumLeaps_RTEF_qpc/src/qf/qf_act.c **** QF_Attr QF_priv_;
  47:Middlewares/Third_Party/QuantumLeaps_RTEF_qpc/src/qf/qf_act.c **** 
  48:Middlewares/Third_Party/QuantumLeaps_RTEF_qpc/src/qf/qf_act.c **** //! @static @private @memberof QActive
  49:Middlewares/Third_Party/QuantumLeaps_RTEF_qpc/src/qf/qf_act.c **** QActive * QActive_registry_[QF_MAX_ACTIVE + 1U];
  50:Middlewares/Third_Party/QuantumLeaps_RTEF_qpc/src/qf/qf_act.c **** 
  51:Middlewares/Third_Party/QuantumLeaps_RTEF_qpc/src/qf/qf_act.c **** //............................................................................
  52:Middlewares/Third_Party/QuantumLeaps_RTEF_qpc/src/qf/qf_act.c **** //! @static @private @memberof QF
  53:Middlewares/Third_Party/QuantumLeaps_RTEF_qpc/src/qf/qf_act.c **** void QF_bzero_(
  54:Middlewares/Third_Party/QuantumLeaps_RTEF_qpc/src/qf/qf_act.c ****     void * const start,
  55:Middlewares/Third_Party/QuantumLeaps_RTEF_qpc/src/qf/qf_act.c ****     uint_fast16_t const len)
  56:Middlewares/Third_Party/QuantumLeaps_RTEF_qpc/src/qf/qf_act.c **** {
  28              		.loc 1 56 1 view -0
  29              		.cfi_startproc
  30              		@ args = 0, pretend = 0, frame = 0
  31              		@ frame_needed = 0, uses_anonymous_args = 0
  32              		@ link register save eliminated.
  57:Middlewares/Third_Party/QuantumLeaps_RTEF_qpc/src/qf/qf_act.c ****     uint8_t *ptr = (uint8_t *)start;
  33              		.loc 1 57 5 view .LVU1
  58:Middlewares/Third_Party/QuantumLeaps_RTEF_qpc/src/qf/qf_act.c ****     for (uint_fast16_t n = len; n > 0U; --n) {
  34              		.loc 1 58 5 view .LVU2
  35              	.LBB2:
  36              		.loc 1 58 10 view .LVU3
  37              		.loc 1 58 5 is_stmt 0 view .LVU4
  38 0000 03E0     		b	.L2
  39              	.LVL1:
  40              	.L3:
  59:Middlewares/Third_Party/QuantumLeaps_RTEF_qpc/src/qf/qf_act.c ****         *ptr = 0U;
  41              		.loc 1 59 9 is_stmt 1 discriminator 3 view .LVU5
  42              		.loc 1 59 14 is_stmt 0 discriminator 3 view .LVU6
  43 0002 0023     		movs	r3, #0
  44 0004 0370     		strb	r3, [r0]
  60:Middlewares/Third_Party/QuantumLeaps_RTEF_qpc/src/qf/qf_act.c ****         ++ptr;
  45              		.loc 1 60 9 is_stmt 1 discriminator 3 view .LVU7
  46 0006 0130     		adds	r0, r0, #1
  47              	.LVL2:
  58:Middlewares/Third_Party/QuantumLeaps_RTEF_qpc/src/qf/qf_act.c ****     for (uint_fast16_t n = len; n > 0U; --n) {
  48              		.loc 1 58 41 discriminator 3 view .LVU8
  49 0008 0139     		subs	r1, r1, #1
  50              	.LVL3:
  51              	.L2:
  58:Middlewares/Third_Party/QuantumLeaps_RTEF_qpc/src/qf/qf_act.c ****     for (uint_fast16_t n = len; n > 0U; --n) {
  52              		.loc 1 58 33 discriminator 1 view .LVU9
  58:Middlewares/Third_Party/QuantumLeaps_RTEF_qpc/src/qf/qf_act.c ****     for (uint_fast16_t n = len; n > 0U; --n) {
ARM GAS  C:\Users\main\AppData\Local\Temp\ccl99xqh.s 			page 3


  53              		.loc 1 58 5 is_stmt 0 discriminator 1 view .LVU10
  54 000a 0029     		cmp	r1, #0
  55 000c F9D1     		bne	.L3
  58:Middlewares/Third_Party/QuantumLeaps_RTEF_qpc/src/qf/qf_act.c ****     for (uint_fast16_t n = len; n > 0U; --n) {
  56              		.loc 1 58 5 discriminator 1 view .LVU11
  57              	.LBE2:
  61:Middlewares/Third_Party/QuantumLeaps_RTEF_qpc/src/qf/qf_act.c ****     }
  62:Middlewares/Third_Party/QuantumLeaps_RTEF_qpc/src/qf/qf_act.c **** }
  58              		.loc 1 62 1 view .LVU12
  59              		@ sp needed
  60 000e 7047     		bx	lr
  61              		.cfi_endproc
  62              	.LFE18:
  64              		.section	.text.QF_LOG2,"ax",%progbits
  65              		.align	1
  66              		.global	QF_LOG2
  67              		.syntax unified
  68              		.code	16
  69              		.thumb_func
  71              	QF_LOG2:
  72              	.LVL4:
  73              	.LFB19:
  63:Middlewares/Third_Party/QuantumLeaps_RTEF_qpc/src/qf/qf_act.c **** 
  64:Middlewares/Third_Party/QuantumLeaps_RTEF_qpc/src/qf/qf_act.c **** //............................................................................
  65:Middlewares/Third_Party/QuantumLeaps_RTEF_qpc/src/qf/qf_act.c **** #ifndef QF_LOG2
  66:Middlewares/Third_Party/QuantumLeaps_RTEF_qpc/src/qf/qf_act.c **** uint_fast8_t QF_LOG2(QPSetBits const bitmask) {
  74              		.loc 1 66 47 is_stmt 1 view -0
  75              		.cfi_startproc
  76              		@ args = 0, pretend = 0, frame = 0
  77              		@ frame_needed = 0, uses_anonymous_args = 0
  78              		@ link register save eliminated.
  67:Middlewares/Third_Party/QuantumLeaps_RTEF_qpc/src/qf/qf_act.c ****     static uint8_t const log2LUT[16] = {
  79              		.loc 1 67 5 view .LVU14
  68:Middlewares/Third_Party/QuantumLeaps_RTEF_qpc/src/qf/qf_act.c ****         0U, 1U, 2U, 2U, 3U, 3U, 3U, 3U,
  69:Middlewares/Third_Party/QuantumLeaps_RTEF_qpc/src/qf/qf_act.c ****         4U, 4U, 4U, 4U, 4U, 4U, 4U, 4U
  70:Middlewares/Third_Party/QuantumLeaps_RTEF_qpc/src/qf/qf_act.c ****     };
  71:Middlewares/Third_Party/QuantumLeaps_RTEF_qpc/src/qf/qf_act.c ****     uint_fast8_t n = 0U;
  80              		.loc 1 71 5 view .LVU15
  72:Middlewares/Third_Party/QuantumLeaps_RTEF_qpc/src/qf/qf_act.c ****     QPSetBits x = bitmask;
  81              		.loc 1 72 5 view .LVU16
  73:Middlewares/Third_Party/QuantumLeaps_RTEF_qpc/src/qf/qf_act.c ****     QPSetBits tmp;
  82              		.loc 1 73 5 view .LVU17
  74:Middlewares/Third_Party/QuantumLeaps_RTEF_qpc/src/qf/qf_act.c **** 
  75:Middlewares/Third_Party/QuantumLeaps_RTEF_qpc/src/qf/qf_act.c **** #if (QF_MAX_ACTIVE > 16U)
  76:Middlewares/Third_Party/QuantumLeaps_RTEF_qpc/src/qf/qf_act.c ****     tmp = (x >> 16U);
  83              		.loc 1 76 5 view .LVU18
  84              		.loc 1 76 9 is_stmt 0 view .LVU19
  85 0000 030C     		lsrs	r3, r0, #16
  86              	.LVL5:
  77:Middlewares/Third_Party/QuantumLeaps_RTEF_qpc/src/qf/qf_act.c ****     if (tmp != 0U) {
  87              		.loc 1 77 5 is_stmt 1 view .LVU20
  88              		.loc 1 77 8 is_stmt 0 view .LVU21
  89 0002 0DD1     		bne	.L8
  71:Middlewares/Third_Party/QuantumLeaps_RTEF_qpc/src/qf/qf_act.c ****     QPSetBits x = bitmask;
  90              		.loc 1 71 18 view .LVU22
  91 0004 1A00     		movs	r2, r3
  72:Middlewares/Third_Party/QuantumLeaps_RTEF_qpc/src/qf/qf_act.c ****     QPSetBits tmp;
ARM GAS  C:\Users\main\AppData\Local\Temp\ccl99xqh.s 			page 4


  92              		.loc 1 72 15 view .LVU23
  93 0006 0300     		movs	r3, r0
  94              	.LVL6:
  95              	.L5:
  78:Middlewares/Third_Party/QuantumLeaps_RTEF_qpc/src/qf/qf_act.c ****         n += 16U;
  79:Middlewares/Third_Party/QuantumLeaps_RTEF_qpc/src/qf/qf_act.c ****         x = tmp;
  80:Middlewares/Third_Party/QuantumLeaps_RTEF_qpc/src/qf/qf_act.c ****     }
  81:Middlewares/Third_Party/QuantumLeaps_RTEF_qpc/src/qf/qf_act.c **** #endif
  82:Middlewares/Third_Party/QuantumLeaps_RTEF_qpc/src/qf/qf_act.c **** #if (QF_MAX_ACTIVE > 8U)
  83:Middlewares/Third_Party/QuantumLeaps_RTEF_qpc/src/qf/qf_act.c ****     tmp = (x >> 8U);
  96              		.loc 1 83 5 is_stmt 1 view .LVU24
  97              		.loc 1 83 9 is_stmt 0 view .LVU25
  98 0008 190A     		lsrs	r1, r3, #8
  99              	.LVL7:
  84:Middlewares/Third_Party/QuantumLeaps_RTEF_qpc/src/qf/qf_act.c ****     if (tmp != 0U) {
 100              		.loc 1 84 5 is_stmt 1 view .LVU26
 101              		.loc 1 84 8 is_stmt 0 view .LVU27
 102 000a 01D0     		beq	.L6
  85:Middlewares/Third_Party/QuantumLeaps_RTEF_qpc/src/qf/qf_act.c ****         n += 8U;
 103              		.loc 1 85 9 is_stmt 1 view .LVU28
 104              		.loc 1 85 11 is_stmt 0 view .LVU29
 105 000c 0832     		adds	r2, r2, #8
 106              	.LVL8:
  86:Middlewares/Third_Party/QuantumLeaps_RTEF_qpc/src/qf/qf_act.c ****         x = tmp;
 107              		.loc 1 86 9 is_stmt 1 view .LVU30
 108              		.loc 1 86 11 is_stmt 0 view .LVU31
 109 000e 0B00     		movs	r3, r1
 110              	.LVL9:
 111              	.L6:
  87:Middlewares/Third_Party/QuantumLeaps_RTEF_qpc/src/qf/qf_act.c ****     }
  88:Middlewares/Third_Party/QuantumLeaps_RTEF_qpc/src/qf/qf_act.c **** #endif
  89:Middlewares/Third_Party/QuantumLeaps_RTEF_qpc/src/qf/qf_act.c ****     tmp = (x >> 4U);
 112              		.loc 1 89 5 is_stmt 1 view .LVU32
 113              		.loc 1 89 9 is_stmt 0 view .LVU33
 114 0010 1909     		lsrs	r1, r3, #4
 115              	.LVL10:
  90:Middlewares/Third_Party/QuantumLeaps_RTEF_qpc/src/qf/qf_act.c ****     if (tmp != 0U) {
 116              		.loc 1 90 5 is_stmt 1 view .LVU34
 117              		.loc 1 90 8 is_stmt 0 view .LVU35
 118 0012 01D0     		beq	.L7
  91:Middlewares/Third_Party/QuantumLeaps_RTEF_qpc/src/qf/qf_act.c ****         n += 4U;
 119              		.loc 1 91 9 is_stmt 1 view .LVU36
 120              		.loc 1 91 11 is_stmt 0 view .LVU37
 121 0014 0432     		adds	r2, r2, #4
 122              	.LVL11:
  92:Middlewares/Third_Party/QuantumLeaps_RTEF_qpc/src/qf/qf_act.c ****         x = tmp;
 123              		.loc 1 92 9 is_stmt 1 view .LVU38
 124              		.loc 1 92 11 is_stmt 0 view .LVU39
 125 0016 0B00     		movs	r3, r1
 126              	.LVL12:
 127              	.L7:
  93:Middlewares/Third_Party/QuantumLeaps_RTEF_qpc/src/qf/qf_act.c ****     }
  94:Middlewares/Third_Party/QuantumLeaps_RTEF_qpc/src/qf/qf_act.c ****     return n + log2LUT[x];
 128              		.loc 1 94 5 is_stmt 1 view .LVU40
 129              		.loc 1 94 23 is_stmt 0 view .LVU41
 130 0018 0249     		ldr	r1, .L9
 131              	.LVL13:
ARM GAS  C:\Users\main\AppData\Local\Temp\ccl99xqh.s 			page 5


 132              		.loc 1 94 23 view .LVU42
 133 001a C85C     		ldrb	r0, [r1, r3]
 134              	.LVL14:
 135              		.loc 1 94 14 view .LVU43
 136 001c 8018     		adds	r0, r0, r2
  95:Middlewares/Third_Party/QuantumLeaps_RTEF_qpc/src/qf/qf_act.c **** }
 137              		.loc 1 95 1 view .LVU44
 138              		@ sp needed
 139 001e 7047     		bx	lr
 140              	.LVL15:
 141              	.L8:
  78:Middlewares/Third_Party/QuantumLeaps_RTEF_qpc/src/qf/qf_act.c ****         x = tmp;
 142              		.loc 1 78 11 view .LVU45
 143 0020 1022     		movs	r2, #16
 144 0022 F1E7     		b	.L5
 145              	.L10:
 146              		.align	2
 147              	.L9:
 148 0024 00000000 		.word	.LANCHOR0
 149              		.cfi_endproc
 150              	.LFE19:
 152              		.global	QActive_registry_
 153              		.global	QF_priv_
 154              		.global	QP_versionStr
 155              		.section	.bss.QActive_registry_,"aw",%nobits
 156              		.align	2
 159              	QActive_registry_:
 160 0000 00000000 		.space	132
 160      00000000 
 160      00000000 
 160      00000000 
 160      00000000 
 161              		.section	.bss.QF_priv_,"aw",%nobits
 162              		.align	2
 165              	QF_priv_:
 166 0000 00000000 		.space	64
 166      00000000 
 166      00000000 
 166      00000000 
 166      00000000 
 167              		.section	.rodata.QP_versionStr,"a"
 168              		.align	2
 171              	QP_versionStr:
 172 0000 51502F43 		.ascii	"QP/C 8.0.2\000"
 172      20382E30 
 172      2E3200
 173 000b 00000000 		.space	13
 173      00000000 
 173      00000000 
 173      00
 174              		.section	.rodata.log2LUT.0,"a"
 175              		.align	2
 176              		.set	.LANCHOR0,. + 0
 179              	log2LUT.0:
 180 0000 00010202 		.ascii	"\000\001\002\002\003\003\003\003\004\004\004\004\004"
 180      03030303 
 180      04040404 
ARM GAS  C:\Users\main\AppData\Local\Temp\ccl99xqh.s 			page 6


 180      04
 181 000d 040404   		.ascii	"\004\004\004"
 182              		.text
 183              	.Letext0:
 184              		.file 2 "c:\\program files (x86)\\gnu arm embedded toolchain\\10 2021.10\\arm-none-eabi\\include\\
 185              		.file 3 "c:\\program files (x86)\\gnu arm embedded toolchain\\10 2021.10\\arm-none-eabi\\include\\
 186              		.file 4 "c:\\program files (x86)\\gnu arm embedded toolchain\\10 2021.10\\arm-none-eabi\\include\\
 187              		.file 5 "Middlewares/Third_Party/FreeRTOS/Source/portable/GCC/ARM_CM0/portmacro.h"
 188              		.file 6 "Middlewares/Third_Party/FreeRTOS/Source/include/FreeRTOS.h"
 189              		.file 7 "Middlewares/Third_Party/FreeRTOS/Source/include/queue.h"
 190              		.file 8 "Middlewares/Third_Party/QuantumLeaps_RTEF_qpc/include/qp.h"
 191              		.file 9 "Middlewares/Third_Party/QuantumLeaps_RTEF_qpc/include/qmpool.h"
 192              		.file 10 "Middlewares/Third_Party/QuantumLeaps_RTEF_qpc/include/qp_pkg.h"
ARM GAS  C:\Users\main\AppData\Local\Temp\ccl99xqh.s 			page 7


DEFINED SYMBOLS
                            *ABS*:00000000 qf_act.c
C:\Users\main\AppData\Local\Temp\ccl99xqh.s:18     .text.QF_bzero_:00000000 $t
C:\Users\main\AppData\Local\Temp\ccl99xqh.s:24     .text.QF_bzero_:00000000 QF_bzero_
C:\Users\main\AppData\Local\Temp\ccl99xqh.s:65     .text.QF_LOG2:00000000 $t
C:\Users\main\AppData\Local\Temp\ccl99xqh.s:71     .text.QF_LOG2:00000000 QF_LOG2
C:\Users\main\AppData\Local\Temp\ccl99xqh.s:148    .text.QF_LOG2:00000024 $d
C:\Users\main\AppData\Local\Temp\ccl99xqh.s:159    .bss.QActive_registry_:00000000 QActive_registry_
C:\Users\main\AppData\Local\Temp\ccl99xqh.s:165    .bss.QF_priv_:00000000 QF_priv_
C:\Users\main\AppData\Local\Temp\ccl99xqh.s:171    .rodata.QP_versionStr:00000000 QP_versionStr
C:\Users\main\AppData\Local\Temp\ccl99xqh.s:156    .bss.QActive_registry_:00000000 $d
C:\Users\main\AppData\Local\Temp\ccl99xqh.s:162    .bss.QF_priv_:00000000 $d
C:\Users\main\AppData\Local\Temp\ccl99xqh.s:168    .rodata.QP_versionStr:00000000 $d
C:\Users\main\AppData\Local\Temp\ccl99xqh.s:175    .rodata.log2LUT.0:00000000 $d
C:\Users\main\AppData\Local\Temp\ccl99xqh.s:179    .rodata.log2LUT.0:00000000 log2LUT.0

NO UNDEFINED SYMBOLS
