ARM GAS  C:\Users\main\AppData\Local\Temp\ccGWoVmJ.s 			page 1


   1              		.cpu cortex-m0plus
   2              		.arch armv6s-m
   3              		.fpu softvfp
   4              		.eabi_attribute 20, 1
   5              		.eabi_attribute 21, 1
   6              		.eabi_attribute 23, 3
   7              		.eabi_attribute 24, 1
   8              		.eabi_attribute 25, 1
   9              		.eabi_attribute 26, 1
  10              		.eabi_attribute 30, 1
  11              		.eabi_attribute 34, 0
  12              		.eabi_attribute 18, 4
  13              		.file	"qf_port.c"
  14              		.text
  15              	.Ltext0:
  16              		.cfi_sections	.debug_frame
  17              		.section	.text.QF_init,"ax",%progbits
  18              		.align	1
  19              		.global	QF_init
  20              		.syntax unified
  21              		.code	16
  22              		.thumb_func
  24              	QF_init:
  25              	.LFB18:
  26              		.file 1 "Middlewares/Third_Party/QuantumLeaps_RTEF_qpc/ports/freertos/qf_port.c"
   1:Middlewares/Third_Party/QuantumLeaps_RTEF_qpc/ports/freertos/qf_port.c **** //============================================================================
   2:Middlewares/Third_Party/QuantumLeaps_RTEF_qpc/ports/freertos/qf_port.c **** // QP/C Real-Time Embedded Framework (RTEF)
   3:Middlewares/Third_Party/QuantumLeaps_RTEF_qpc/ports/freertos/qf_port.c **** // Version 8.0.2
   4:Middlewares/Third_Party/QuantumLeaps_RTEF_qpc/ports/freertos/qf_port.c **** //
   5:Middlewares/Third_Party/QuantumLeaps_RTEF_qpc/ports/freertos/qf_port.c **** // Copyright (C) 2005 Quantum Leaps, LLC. All rights reserved.
   6:Middlewares/Third_Party/QuantumLeaps_RTEF_qpc/ports/freertos/qf_port.c **** //
   7:Middlewares/Third_Party/QuantumLeaps_RTEF_qpc/ports/freertos/qf_port.c **** //                    Q u a n t u m  L e a P s
   8:Middlewares/Third_Party/QuantumLeaps_RTEF_qpc/ports/freertos/qf_port.c **** //                    ------------------------
   9:Middlewares/Third_Party/QuantumLeaps_RTEF_qpc/ports/freertos/qf_port.c **** //                    Modern Embedded Software
  10:Middlewares/Third_Party/QuantumLeaps_RTEF_qpc/ports/freertos/qf_port.c **** //
  11:Middlewares/Third_Party/QuantumLeaps_RTEF_qpc/ports/freertos/qf_port.c **** // SPDX-License-Identifier: GPL-3.0-or-later OR LicenseRef-QL-commercial
  12:Middlewares/Third_Party/QuantumLeaps_RTEF_qpc/ports/freertos/qf_port.c **** //
  13:Middlewares/Third_Party/QuantumLeaps_RTEF_qpc/ports/freertos/qf_port.c **** // This software is dual-licensed under the terms of the open-source GNU
  14:Middlewares/Third_Party/QuantumLeaps_RTEF_qpc/ports/freertos/qf_port.c **** // General Public License (GPL) or under the terms of one of the closed-
  15:Middlewares/Third_Party/QuantumLeaps_RTEF_qpc/ports/freertos/qf_port.c **** // source Quantum Leaps commercial licenses.
  16:Middlewares/Third_Party/QuantumLeaps_RTEF_qpc/ports/freertos/qf_port.c **** //
  17:Middlewares/Third_Party/QuantumLeaps_RTEF_qpc/ports/freertos/qf_port.c **** // Redistributions in source code must retain this top-level comment block.
  18:Middlewares/Third_Party/QuantumLeaps_RTEF_qpc/ports/freertos/qf_port.c **** // Plagiarizing this software to sidestep the license obligations is illegal.
  19:Middlewares/Third_Party/QuantumLeaps_RTEF_qpc/ports/freertos/qf_port.c **** //
  20:Middlewares/Third_Party/QuantumLeaps_RTEF_qpc/ports/freertos/qf_port.c **** // NOTE:
  21:Middlewares/Third_Party/QuantumLeaps_RTEF_qpc/ports/freertos/qf_port.c **** // The GPL does NOT permit the incorporation of this code into proprietary
  22:Middlewares/Third_Party/QuantumLeaps_RTEF_qpc/ports/freertos/qf_port.c **** // programs. Please contact Quantum Leaps for commercial licensing options,
  23:Middlewares/Third_Party/QuantumLeaps_RTEF_qpc/ports/freertos/qf_port.c **** // which expressly supersede the GPL and are designed explicitly for
  24:Middlewares/Third_Party/QuantumLeaps_RTEF_qpc/ports/freertos/qf_port.c **** // closed-source distribution.
  25:Middlewares/Third_Party/QuantumLeaps_RTEF_qpc/ports/freertos/qf_port.c **** //
  26:Middlewares/Third_Party/QuantumLeaps_RTEF_qpc/ports/freertos/qf_port.c **** // Quantum Leaps contact information:
  27:Middlewares/Third_Party/QuantumLeaps_RTEF_qpc/ports/freertos/qf_port.c **** // <www.state-machine.com/licensing>
  28:Middlewares/Third_Party/QuantumLeaps_RTEF_qpc/ports/freertos/qf_port.c **** // <info@state-machine.com>
  29:Middlewares/Third_Party/QuantumLeaps_RTEF_qpc/ports/freertos/qf_port.c **** //============================================================================
  30:Middlewares/Third_Party/QuantumLeaps_RTEF_qpc/ports/freertos/qf_port.c **** #define QP_IMPL           // this is QP implementation
  31:Middlewares/Third_Party/QuantumLeaps_RTEF_qpc/ports/freertos/qf_port.c **** #include "qp_port.h"      // QP port
  32:Middlewares/Third_Party/QuantumLeaps_RTEF_qpc/ports/freertos/qf_port.c **** #include "qp_pkg.h"       // QP package-scope interface
ARM GAS  C:\Users\main\AppData\Local\Temp\ccGWoVmJ.s 			page 2


  33:Middlewares/Third_Party/QuantumLeaps_RTEF_qpc/ports/freertos/qf_port.c **** #include "qsafe.h"        // QP Functional Safety (FuSa) Subsystem
  34:Middlewares/Third_Party/QuantumLeaps_RTEF_qpc/ports/freertos/qf_port.c **** #ifdef Q_SPY              // QS software tracing enabled?
  35:Middlewares/Third_Party/QuantumLeaps_RTEF_qpc/ports/freertos/qf_port.c ****     #include "qs_port.h"  // QS port
  36:Middlewares/Third_Party/QuantumLeaps_RTEF_qpc/ports/freertos/qf_port.c ****     #include "qs_pkg.h"   // QS package-scope internal interface
  37:Middlewares/Third_Party/QuantumLeaps_RTEF_qpc/ports/freertos/qf_port.c **** #else
  38:Middlewares/Third_Party/QuantumLeaps_RTEF_qpc/ports/freertos/qf_port.c ****     #include "qs_dummy.h" // disable the QS software tracing
  39:Middlewares/Third_Party/QuantumLeaps_RTEF_qpc/ports/freertos/qf_port.c **** #endif // Q_SPY
  40:Middlewares/Third_Party/QuantumLeaps_RTEF_qpc/ports/freertos/qf_port.c **** 
  41:Middlewares/Third_Party/QuantumLeaps_RTEF_qpc/ports/freertos/qf_port.c **** Q_DEFINE_THIS_MODULE("qf_port")
  42:Middlewares/Third_Party/QuantumLeaps_RTEF_qpc/ports/freertos/qf_port.c **** 
  43:Middlewares/Third_Party/QuantumLeaps_RTEF_qpc/ports/freertos/qf_port.c **** #if ( configSUPPORT_STATIC_ALLOCATION == 0 )
  44:Middlewares/Third_Party/QuantumLeaps_RTEF_qpc/ports/freertos/qf_port.c ****     #error This QP/C port to FreeRTOS requires configSUPPORT_STATIC_ALLOCATION
  45:Middlewares/Third_Party/QuantumLeaps_RTEF_qpc/ports/freertos/qf_port.c **** #endif
  46:Middlewares/Third_Party/QuantumLeaps_RTEF_qpc/ports/freertos/qf_port.c **** 
  47:Middlewares/Third_Party/QuantumLeaps_RTEF_qpc/ports/freertos/qf_port.c **** #if ( configMAX_PRIORITIES < QF_MAX_ACTIVE )
  48:Middlewares/Third_Party/QuantumLeaps_RTEF_qpc/ports/freertos/qf_port.c ****     #error FreeRTOS configMAX_PRIORITIES must not be less than QF_MAX_ACTIVE
  49:Middlewares/Third_Party/QuantumLeaps_RTEF_qpc/ports/freertos/qf_port.c **** #endif
  50:Middlewares/Third_Party/QuantumLeaps_RTEF_qpc/ports/freertos/qf_port.c **** 
  51:Middlewares/Third_Party/QuantumLeaps_RTEF_qpc/ports/freertos/qf_port.c **** // Local objects -------------------------------------------------------------
  52:Middlewares/Third_Party/QuantumLeaps_RTEF_qpc/ports/freertos/qf_port.c **** static void task_function(void *pvParameters); // FreeRTOS task signature
  53:Middlewares/Third_Party/QuantumLeaps_RTEF_qpc/ports/freertos/qf_port.c **** 
  54:Middlewares/Third_Party/QuantumLeaps_RTEF_qpc/ports/freertos/qf_port.c **** // The following macro provides the number of free slots in the FreeRTOS
  55:Middlewares/Third_Party/QuantumLeaps_RTEF_qpc/ports/freertos/qf_port.c **** // queue.
  56:Middlewares/Third_Party/QuantumLeaps_RTEF_qpc/ports/freertos/qf_port.c **** //
  57:Middlewares/Third_Party/QuantumLeaps_RTEF_qpc/ports/freertos/qf_port.c **** // NOTE1:
  58:Middlewares/Third_Party/QuantumLeaps_RTEF_qpc/ports/freertos/qf_port.c **** // The official FreeRTOS API uxQueueSpacesAvailable() is not used
  59:Middlewares/Third_Party/QuantumLeaps_RTEF_qpc/ports/freertos/qf_port.c **** // here, because that API uses task-level critical section internally.
  60:Middlewares/Third_Party/QuantumLeaps_RTEF_qpc/ports/freertos/qf_port.c **** // Instead, the free slots calculation happens here in already
  61:Middlewares/Third_Party/QuantumLeaps_RTEF_qpc/ports/freertos/qf_port.c **** // established critical section. Unfortunately, the bizarre "information
  62:Middlewares/Third_Party/QuantumLeaps_RTEF_qpc/ports/freertos/qf_port.c **** // obfuscating" policy of FreeRTOS (incorrectly called "information
  63:Middlewares/Third_Party/QuantumLeaps_RTEF_qpc/ports/freertos/qf_port.c **** // hiding") forces the use of the StaticQueue_t with "dummy" members.
  64:Middlewares/Third_Party/QuantumLeaps_RTEF_qpc/ports/freertos/qf_port.c **** // This could potentially break in the future releases of FreeRTOS.
  65:Middlewares/Third_Party/QuantumLeaps_RTEF_qpc/ports/freertos/qf_port.c **** //
  66:Middlewares/Third_Party/QuantumLeaps_RTEF_qpc/ports/freertos/qf_port.c **** // Currently, the correspondence between xQUEUE and StaticQueue_t
  67:Middlewares/Third_Party/QuantumLeaps_RTEF_qpc/ports/freertos/qf_port.c **** // is as follows (see queue.c and FreeRTOS.h, respectively):
  68:Middlewares/Third_Party/QuantumLeaps_RTEF_qpc/ports/freertos/qf_port.c **** //
  69:Middlewares/Third_Party/QuantumLeaps_RTEF_qpc/ports/freertos/qf_port.c **** // xQUEUE.uxMessagesWaiting == StaticQueue_t.uxDummy4[0];
  70:Middlewares/Third_Party/QuantumLeaps_RTEF_qpc/ports/freertos/qf_port.c **** // xQUEUE.uxLength          == StaticQueue_t.uxDummy4[1];
  71:Middlewares/Third_Party/QuantumLeaps_RTEF_qpc/ports/freertos/qf_port.c **** //
  72:Middlewares/Third_Party/QuantumLeaps_RTEF_qpc/ports/freertos/qf_port.c **** #define FREERTOS_QUEUE_GET_FREE(me_) \
  73:Middlewares/Third_Party/QuantumLeaps_RTEF_qpc/ports/freertos/qf_port.c ****     ((me_)->osObject.uxDummy4[1] - (me_)->osObject.uxDummy4[0])
  74:Middlewares/Third_Party/QuantumLeaps_RTEF_qpc/ports/freertos/qf_port.c **** 
  75:Middlewares/Third_Party/QuantumLeaps_RTEF_qpc/ports/freertos/qf_port.c **** //============================================================================
  76:Middlewares/Third_Party/QuantumLeaps_RTEF_qpc/ports/freertos/qf_port.c **** void QF_init(void) {
  27              		.loc 1 76 20 view -0
  28              		.cfi_startproc
  29              		@ args = 0, pretend = 0, frame = 0
  30              		@ frame_needed = 0, uses_anonymous_args = 0
  31 0000 10B5     		push	{r4, lr}
  32              	.LCFI0:
  33              		.cfi_def_cfa_offset 8
  34              		.cfi_offset 4, -8
  35              		.cfi_offset 14, -4
  77:Middlewares/Third_Party/QuantumLeaps_RTEF_qpc/ports/freertos/qf_port.c ****     QF_bzero_(&QF_priv_,             sizeof(QF_priv_));
  36              		.loc 1 77 5 view .LVU1
  37 0002 4021     		movs	r1, #64
  38 0004 0448     		ldr	r0, .L2
ARM GAS  C:\Users\main\AppData\Local\Temp\ccGWoVmJ.s 			page 3


  39 0006 FFF7FEFF 		bl	QF_bzero_
  40              	.LVL0:
  78:Middlewares/Third_Party/QuantumLeaps_RTEF_qpc/ports/freertos/qf_port.c ****     QF_bzero_(&QActive_registry_[0], sizeof(QActive_registry_));
  41              		.loc 1 78 5 view .LVU2
  42 000a 8421     		movs	r1, #132
  43 000c 0348     		ldr	r0, .L2+4
  44 000e FFF7FEFF 		bl	QF_bzero_
  45              	.LVL1:
  79:Middlewares/Third_Party/QuantumLeaps_RTEF_qpc/ports/freertos/qf_port.c ****     QTimeEvt_init(); // initialize QTimeEvts
  46              		.loc 1 79 5 view .LVU3
  47 0012 FFF7FEFF 		bl	QTimeEvt_init
  48              	.LVL2:
  80:Middlewares/Third_Party/QuantumLeaps_RTEF_qpc/ports/freertos/qf_port.c **** }
  49              		.loc 1 80 1 is_stmt 0 view .LVU4
  50              		@ sp needed
  51 0016 10BD     		pop	{r4, pc}
  52              	.L3:
  53              		.align	2
  54              	.L2:
  55 0018 00000000 		.word	QF_priv_
  56 001c 00000000 		.word	QActive_registry_
  57              		.cfi_endproc
  58              	.LFE18:
  60              		.section	.text.QF_run,"ax",%progbits
  61              		.align	1
  62              		.global	QF_run
  63              		.syntax unified
  64              		.code	16
  65              		.thumb_func
  67              	QF_run:
  68              	.LFB19:
  81:Middlewares/Third_Party/QuantumLeaps_RTEF_qpc/ports/freertos/qf_port.c **** //............................................................................
  82:Middlewares/Third_Party/QuantumLeaps_RTEF_qpc/ports/freertos/qf_port.c **** int_t QF_run(void) {
  69              		.loc 1 82 20 is_stmt 1 view -0
  70              		.cfi_startproc
  71              		@ Volatile: function does not return.
  72              		@ args = 0, pretend = 0, frame = 0
  73              		@ frame_needed = 0, uses_anonymous_args = 0
  74 0000 10B5     		push	{r4, lr}
  75              	.LCFI1:
  76              		.cfi_def_cfa_offset 8
  77              		.cfi_offset 4, -8
  78              		.cfi_offset 14, -4
  83:Middlewares/Third_Party/QuantumLeaps_RTEF_qpc/ports/freertos/qf_port.c ****     QF_onStartup(); // the startup callback (configure/enable interrupts)
  79              		.loc 1 83 5 view .LVU6
  80 0002 FFF7FEFF 		bl	QF_onStartup
  81              	.LVL3:
  84:Middlewares/Third_Party/QuantumLeaps_RTEF_qpc/ports/freertos/qf_port.c **** 
  85:Middlewares/Third_Party/QuantumLeaps_RTEF_qpc/ports/freertos/qf_port.c ****     // produce the QS_QF_RUN trace record
  86:Middlewares/Third_Party/QuantumLeaps_RTEF_qpc/ports/freertos/qf_port.c **** #ifdef Q_SPY
  87:Middlewares/Third_Party/QuantumLeaps_RTEF_qpc/ports/freertos/qf_port.c ****     QF_CRIT_STAT
  88:Middlewares/Third_Party/QuantumLeaps_RTEF_qpc/ports/freertos/qf_port.c ****     QF_CRIT_ENTRY();
  89:Middlewares/Third_Party/QuantumLeaps_RTEF_qpc/ports/freertos/qf_port.c ****     QS_BEGIN_PRE(QS_QF_RUN, 0U)
  90:Middlewares/Third_Party/QuantumLeaps_RTEF_qpc/ports/freertos/qf_port.c ****     QS_END_PRE()
  91:Middlewares/Third_Party/QuantumLeaps_RTEF_qpc/ports/freertos/qf_port.c ****     QF_CRIT_EXIT();
  92:Middlewares/Third_Party/QuantumLeaps_RTEF_qpc/ports/freertos/qf_port.c **** #endif
  93:Middlewares/Third_Party/QuantumLeaps_RTEF_qpc/ports/freertos/qf_port.c **** 
ARM GAS  C:\Users\main\AppData\Local\Temp\ccGWoVmJ.s 			page 4


  94:Middlewares/Third_Party/QuantumLeaps_RTEF_qpc/ports/freertos/qf_port.c ****     vTaskStartScheduler(); // start the FreeRTOS scheduler
  82              		.loc 1 94 5 view .LVU7
  83 0006 FFF7FEFF 		bl	vTaskStartScheduler
  84              	.LVL4:
  95:Middlewares/Third_Party/QuantumLeaps_RTEF_qpc/ports/freertos/qf_port.c **** 
  96:Middlewares/Third_Party/QuantumLeaps_RTEF_qpc/ports/freertos/qf_port.c ****     QF_CRIT_ENTRY();
  85              		.loc 1 96 5 view .LVU8
  86 000a FFF7FEFF 		bl	vPortEnterCritical
  87              	.LVL5:
  97:Middlewares/Third_Party/QuantumLeaps_RTEF_qpc/ports/freertos/qf_port.c ****     Q_ERROR_INCRIT(110); // the FreeRTOS scheduler should never return
  88              		.loc 1 97 5 view .LVU9
  89 000e 6E21     		movs	r1, #110
  90 0010 0148     		ldr	r0, .L5
  91 0012 FFF7FEFF 		bl	Q_onError
  92              	.LVL6:
  93              	.L6:
  94 0016 C046     		.align	2
  95              	.L5:
  96 0018 00000000 		.word	.LANCHOR0
  97              		.cfi_endproc
  98              	.LFE19:
 100              		.section	.text.QF_stop,"ax",%progbits
 101              		.align	1
 102              		.global	QF_stop
 103              		.syntax unified
 104              		.code	16
 105              		.thumb_func
 107              	QF_stop:
 108              	.LFB20:
  98:Middlewares/Third_Party/QuantumLeaps_RTEF_qpc/ports/freertos/qf_port.c ****     QF_CRIT_EXIT();
  99:Middlewares/Third_Party/QuantumLeaps_RTEF_qpc/ports/freertos/qf_port.c **** 
 100:Middlewares/Third_Party/QuantumLeaps_RTEF_qpc/ports/freertos/qf_port.c ****     return 0; // dummy return to make the compiler happy
 101:Middlewares/Third_Party/QuantumLeaps_RTEF_qpc/ports/freertos/qf_port.c **** }
 102:Middlewares/Third_Party/QuantumLeaps_RTEF_qpc/ports/freertos/qf_port.c **** //............................................................................
 103:Middlewares/Third_Party/QuantumLeaps_RTEF_qpc/ports/freertos/qf_port.c **** void QF_stop(void) {
 109              		.loc 1 103 20 view -0
 110              		.cfi_startproc
 111              		@ args = 0, pretend = 0, frame = 0
 112              		@ frame_needed = 0, uses_anonymous_args = 0
 113 0000 10B5     		push	{r4, lr}
 114              	.LCFI2:
 115              		.cfi_def_cfa_offset 8
 116              		.cfi_offset 4, -8
 117              		.cfi_offset 14, -4
 104:Middlewares/Third_Party/QuantumLeaps_RTEF_qpc/ports/freertos/qf_port.c ****     QF_onCleanup(); // cleanup callback
 118              		.loc 1 104 5 view .LVU11
 119 0002 FFF7FEFF 		bl	QF_onCleanup
 120              	.LVL7:
 105:Middlewares/Third_Party/QuantumLeaps_RTEF_qpc/ports/freertos/qf_port.c **** }
 121              		.loc 1 105 1 is_stmt 0 view .LVU12
 122              		@ sp needed
 123 0006 10BD     		pop	{r4, pc}
 124              		.cfi_endproc
 125              	.LFE20:
 127              		.section	.rodata.QActive_start.str1.4,"aMS",%progbits,1
 128              		.align	2
 129              	.LC3:
ARM GAS  C:\Users\main\AppData\Local\Temp\ccGWoVmJ.s 			page 5


 130 0000 414F00   		.ascii	"AO\000"
 131              		.section	.text.QActive_start,"ax",%progbits
 132              		.align	1
 133              		.global	QActive_start
 134              		.syntax unified
 135              		.code	16
 136              		.thumb_func
 138              	QActive_start:
 139              	.LVL8:
 140              	.LFB22:
 106:Middlewares/Third_Party/QuantumLeaps_RTEF_qpc/ports/freertos/qf_port.c **** 
 107:Middlewares/Third_Party/QuantumLeaps_RTEF_qpc/ports/freertos/qf_port.c **** //............................................................................
 108:Middlewares/Third_Party/QuantumLeaps_RTEF_qpc/ports/freertos/qf_port.c **** static void task_function(void *pvParameters) { // FreeRTOS task signature
 109:Middlewares/Third_Party/QuantumLeaps_RTEF_qpc/ports/freertos/qf_port.c ****     QActive *act = (QActive *)pvParameters;
 110:Middlewares/Third_Party/QuantumLeaps_RTEF_qpc/ports/freertos/qf_port.c **** 
 111:Middlewares/Third_Party/QuantumLeaps_RTEF_qpc/ports/freertos/qf_port.c **** #ifdef QACTIVE_CAN_STOP
 112:Middlewares/Third_Party/QuantumLeaps_RTEF_qpc/ports/freertos/qf_port.c ****     while (act->eQueue != (QueueHandle_t)0)
 113:Middlewares/Third_Party/QuantumLeaps_RTEF_qpc/ports/freertos/qf_port.c **** #else
 114:Middlewares/Third_Party/QuantumLeaps_RTEF_qpc/ports/freertos/qf_port.c ****     for (;;) // for-ever
 115:Middlewares/Third_Party/QuantumLeaps_RTEF_qpc/ports/freertos/qf_port.c **** #endif
 116:Middlewares/Third_Party/QuantumLeaps_RTEF_qpc/ports/freertos/qf_port.c ****     {
 117:Middlewares/Third_Party/QuantumLeaps_RTEF_qpc/ports/freertos/qf_port.c ****         QEvt const *e = QActive_get_(act); // wait for event
 118:Middlewares/Third_Party/QuantumLeaps_RTEF_qpc/ports/freertos/qf_port.c ****         QASM_DISPATCH(&act->super, e, act->prio); // dispatch to the SM
 119:Middlewares/Third_Party/QuantumLeaps_RTEF_qpc/ports/freertos/qf_port.c ****         QF_gc(e); // check if the event is garbage, and collect it if so
 120:Middlewares/Third_Party/QuantumLeaps_RTEF_qpc/ports/freertos/qf_port.c ****     }
 121:Middlewares/Third_Party/QuantumLeaps_RTEF_qpc/ports/freertos/qf_port.c **** #ifdef QACTIVE_CAN_STOP
 122:Middlewares/Third_Party/QuantumLeaps_RTEF_qpc/ports/freertos/qf_port.c ****     QActive_unregister_(act); // remove this object from the framewrok
 123:Middlewares/Third_Party/QuantumLeaps_RTEF_qpc/ports/freertos/qf_port.c ****     vTaskDelete((TaskHandle_t)0); // delete this FreeRTOS task
 124:Middlewares/Third_Party/QuantumLeaps_RTEF_qpc/ports/freertos/qf_port.c **** #endif
 125:Middlewares/Third_Party/QuantumLeaps_RTEF_qpc/ports/freertos/qf_port.c **** }
 126:Middlewares/Third_Party/QuantumLeaps_RTEF_qpc/ports/freertos/qf_port.c **** 
 127:Middlewares/Third_Party/QuantumLeaps_RTEF_qpc/ports/freertos/qf_port.c **** //............................................................................
 128:Middlewares/Third_Party/QuantumLeaps_RTEF_qpc/ports/freertos/qf_port.c **** //! @public @memberof QActive
 129:Middlewares/Third_Party/QuantumLeaps_RTEF_qpc/ports/freertos/qf_port.c **** void QActive_start(QActive * const me,
 130:Middlewares/Third_Party/QuantumLeaps_RTEF_qpc/ports/freertos/qf_port.c ****     QPrioSpec const prioSpec,
 131:Middlewares/Third_Party/QuantumLeaps_RTEF_qpc/ports/freertos/qf_port.c ****     QEvtPtr * const qSto,
 132:Middlewares/Third_Party/QuantumLeaps_RTEF_qpc/ports/freertos/qf_port.c ****     uint_fast16_t const qLen,
 133:Middlewares/Third_Party/QuantumLeaps_RTEF_qpc/ports/freertos/qf_port.c ****     void * const stkSto,
 134:Middlewares/Third_Party/QuantumLeaps_RTEF_qpc/ports/freertos/qf_port.c ****     uint_fast16_t const stkSize,
 135:Middlewares/Third_Party/QuantumLeaps_RTEF_qpc/ports/freertos/qf_port.c ****     void const * const par)
 136:Middlewares/Third_Party/QuantumLeaps_RTEF_qpc/ports/freertos/qf_port.c **** {
 141              		.loc 1 136 1 is_stmt 1 view -0
 142              		.cfi_startproc
 143              		@ args = 12, pretend = 0, frame = 0
 144              		@ frame_needed = 0, uses_anonymous_args = 0
 145              		.loc 1 136 1 is_stmt 0 view .LVU14
 146 0000 F0B5     		push	{r4, r5, r6, r7, lr}
 147              	.LCFI3:
 148              		.cfi_def_cfa_offset 20
 149              		.cfi_offset 4, -20
 150              		.cfi_offset 5, -16
 151              		.cfi_offset 6, -12
 152              		.cfi_offset 7, -8
 153              		.cfi_offset 14, -4
 154 0002 85B0     		sub	sp, sp, #20
 155              	.LCFI4:
 156              		.cfi_def_cfa_offset 40
ARM GAS  C:\Users\main\AppData\Local\Temp\ccGWoVmJ.s 			page 6


 157 0004 0400     		movs	r4, r0
 158 0006 0D00     		movs	r5, r1
 159 0008 1600     		movs	r6, r2
 160 000a 1F00     		movs	r7, r3
 137:Middlewares/Third_Party/QuantumLeaps_RTEF_qpc/ports/freertos/qf_port.c ****     QF_CRIT_STAT
 138:Middlewares/Third_Party/QuantumLeaps_RTEF_qpc/ports/freertos/qf_port.c ****     QF_CRIT_ENTRY();
 161              		.loc 1 138 5 is_stmt 1 view .LVU15
 162 000c FFF7FEFF 		bl	vPortEnterCritical
 163              	.LVL9:
 139:Middlewares/Third_Party/QuantumLeaps_RTEF_qpc/ports/freertos/qf_port.c ****     // precondition:
 140:Middlewares/Third_Party/QuantumLeaps_RTEF_qpc/ports/freertos/qf_port.c ****     // - queue storage must be provided
 141:Middlewares/Third_Party/QuantumLeaps_RTEF_qpc/ports/freertos/qf_port.c ****     // - queue size must be provided
 142:Middlewares/Third_Party/QuantumLeaps_RTEF_qpc/ports/freertos/qf_port.c ****     // - stack storage must be provided
 143:Middlewares/Third_Party/QuantumLeaps_RTEF_qpc/ports/freertos/qf_port.c ****     // - stack size must be provided
 144:Middlewares/Third_Party/QuantumLeaps_RTEF_qpc/ports/freertos/qf_port.c ****     Q_REQUIRE_INCRIT(100,
 164              		.loc 1 144 5 view .LVU16
 165 0010 002E     		cmp	r6, #0
 166 0012 42D0     		beq	.L9
 167              		.loc 1 144 5 is_stmt 0 discriminator 2 view .LVU17
 168 0014 002F     		cmp	r7, #0
 169 0016 40D0     		beq	.L9
 170              		.loc 1 144 5 discriminator 4 view .LVU18
 171 0018 0A9B     		ldr	r3, [sp, #40]
 172 001a 002B     		cmp	r3, #0
 173 001c 3DD0     		beq	.L9
 174              		.loc 1 144 5 discriminator 6 view .LVU19
 175 001e 0B9B     		ldr	r3, [sp, #44]
 176 0020 002B     		cmp	r3, #0
 177 0022 3AD0     		beq	.L9
 145:Middlewares/Third_Party/QuantumLeaps_RTEF_qpc/ports/freertos/qf_port.c ****         (qSto != (QEvtPtr *)0) && (qLen > 0U)
 146:Middlewares/Third_Party/QuantumLeaps_RTEF_qpc/ports/freertos/qf_port.c ****         && (stkSto != (void *)0) && (stkSize > 0U));
 147:Middlewares/Third_Party/QuantumLeaps_RTEF_qpc/ports/freertos/qf_port.c ****     QF_CRIT_EXIT();
 178              		.loc 1 147 5 is_stmt 1 view .LVU20
 179 0024 FFF7FEFF 		bl	vPortExitCritical
 180              	.LVL10:
 148:Middlewares/Third_Party/QuantumLeaps_RTEF_qpc/ports/freertos/qf_port.c **** 
 149:Middlewares/Third_Party/QuantumLeaps_RTEF_qpc/ports/freertos/qf_port.c ****     // create FreeRTOS message queue
 150:Middlewares/Third_Party/QuantumLeaps_RTEF_qpc/ports/freertos/qf_port.c ****     me->eQueue = xQueueCreateStatic(
 181              		.loc 1 150 5 view .LVU21
 182              		.loc 1 150 18 is_stmt 0 view .LVU22
 183 0028 2300     		movs	r3, r4
 184 002a 6C33     		adds	r3, r3, #108
 185 002c 0022     		movs	r2, #0
 186 002e 0092     		str	r2, [sp]
 187 0030 3200     		movs	r2, r6
 188 0032 0421     		movs	r1, #4
 189 0034 3800     		movs	r0, r7
 190 0036 FFF7FEFF 		bl	xQueueGenericCreateStatic
 191              	.LVL11:
 192              		.loc 1 150 16 view .LVU23
 193 003a BC26     		movs	r6, #188
 194              	.LVL12:
 195              		.loc 1 150 16 view .LVU24
 196 003c A051     		str	r0, [r4, r6]
 151:Middlewares/Third_Party/QuantumLeaps_RTEF_qpc/ports/freertos/qf_port.c ****         (UBaseType_t)qLen,     // length of the queue
 152:Middlewares/Third_Party/QuantumLeaps_RTEF_qpc/ports/freertos/qf_port.c ****         (UBaseType_t)sizeof(QEvtPtr), // item size
 153:Middlewares/Third_Party/QuantumLeaps_RTEF_qpc/ports/freertos/qf_port.c ****         (uint8_t *)qSto,       // storage buffer
ARM GAS  C:\Users\main\AppData\Local\Temp\ccGWoVmJ.s 			page 7


 154:Middlewares/Third_Party/QuantumLeaps_RTEF_qpc/ports/freertos/qf_port.c ****         &me->osObject);        // static queue buffer
 155:Middlewares/Third_Party/QuantumLeaps_RTEF_qpc/ports/freertos/qf_port.c ****     QF_CRIT_ENTRY();
 197              		.loc 1 155 5 is_stmt 1 view .LVU25
 198 003e FFF7FEFF 		bl	vPortEnterCritical
 199              	.LVL13:
 156:Middlewares/Third_Party/QuantumLeaps_RTEF_qpc/ports/freertos/qf_port.c ****     Q_ASSERT_INCRIT(110, me->eQueue != (QueueHandle_t)0);
 200              		.loc 1 156 5 view .LVU26
 201 0042 A359     		ldr	r3, [r4, r6]
 202 0044 002B     		cmp	r3, #0
 203 0046 2CD0     		beq	.L15
 157:Middlewares/Third_Party/QuantumLeaps_RTEF_qpc/ports/freertos/qf_port.c ****     QF_CRIT_EXIT();
 204              		.loc 1 157 5 view .LVU27
 205 0048 FFF7FEFF 		bl	vPortExitCritical
 206              	.LVL14:
 158:Middlewares/Third_Party/QuantumLeaps_RTEF_qpc/ports/freertos/qf_port.c **** 
 159:Middlewares/Third_Party/QuantumLeaps_RTEF_qpc/ports/freertos/qf_port.c ****     me->prio  = (uint8_t)(prioSpec & 0xFFU); // QF-priority of the AO
 207              		.loc 1 159 5 view .LVU28
 208              		.loc 1 159 15 is_stmt 0 view .LVU29
 209 004c 2573     		strb	r5, [r4, #12]
 160:Middlewares/Third_Party/QuantumLeaps_RTEF_qpc/ports/freertos/qf_port.c ****     me->pthre = 0U; // preemption-threshold (not used for AO registration)
 210              		.loc 1 160 5 is_stmt 1 view .LVU30
 211              		.loc 1 160 15 is_stmt 0 view .LVU31
 212 004e 0023     		movs	r3, #0
 213 0050 6373     		strb	r3, [r4, #13]
 161:Middlewares/Third_Party/QuantumLeaps_RTEF_qpc/ports/freertos/qf_port.c ****     QActive_register_(me); // make QF aware of this AO
 214              		.loc 1 161 5 is_stmt 1 view .LVU32
 215 0052 2000     		movs	r0, r4
 216 0054 FFF7FEFF 		bl	QActive_register_
 217              	.LVL15:
 162:Middlewares/Third_Party/QuantumLeaps_RTEF_qpc/ports/freertos/qf_port.c **** 
 163:Middlewares/Third_Party/QuantumLeaps_RTEF_qpc/ports/freertos/qf_port.c ****     // top-most initial tran. (virtual call)
 164:Middlewares/Third_Party/QuantumLeaps_RTEF_qpc/ports/freertos/qf_port.c ****     (*me->super.vptr->init)(&me->super, par, me->prio);
 218              		.loc 1 164 5 view .LVU33
 219              		.loc 1 164 16 is_stmt 0 view .LVU34
 220 0058 2368     		ldr	r3, [r4]
 221              		.loc 1 164 48 view .LVU35
 222 005a 227B     		ldrb	r2, [r4, #12]
 223              		.loc 1 164 6 view .LVU36
 224 005c 1B68     		ldr	r3, [r3]
 225 005e 0C99     		ldr	r1, [sp, #48]
 226 0060 2000     		movs	r0, r4
 227 0062 9847     		blx	r3
 228              	.LVL16:
 165:Middlewares/Third_Party/QuantumLeaps_RTEF_qpc/ports/freertos/qf_port.c ****     QS_FLUSH(); // flush the trace buffer to the host
 229              		.loc 1 165 5 is_stmt 1 view .LVU37
 166:Middlewares/Third_Party/QuantumLeaps_RTEF_qpc/ports/freertos/qf_port.c **** 
 167:Middlewares/Third_Party/QuantumLeaps_RTEF_qpc/ports/freertos/qf_port.c ****     // task name provided by the user in QActive_setAttr() or default name
 168:Middlewares/Third_Party/QuantumLeaps_RTEF_qpc/ports/freertos/qf_port.c ****     char const *taskName = (me->thread.pxDummy1 != (void *)0)
 230              		.loc 1 168 5 view .LVU38
 231              		.loc 1 168 39 is_stmt 0 view .LVU39
 232 0064 2169     		ldr	r1, [r4, #16]
 169:Middlewares/Third_Party/QuantumLeaps_RTEF_qpc/ports/freertos/qf_port.c ****                              ? (char const *)me->thread.pxDummy1
 170:Middlewares/Third_Party/QuantumLeaps_RTEF_qpc/ports/freertos/qf_port.c ****                              : (char const *)"AO";
 233              		.loc 1 170 30 view .LVU40
 234 0066 0029     		cmp	r1, #0
 235 0068 1FD0     		beq	.L16
 236              	.L12:
ARM GAS  C:\Users\main\AppData\Local\Temp\ccGWoVmJ.s 			page 8


 237              	.LVL17:
 171:Middlewares/Third_Party/QuantumLeaps_RTEF_qpc/ports/freertos/qf_port.c **** 
 172:Middlewares/Third_Party/QuantumLeaps_RTEF_qpc/ports/freertos/qf_port.c ****     // The FreeRTOS priority of the AO thread can be specified in two ways:
 173:Middlewares/Third_Party/QuantumLeaps_RTEF_qpc/ports/freertos/qf_port.c ****     //
 174:Middlewares/Third_Party/QuantumLeaps_RTEF_qpc/ports/freertos/qf_port.c ****     // 1. Implicitly based on the AO's priority (by the formula specified
 175:Middlewares/Third_Party/QuantumLeaps_RTEF_qpc/ports/freertos/qf_port.c ****     //    in the macro FREERTOS_TASK_PRIO(), see qp_port.h). This option
 176:Middlewares/Third_Party/QuantumLeaps_RTEF_qpc/ports/freertos/qf_port.c ****     //    is chosen, when the higher-byte of the prioSpec parameter is set
 177:Middlewares/Third_Party/QuantumLeaps_RTEF_qpc/ports/freertos/qf_port.c ****     //    to zero.
 178:Middlewares/Third_Party/QuantumLeaps_RTEF_qpc/ports/freertos/qf_port.c ****     //
 179:Middlewares/Third_Party/QuantumLeaps_RTEF_qpc/ports/freertos/qf_port.c ****     // 2. Explicitly as the higher-byte of the prioSpec parameter.
 180:Middlewares/Third_Party/QuantumLeaps_RTEF_qpc/ports/freertos/qf_port.c ****     //    This option is chosen when the prioSpec parameter is not-zero.
 181:Middlewares/Third_Party/QuantumLeaps_RTEF_qpc/ports/freertos/qf_port.c ****     //    For example, Q_PRIO(10U, 5U) will explicitly specify AO priority
 182:Middlewares/Third_Party/QuantumLeaps_RTEF_qpc/ports/freertos/qf_port.c ****     //    as 10 and FreeRTOS priority as 5.
 183:Middlewares/Third_Party/QuantumLeaps_RTEF_qpc/ports/freertos/qf_port.c ****     //
 184:Middlewares/Third_Party/QuantumLeaps_RTEF_qpc/ports/freertos/qf_port.c ****     //    NOTE: The explicit FreeRTOS priority is NOT sanity-checked,
 185:Middlewares/Third_Party/QuantumLeaps_RTEF_qpc/ports/freertos/qf_port.c ****     //    so it is the responsibility of the application to ensure that
 186:Middlewares/Third_Party/QuantumLeaps_RTEF_qpc/ports/freertos/qf_port.c ****     //    it is consistent with the AO's priority. An example of
 187:Middlewares/Third_Party/QuantumLeaps_RTEF_qpc/ports/freertos/qf_port.c ****     //    inconsistent setting would be assigning FreeRTOS priorities that
 188:Middlewares/Third_Party/QuantumLeaps_RTEF_qpc/ports/freertos/qf_port.c ****     //    would result in a different relative prioritization of AO's threads
 189:Middlewares/Third_Party/QuantumLeaps_RTEF_qpc/ports/freertos/qf_port.c ****     //    than indicated by the AO priorities assigned.
 190:Middlewares/Third_Party/QuantumLeaps_RTEF_qpc/ports/freertos/qf_port.c ****     //
 191:Middlewares/Third_Party/QuantumLeaps_RTEF_qpc/ports/freertos/qf_port.c ****     UBaseType_t freertos_prio = (prioSpec >> 8U);
 238              		.loc 1 191 5 is_stmt 1 view .LVU41
 239              		.loc 1 191 43 is_stmt 0 view .LVU42
 240 006a 2D0A     		lsrs	r5, r5, #8
 241              	.LVL18:
 192:Middlewares/Third_Party/QuantumLeaps_RTEF_qpc/ports/freertos/qf_port.c ****     if (freertos_prio == 0U) {
 242              		.loc 1 192 5 is_stmt 1 view .LVU43
 243              		.loc 1 192 8 is_stmt 0 view .LVU44
 244 006c 00D1     		bne	.L13
 193:Middlewares/Third_Party/QuantumLeaps_RTEF_qpc/ports/freertos/qf_port.c ****         freertos_prio = FREERTOS_TASK_PRIO(me->prio);
 245              		.loc 1 193 9 is_stmt 1 view .LVU45
 246              		.loc 1 193 25 is_stmt 0 view .LVU46
 247 006e 257B     		ldrb	r5, [r4, #12]
 248              	.LVL19:
 249              	.L13:
 194:Middlewares/Third_Party/QuantumLeaps_RTEF_qpc/ports/freertos/qf_port.c ****     }
 195:Middlewares/Third_Party/QuantumLeaps_RTEF_qpc/ports/freertos/qf_port.c **** 
 196:Middlewares/Third_Party/QuantumLeaps_RTEF_qpc/ports/freertos/qf_port.c ****     // statically create the FreeRTOS task for the AO
 197:Middlewares/Third_Party/QuantumLeaps_RTEF_qpc/ports/freertos/qf_port.c ****     TaskHandle_t task = xTaskCreateStatic(
 250              		.loc 1 197 5 is_stmt 1 view .LVU47
 198:Middlewares/Third_Party/QuantumLeaps_RTEF_qpc/ports/freertos/qf_port.c ****         &task_function, // the task function
 199:Middlewares/Third_Party/QuantumLeaps_RTEF_qpc/ports/freertos/qf_port.c ****         taskName ,      // the name of the task
 200:Middlewares/Third_Party/QuantumLeaps_RTEF_qpc/ports/freertos/qf_port.c ****         stkSize/sizeof(portSTACK_TYPE), // stack length
 251              		.loc 1 200 16 is_stmt 0 view .LVU48
 252 0070 0B9B     		ldr	r3, [sp, #44]
 253 0072 9A08     		lsrs	r2, r3, #2
 197:Middlewares/Third_Party/QuantumLeaps_RTEF_qpc/ports/freertos/qf_port.c ****         &task_function, // the task function
 254              		.loc 1 197 25 view .LVU49
 255 0074 2000     		movs	r0, r4
 256 0076 1030     		adds	r0, r0, #16
 257 0078 0290     		str	r0, [sp, #8]
 258 007a 0A9B     		ldr	r3, [sp, #40]
 259 007c 0193     		str	r3, [sp, #4]
 260 007e 0095     		str	r5, [sp]
 261 0080 2300     		movs	r3, r4
 262 0082 0D48     		ldr	r0, .L18
ARM GAS  C:\Users\main\AppData\Local\Temp\ccGWoVmJ.s 			page 9


 263 0084 FFF7FEFF 		bl	xTaskCreateStatic
 264              	.LVL20:
 197:Middlewares/Third_Party/QuantumLeaps_RTEF_qpc/ports/freertos/qf_port.c ****         &task_function, // the task function
 265              		.loc 1 197 25 view .LVU50
 266 0088 0400     		movs	r4, r0
 267              	.LVL21:
 201:Middlewares/Third_Party/QuantumLeaps_RTEF_qpc/ports/freertos/qf_port.c ****         (void *)me,     // the 'pvParameters' parameter
 202:Middlewares/Third_Party/QuantumLeaps_RTEF_qpc/ports/freertos/qf_port.c ****         freertos_prio,  // FreeRTOS priority
 203:Middlewares/Third_Party/QuantumLeaps_RTEF_qpc/ports/freertos/qf_port.c ****         (StackType_t *)stkSto,        // stack storage
 204:Middlewares/Third_Party/QuantumLeaps_RTEF_qpc/ports/freertos/qf_port.c ****         &me->thread);   // task buffer
 205:Middlewares/Third_Party/QuantumLeaps_RTEF_qpc/ports/freertos/qf_port.c **** 
 206:Middlewares/Third_Party/QuantumLeaps_RTEF_qpc/ports/freertos/qf_port.c ****     QF_CRIT_ENTRY();
 268              		.loc 1 206 5 is_stmt 1 view .LVU51
 269 008a FFF7FEFF 		bl	vPortEnterCritical
 270              	.LVL22:
 207:Middlewares/Third_Party/QuantumLeaps_RTEF_qpc/ports/freertos/qf_port.c ****     Q_ASSERT_INCRIT(120, task != (TaskHandle_t)0);
 271              		.loc 1 207 5 view .LVU52
 272 008e 002C     		cmp	r4, #0
 273 0090 0DD0     		beq	.L17
 208:Middlewares/Third_Party/QuantumLeaps_RTEF_qpc/ports/freertos/qf_port.c ****     QF_CRIT_EXIT();
 274              		.loc 1 208 5 view .LVU53
 275 0092 FFF7FEFF 		bl	vPortExitCritical
 276              	.LVL23:
 209:Middlewares/Third_Party/QuantumLeaps_RTEF_qpc/ports/freertos/qf_port.c **** 
 210:Middlewares/Third_Party/QuantumLeaps_RTEF_qpc/ports/freertos/qf_port.c **** #ifdef Q_UNSAFE
 211:Middlewares/Third_Party/QuantumLeaps_RTEF_qpc/ports/freertos/qf_port.c ****     Q_UNUSED_PAR(task);
 212:Middlewares/Third_Party/QuantumLeaps_RTEF_qpc/ports/freertos/qf_port.c **** #endif
 213:Middlewares/Third_Party/QuantumLeaps_RTEF_qpc/ports/freertos/qf_port.c **** }
 277              		.loc 1 213 1 is_stmt 0 view .LVU54
 278 0096 05B0     		add	sp, sp, #20
 279              		@ sp needed
 280              	.LVL24:
 281              	.LVL25:
 282              	.LVL26:
 283              		.loc 1 213 1 view .LVU55
 284 0098 F0BD     		pop	{r4, r5, r6, r7, pc}
 285              	.LVL27:
 286              	.L9:
 144:Middlewares/Third_Party/QuantumLeaps_RTEF_qpc/ports/freertos/qf_port.c ****         (qSto != (QEvtPtr *)0) && (qLen > 0U)
 287              		.loc 1 144 5 discriminator 7 view .LVU56
 288 009a 6421     		movs	r1, #100
 289 009c 0748     		ldr	r0, .L18+4
 290 009e FFF7FEFF 		bl	Q_onError
 291              	.LVL28:
 292              	.L15:
 156:Middlewares/Third_Party/QuantumLeaps_RTEF_qpc/ports/freertos/qf_port.c ****     QF_CRIT_EXIT();
 293              		.loc 1 156 5 discriminator 1 view .LVU57
 294 00a2 6E21     		movs	r1, #110
 295 00a4 0548     		ldr	r0, .L18+4
 296 00a6 FFF7FEFF 		bl	Q_onError
 297              	.LVL29:
 298              	.L16:
 170:Middlewares/Third_Party/QuantumLeaps_RTEF_qpc/ports/freertos/qf_port.c **** 
 299              		.loc 1 170 30 view .LVU58
 300 00aa 0549     		ldr	r1, .L18+8
 301 00ac DDE7     		b	.L12
 302              	.LVL30:
ARM GAS  C:\Users\main\AppData\Local\Temp\ccGWoVmJ.s 			page 10


 303              	.L17:
 207:Middlewares/Third_Party/QuantumLeaps_RTEF_qpc/ports/freertos/qf_port.c ****     QF_CRIT_EXIT();
 304              		.loc 1 207 5 discriminator 1 view .LVU59
 305 00ae 7821     		movs	r1, #120
 306 00b0 0248     		ldr	r0, .L18+4
 307 00b2 FFF7FEFF 		bl	Q_onError
 308              	.LVL31:
 309              	.L19:
 310 00b6 C046     		.align	2
 311              	.L18:
 312 00b8 00000000 		.word	task_function
 313 00bc 00000000 		.word	.LANCHOR0
 314 00c0 00000000 		.word	.LC3
 315              		.cfi_endproc
 316              	.LFE22:
 318              		.section	.text.QActive_setAttr,"ax",%progbits
 319              		.align	1
 320              		.global	QActive_setAttr
 321              		.syntax unified
 322              		.code	16
 323              		.thumb_func
 325              	QActive_setAttr:
 326              	.LVL32:
 327              	.LFB23:
 214:Middlewares/Third_Party/QuantumLeaps_RTEF_qpc/ports/freertos/qf_port.c **** //............................................................................
 215:Middlewares/Third_Party/QuantumLeaps_RTEF_qpc/ports/freertos/qf_port.c **** #ifdef QACTIVE_CAN_STOP
 216:Middlewares/Third_Party/QuantumLeaps_RTEF_qpc/ports/freertos/qf_port.c **** void QActive_stop(QActive * const me) {
 217:Middlewares/Third_Party/QuantumLeaps_RTEF_qpc/ports/freertos/qf_port.c ****     QActive_unsubscribeAll(me); // unsubscribe from all events
 218:Middlewares/Third_Party/QuantumLeaps_RTEF_qpc/ports/freertos/qf_port.c ****     me->eQueue = (QueueHandle_t)0; // stop thread (see task_function())
 219:Middlewares/Third_Party/QuantumLeaps_RTEF_qpc/ports/freertos/qf_port.c **** }
 220:Middlewares/Third_Party/QuantumLeaps_RTEF_qpc/ports/freertos/qf_port.c **** #endif
 221:Middlewares/Third_Party/QuantumLeaps_RTEF_qpc/ports/freertos/qf_port.c **** //............................................................................
 222:Middlewares/Third_Party/QuantumLeaps_RTEF_qpc/ports/freertos/qf_port.c **** void QActive_setAttr(QActive *const me, uint32_t attr1, void const *attr2) {
 328              		.loc 1 222 76 is_stmt 1 view -0
 329              		.cfi_startproc
 330              		@ args = 0, pretend = 0, frame = 0
 331              		@ frame_needed = 0, uses_anonymous_args = 0
 332              		.loc 1 222 76 is_stmt 0 view .LVU61
 333 0000 70B5     		push	{r4, r5, r6, lr}
 334              	.LCFI5:
 335              		.cfi_def_cfa_offset 16
 336              		.cfi_offset 4, -16
 337              		.cfi_offset 5, -12
 338              		.cfi_offset 6, -8
 339              		.cfi_offset 14, -4
 340 0002 0400     		movs	r4, r0
 341 0004 0D00     		movs	r5, r1
 342 0006 1600     		movs	r6, r2
 223:Middlewares/Third_Party/QuantumLeaps_RTEF_qpc/ports/freertos/qf_port.c ****     QF_CRIT_STAT
 224:Middlewares/Third_Party/QuantumLeaps_RTEF_qpc/ports/freertos/qf_port.c ****     QF_CRIT_ENTRY();
 343              		.loc 1 224 5 is_stmt 1 view .LVU62
 344 0008 FFF7FEFF 		bl	vPortEnterCritical
 345              	.LVL33:
 225:Middlewares/Third_Party/QuantumLeaps_RTEF_qpc/ports/freertos/qf_port.c ****     // this function must be called before QActive_start(),
 226:Middlewares/Third_Party/QuantumLeaps_RTEF_qpc/ports/freertos/qf_port.c ****     // which implies that me->thread.pxDummy1 must not be used yet;
 227:Middlewares/Third_Party/QuantumLeaps_RTEF_qpc/ports/freertos/qf_port.c ****     Q_REQUIRE_INCRIT(150, me->thread.pxDummy1 == (void *)0);
 346              		.loc 1 227 5 view .LVU63
ARM GAS  C:\Users\main\AppData\Local\Temp\ccGWoVmJ.s 			page 11


 347 000c 2369     		ldr	r3, [r4, #16]
 348 000e 002B     		cmp	r3, #0
 349 0010 05D1     		bne	.L23
 228:Middlewares/Third_Party/QuantumLeaps_RTEF_qpc/ports/freertos/qf_port.c ****     switch (attr1) {
 350              		.loc 1 228 5 view .LVU64
 351 0012 002D     		cmp	r5, #0
 352 0014 00D1     		bne	.L22
 229:Middlewares/Third_Party/QuantumLeaps_RTEF_qpc/ports/freertos/qf_port.c ****         case TASK_NAME_ATTR:
 230:Middlewares/Third_Party/QuantumLeaps_RTEF_qpc/ports/freertos/qf_port.c ****             // temporarily store the name, cast 'const' away
 231:Middlewares/Third_Party/QuantumLeaps_RTEF_qpc/ports/freertos/qf_port.c ****             me->thread.pxDummy1 = (void *)attr2;
 353              		.loc 1 231 13 view .LVU65
 354              		.loc 1 231 33 is_stmt 0 view .LVU66
 355 0016 2661     		str	r6, [r4, #16]
 232:Middlewares/Third_Party/QuantumLeaps_RTEF_qpc/ports/freertos/qf_port.c ****             break;
 356              		.loc 1 232 13 is_stmt 1 view .LVU67
 357              	.L22:
 233:Middlewares/Third_Party/QuantumLeaps_RTEF_qpc/ports/freertos/qf_port.c ****         // ...
 234:Middlewares/Third_Party/QuantumLeaps_RTEF_qpc/ports/freertos/qf_port.c ****         default:
 235:Middlewares/Third_Party/QuantumLeaps_RTEF_qpc/ports/freertos/qf_port.c ****             break;
 236:Middlewares/Third_Party/QuantumLeaps_RTEF_qpc/ports/freertos/qf_port.c ****     }
 237:Middlewares/Third_Party/QuantumLeaps_RTEF_qpc/ports/freertos/qf_port.c ****     QF_CRIT_EXIT();
 358              		.loc 1 237 5 view .LVU68
 359 0018 FFF7FEFF 		bl	vPortExitCritical
 360              	.LVL34:
 238:Middlewares/Third_Party/QuantumLeaps_RTEF_qpc/ports/freertos/qf_port.c **** }
 361              		.loc 1 238 1 is_stmt 0 view .LVU69
 362              		@ sp needed
 363              	.LVL35:
 364              	.LVL36:
 365              	.LVL37:
 366              		.loc 1 238 1 view .LVU70
 367 001c 70BD     		pop	{r4, r5, r6, pc}
 368              	.LVL38:
 369              	.L23:
 227:Middlewares/Third_Party/QuantumLeaps_RTEF_qpc/ports/freertos/qf_port.c ****     switch (attr1) {
 370              		.loc 1 227 5 discriminator 1 view .LVU71
 371 001e 9621     		movs	r1, #150
 372 0020 0148     		ldr	r0, .L24
 373 0022 FFF7FEFF 		bl	Q_onError
 374              	.LVL39:
 375              	.L25:
 376 0026 C046     		.align	2
 377              	.L24:
 378 0028 00000000 		.word	.LANCHOR0
 379              		.cfi_endproc
 380              	.LFE23:
 382              		.section	.text.QActive_post_,"ax",%progbits
 383              		.align	1
 384              		.global	QActive_post_
 385              		.syntax unified
 386              		.code	16
 387              		.thumb_func
 389              	QActive_post_:
 390              	.LVL40:
 391              	.LFB24:
 239:Middlewares/Third_Party/QuantumLeaps_RTEF_qpc/ports/freertos/qf_port.c **** 
 240:Middlewares/Third_Party/QuantumLeaps_RTEF_qpc/ports/freertos/qf_port.c **** //============================================================================
ARM GAS  C:\Users\main\AppData\Local\Temp\ccGWoVmJ.s 			page 12


 241:Middlewares/Third_Party/QuantumLeaps_RTEF_qpc/ports/freertos/qf_port.c **** //! @private @memberof QActive
 242:Middlewares/Third_Party/QuantumLeaps_RTEF_qpc/ports/freertos/qf_port.c **** bool QActive_post_(QActive * const me, QEvt const * const e,
 243:Middlewares/Third_Party/QuantumLeaps_RTEF_qpc/ports/freertos/qf_port.c ****                    uint_fast16_t const margin, void const * const sender)
 244:Middlewares/Third_Party/QuantumLeaps_RTEF_qpc/ports/freertos/qf_port.c **** {
 392              		.loc 1 244 1 is_stmt 1 view -0
 393              		.cfi_startproc
 394              		@ args = 0, pretend = 0, frame = 8
 395              		@ frame_needed = 0, uses_anonymous_args = 0
 396              		.loc 1 244 1 is_stmt 0 view .LVU73
 397 0000 30B5     		push	{r4, r5, lr}
 398              	.LCFI6:
 399              		.cfi_def_cfa_offset 12
 400              		.cfi_offset 4, -12
 401              		.cfi_offset 5, -8
 402              		.cfi_offset 14, -4
 403 0002 83B0     		sub	sp, sp, #12
 404              	.LCFI7:
 405              		.cfi_def_cfa_offset 24
 406 0004 0400     		movs	r4, r0
 407 0006 0191     		str	r1, [sp, #4]
 408 0008 1500     		movs	r5, r2
 245:Middlewares/Third_Party/QuantumLeaps_RTEF_qpc/ports/freertos/qf_port.c **** #ifndef Q_SPY
 246:Middlewares/Third_Party/QuantumLeaps_RTEF_qpc/ports/freertos/qf_port.c ****     Q_UNUSED_PAR(sender);
 409              		.loc 1 246 5 is_stmt 1 view .LVU74
 247:Middlewares/Third_Party/QuantumLeaps_RTEF_qpc/ports/freertos/qf_port.c **** #endif
 248:Middlewares/Third_Party/QuantumLeaps_RTEF_qpc/ports/freertos/qf_port.c **** 
 249:Middlewares/Third_Party/QuantumLeaps_RTEF_qpc/ports/freertos/qf_port.c ****     QF_CRIT_STAT
 250:Middlewares/Third_Party/QuantumLeaps_RTEF_qpc/ports/freertos/qf_port.c ****     QF_CRIT_ENTRY();
 410              		.loc 1 250 5 view .LVU75
 411 000a FFF7FEFF 		bl	vPortEnterCritical
 412              	.LVL41:
 251:Middlewares/Third_Party/QuantumLeaps_RTEF_qpc/ports/freertos/qf_port.c **** 
 252:Middlewares/Third_Party/QuantumLeaps_RTEF_qpc/ports/freertos/qf_port.c ****     Q_REQUIRE_INCRIT(200, e != (QEvt *)0);
 413              		.loc 1 252 5 view .LVU76
 414 000e 0199     		ldr	r1, [sp, #4]
 415 0010 0029     		cmp	r1, #0
 416 0012 0DD0     		beq	.L37
 253:Middlewares/Third_Party/QuantumLeaps_RTEF_qpc/ports/freertos/qf_port.c **** 
 254:Middlewares/Third_Party/QuantumLeaps_RTEF_qpc/ports/freertos/qf_port.c ****     // the number of free slots available in the FreeRTOS queue
 255:Middlewares/Third_Party/QuantumLeaps_RTEF_qpc/ports/freertos/qf_port.c ****     uint_fast16_t const nFree =
 417              		.loc 1 255 5 view .LVU77
 256:Middlewares/Third_Party/QuantumLeaps_RTEF_qpc/ports/freertos/qf_port.c ****         (uint_fast16_t)FREERTOS_QUEUE_GET_FREE(me);
 418              		.loc 1 256 24 is_stmt 0 view .LVU78
 419 0014 A823     		movs	r3, #168
 420 0016 E358     		ldr	r3, [r4, r3]
 421 0018 A422     		movs	r2, #164
 422 001a A258     		ldr	r2, [r4, r2]
 255:Middlewares/Third_Party/QuantumLeaps_RTEF_qpc/ports/freertos/qf_port.c ****         (uint_fast16_t)FREERTOS_QUEUE_GET_FREE(me);
 423              		.loc 1 255 25 view .LVU79
 424 001c 9B1A     		subs	r3, r3, r2
 425              	.LVL42:
 257:Middlewares/Third_Party/QuantumLeaps_RTEF_qpc/ports/freertos/qf_port.c **** 
 258:Middlewares/Third_Party/QuantumLeaps_RTEF_qpc/ports/freertos/qf_port.c ****     // required margin available?
 259:Middlewares/Third_Party/QuantumLeaps_RTEF_qpc/ports/freertos/qf_port.c ****     bool status = false; // assume that event cannot be posted
 426              		.loc 1 259 5 is_stmt 1 view .LVU80
 260:Middlewares/Third_Party/QuantumLeaps_RTEF_qpc/ports/freertos/qf_port.c ****     if (margin == QF_NO_MARGIN) {
 427              		.loc 1 260 5 view .LVU81
ARM GAS  C:\Users\main\AppData\Local\Temp\ccGWoVmJ.s 			page 13


 428              		.loc 1 260 8 is_stmt 0 view .LVU82
 429 001e 224A     		ldr	r2, .L42
 430 0020 9542     		cmp	r5, r2
 431 0022 09D0     		beq	.L38
 261:Middlewares/Third_Party/QuantumLeaps_RTEF_qpc/ports/freertos/qf_port.c ****         if (nFree > 0U) { // free entries available in the queue?
 262:Middlewares/Third_Party/QuantumLeaps_RTEF_qpc/ports/freertos/qf_port.c ****             status = true; // can post
 263:Middlewares/Third_Party/QuantumLeaps_RTEF_qpc/ports/freertos/qf_port.c ****         }
 264:Middlewares/Third_Party/QuantumLeaps_RTEF_qpc/ports/freertos/qf_port.c ****         else { // no free entries available
 265:Middlewares/Third_Party/QuantumLeaps_RTEF_qpc/ports/freertos/qf_port.c ****             // The queue overflows, but QF_NO_MARGIN indicates that
 266:Middlewares/Third_Party/QuantumLeaps_RTEF_qpc/ports/freertos/qf_port.c ****             // the "event delivery guarantee" is required.
 267:Middlewares/Third_Party/QuantumLeaps_RTEF_qpc/ports/freertos/qf_port.c ****             Q_ERROR_INCRIT(210); // must be able to post the event
 268:Middlewares/Third_Party/QuantumLeaps_RTEF_qpc/ports/freertos/qf_port.c ****         }
 269:Middlewares/Third_Party/QuantumLeaps_RTEF_qpc/ports/freertos/qf_port.c ****     }
 270:Middlewares/Third_Party/QuantumLeaps_RTEF_qpc/ports/freertos/qf_port.c ****     else if (nFree > (QEQueueCtr)margin) { // enough free entries?
 432              		.loc 1 270 10 is_stmt 1 view .LVU83
 433              		.loc 1 270 13 is_stmt 0 view .LVU84
 434 0024 FF22     		movs	r2, #255
 435 0026 1540     		ands	r5, r2
 436              	.LVL43:
 437              		.loc 1 270 13 view .LVU85
 438 0028 AB42     		cmp	r3, r5
 439 002a 2AD8     		bhi	.L36
 259:Middlewares/Third_Party/QuantumLeaps_RTEF_qpc/ports/freertos/qf_port.c ****     if (margin == QF_NO_MARGIN) {
 440              		.loc 1 259 10 view .LVU86
 441 002c 0025     		movs	r5, #0
 442 002e 06E0     		b	.L29
 443              	.LVL44:
 444              	.L37:
 252:Middlewares/Third_Party/QuantumLeaps_RTEF_qpc/ports/freertos/qf_port.c **** 
 445              		.loc 1 252 5 discriminator 1 view .LVU87
 446 0030 C831     		adds	r1, r1, #200
 447 0032 1E48     		ldr	r0, .L42+4
 448 0034 FFF7FEFF 		bl	Q_onError
 449              	.LVL45:
 450              	.L38:
 261:Middlewares/Third_Party/QuantumLeaps_RTEF_qpc/ports/freertos/qf_port.c ****         if (nFree > 0U) { // free entries available in the queue?
 451              		.loc 1 261 9 is_stmt 1 view .LVU88
 261:Middlewares/Third_Party/QuantumLeaps_RTEF_qpc/ports/freertos/qf_port.c ****         if (nFree > 0U) { // free entries available in the queue?
 452              		.loc 1 261 12 is_stmt 0 view .LVU89
 453 0038 002B     		cmp	r3, #0
 454 003a 1ED0     		beq	.L39
 262:Middlewares/Third_Party/QuantumLeaps_RTEF_qpc/ports/freertos/qf_port.c ****         }
 455              		.loc 1 262 20 view .LVU90
 456 003c 0125     		movs	r5, #1
 457              	.LVL46:
 458              	.L29:
 271:Middlewares/Third_Party/QuantumLeaps_RTEF_qpc/ports/freertos/qf_port.c ****         status = true; // can post
 272:Middlewares/Third_Party/QuantumLeaps_RTEF_qpc/ports/freertos/qf_port.c ****     }
 273:Middlewares/Third_Party/QuantumLeaps_RTEF_qpc/ports/freertos/qf_port.c ****     else {
 274:Middlewares/Third_Party/QuantumLeaps_RTEF_qpc/ports/freertos/qf_port.c ****         // empty
 275:Middlewares/Third_Party/QuantumLeaps_RTEF_qpc/ports/freertos/qf_port.c ****     }
 459              		.loc 1 275 5 is_stmt 1 view .LVU91
 276:Middlewares/Third_Party/QuantumLeaps_RTEF_qpc/ports/freertos/qf_port.c **** 
 277:Middlewares/Third_Party/QuantumLeaps_RTEF_qpc/ports/freertos/qf_port.c **** #if (QF_MAX_EPOOL > 0U)
 278:Middlewares/Third_Party/QuantumLeaps_RTEF_qpc/ports/freertos/qf_port.c ****     if (e->poolNum_ != 0U) { // is it a mutable event?
 460              		.loc 1 278 5 view .LVU92
 461              		.loc 1 278 10 is_stmt 0 view .LVU93
ARM GAS  C:\Users\main\AppData\Local\Temp\ccGWoVmJ.s 			page 14


 462 003e 8B78     		ldrb	r3, [r1, #2]
 463              	.LVL47:
 464              		.loc 1 278 8 view .LVU94
 465 0040 002B     		cmp	r3, #0
 466 0042 07D0     		beq	.L30
 279:Middlewares/Third_Party/QuantumLeaps_RTEF_qpc/ports/freertos/qf_port.c ****         Q_ASSERT_INCRIT(205, e->refCtr_ < (2U * QF_MAX_ACTIVE));
 467              		.loc 1 279 9 is_stmt 1 view .LVU95
 468 0044 CB78     		ldrb	r3, [r1, #3]
 469 0046 DBB2     		uxtb	r3, r3
 470 0048 3F2B     		cmp	r3, #63
 471 004a 1CD8     		bhi	.L40
 280:Middlewares/Third_Party/QuantumLeaps_RTEF_qpc/ports/freertos/qf_port.c ****         QEvt_refCtr_inc_(e); // increment the reference counter
 472              		.loc 1 280 9 view .LVU96
 473              	.LVL48:
 474              	.LBB25:
 475              	.LBI25:
 476              		.file 2 "Middlewares/Third_Party/QuantumLeaps_RTEF_qpc/include/qp_pkg.h"
   1:Middlewares/Third_Party/QuantumLeaps_RTEF_qpc/include/qp_pkg.h **** //============================================================================
   2:Middlewares/Third_Party/QuantumLeaps_RTEF_qpc/include/qp_pkg.h **** // QP/C Real-Time Embedded Framework (RTEF)
   3:Middlewares/Third_Party/QuantumLeaps_RTEF_qpc/include/qp_pkg.h **** // Version 8.0.2
   4:Middlewares/Third_Party/QuantumLeaps_RTEF_qpc/include/qp_pkg.h **** //
   5:Middlewares/Third_Party/QuantumLeaps_RTEF_qpc/include/qp_pkg.h **** // Copyright (C) 2005 Quantum Leaps, LLC. All rights reserved.
   6:Middlewares/Third_Party/QuantumLeaps_RTEF_qpc/include/qp_pkg.h **** //
   7:Middlewares/Third_Party/QuantumLeaps_RTEF_qpc/include/qp_pkg.h **** //                    Q u a n t u m  L e a P s
   8:Middlewares/Third_Party/QuantumLeaps_RTEF_qpc/include/qp_pkg.h **** //                    ------------------------
   9:Middlewares/Third_Party/QuantumLeaps_RTEF_qpc/include/qp_pkg.h **** //                    Modern Embedded Software
  10:Middlewares/Third_Party/QuantumLeaps_RTEF_qpc/include/qp_pkg.h **** //
  11:Middlewares/Third_Party/QuantumLeaps_RTEF_qpc/include/qp_pkg.h **** // SPDX-License-Identifier: GPL-3.0-or-later OR LicenseRef-QL-commercial
  12:Middlewares/Third_Party/QuantumLeaps_RTEF_qpc/include/qp_pkg.h **** //
  13:Middlewares/Third_Party/QuantumLeaps_RTEF_qpc/include/qp_pkg.h **** // This software is dual-licensed under the terms of the open-source GNU
  14:Middlewares/Third_Party/QuantumLeaps_RTEF_qpc/include/qp_pkg.h **** // General Public License (GPL) or under the terms of one of the closed-
  15:Middlewares/Third_Party/QuantumLeaps_RTEF_qpc/include/qp_pkg.h **** // source Quantum Leaps commercial licenses.
  16:Middlewares/Third_Party/QuantumLeaps_RTEF_qpc/include/qp_pkg.h **** //
  17:Middlewares/Third_Party/QuantumLeaps_RTEF_qpc/include/qp_pkg.h **** // Redistributions in source code must retain this top-level comment block.
  18:Middlewares/Third_Party/QuantumLeaps_RTEF_qpc/include/qp_pkg.h **** // Plagiarizing this software to sidestep the license obligations is illegal.
  19:Middlewares/Third_Party/QuantumLeaps_RTEF_qpc/include/qp_pkg.h **** //
  20:Middlewares/Third_Party/QuantumLeaps_RTEF_qpc/include/qp_pkg.h **** // NOTE:
  21:Middlewares/Third_Party/QuantumLeaps_RTEF_qpc/include/qp_pkg.h **** // The GPL does NOT permit the incorporation of this code into proprietary
  22:Middlewares/Third_Party/QuantumLeaps_RTEF_qpc/include/qp_pkg.h **** // programs. Please contact Quantum Leaps for commercial licensing options,
  23:Middlewares/Third_Party/QuantumLeaps_RTEF_qpc/include/qp_pkg.h **** // which expressly supersede the GPL and are designed explicitly for
  24:Middlewares/Third_Party/QuantumLeaps_RTEF_qpc/include/qp_pkg.h **** // closed-source distribution.
  25:Middlewares/Third_Party/QuantumLeaps_RTEF_qpc/include/qp_pkg.h **** //
  26:Middlewares/Third_Party/QuantumLeaps_RTEF_qpc/include/qp_pkg.h **** // Quantum Leaps contact information:
  27:Middlewares/Third_Party/QuantumLeaps_RTEF_qpc/include/qp_pkg.h **** // <www.state-machine.com/licensing>
  28:Middlewares/Third_Party/QuantumLeaps_RTEF_qpc/include/qp_pkg.h **** // <info@state-machine.com>
  29:Middlewares/Third_Party/QuantumLeaps_RTEF_qpc/include/qp_pkg.h **** //============================================================================
  30:Middlewares/Third_Party/QuantumLeaps_RTEF_qpc/include/qp_pkg.h **** #ifndef QP_PKG_H_
  31:Middlewares/Third_Party/QuantumLeaps_RTEF_qpc/include/qp_pkg.h **** #define QP_PKG_H_
  32:Middlewares/Third_Party/QuantumLeaps_RTEF_qpc/include/qp_pkg.h **** 
  33:Middlewares/Third_Party/QuantumLeaps_RTEF_qpc/include/qp_pkg.h **** //============================================================================
  34:Middlewares/Third_Party/QuantumLeaps_RTEF_qpc/include/qp_pkg.h **** #define QACTIVE_CAST_(ptr_)    ((QActive *)(ptr_))
  35:Middlewares/Third_Party/QuantumLeaps_RTEF_qpc/include/qp_pkg.h **** #define Q_PTR2UINT_CAST_(ptr_) ((uintptr_t)(ptr_))
  36:Middlewares/Third_Party/QuantumLeaps_RTEF_qpc/include/qp_pkg.h **** 
  37:Middlewares/Third_Party/QuantumLeaps_RTEF_qpc/include/qp_pkg.h **** //============================================================================
  38:Middlewares/Third_Party/QuantumLeaps_RTEF_qpc/include/qp_pkg.h **** typedef struct {
  39:Middlewares/Third_Party/QuantumLeaps_RTEF_qpc/include/qp_pkg.h **** #if (QF_MAX_EPOOL > 0U)
  40:Middlewares/Third_Party/QuantumLeaps_RTEF_qpc/include/qp_pkg.h ****     QF_EPOOL_TYPE_ ePool_[QF_MAX_EPOOL]; //!< @private @memberof QF_Attr
ARM GAS  C:\Users\main\AppData\Local\Temp\ccGWoVmJ.s 			page 15


  41:Middlewares/Third_Party/QuantumLeaps_RTEF_qpc/include/qp_pkg.h ****     uint_fast8_t maxPool_;               //!< @private @memberof QF_Attr
  42:Middlewares/Third_Party/QuantumLeaps_RTEF_qpc/include/qp_pkg.h **** #else
  43:Middlewares/Third_Party/QuantumLeaps_RTEF_qpc/include/qp_pkg.h ****     uint8_t dummy;                       //!< @private @memberof QF_Attr
  44:Middlewares/Third_Party/QuantumLeaps_RTEF_qpc/include/qp_pkg.h **** #endif //  (QF_MAX_EPOOL == 0U)
  45:Middlewares/Third_Party/QuantumLeaps_RTEF_qpc/include/qp_pkg.h **** } QF_Attr;
  46:Middlewares/Third_Party/QuantumLeaps_RTEF_qpc/include/qp_pkg.h **** 
  47:Middlewares/Third_Party/QuantumLeaps_RTEF_qpc/include/qp_pkg.h **** extern QF_Attr QF_priv_; //!< @static @private @memberof QF
  48:Middlewares/Third_Party/QuantumLeaps_RTEF_qpc/include/qp_pkg.h **** 
  49:Middlewares/Third_Party/QuantumLeaps_RTEF_qpc/include/qp_pkg.h **** //! @static @private @memberof QF
  50:Middlewares/Third_Party/QuantumLeaps_RTEF_qpc/include/qp_pkg.h **** void QF_bzero_(
  51:Middlewares/Third_Party/QuantumLeaps_RTEF_qpc/include/qp_pkg.h ****     void * const start,
  52:Middlewares/Third_Party/QuantumLeaps_RTEF_qpc/include/qp_pkg.h ****     uint_fast16_t const len);
  53:Middlewares/Third_Party/QuantumLeaps_RTEF_qpc/include/qp_pkg.h **** 
  54:Middlewares/Third_Party/QuantumLeaps_RTEF_qpc/include/qp_pkg.h **** //============================================================================
  55:Middlewares/Third_Party/QuantumLeaps_RTEF_qpc/include/qp_pkg.h **** // Bitmasks are for the QTimeEvt::flags attribute
  56:Middlewares/Third_Party/QuantumLeaps_RTEF_qpc/include/qp_pkg.h **** #define QTE_FLAG_IS_LINKED      (1U << 7U)
  57:Middlewares/Third_Party/QuantumLeaps_RTEF_qpc/include/qp_pkg.h **** #define QTE_FLAG_WAS_DISARMED   (1U << 6U)
  58:Middlewares/Third_Party/QuantumLeaps_RTEF_qpc/include/qp_pkg.h **** 
  59:Middlewares/Third_Party/QuantumLeaps_RTEF_qpc/include/qp_pkg.h **** //============================================================================
  60:Middlewares/Third_Party/QuantumLeaps_RTEF_qpc/include/qp_pkg.h **** //! @private @memberof QEvt
  61:Middlewares/Third_Party/QuantumLeaps_RTEF_qpc/include/qp_pkg.h **** static inline void QEvt_refCtr_inc_(QEvt const * const me) {
 477              		.loc 2 61 20 view .LVU97
 478              	.LBB26:
  62:Middlewares/Third_Party/QuantumLeaps_RTEF_qpc/include/qp_pkg.h ****     // NOTE: this function must be called inside a critical section
  63:Middlewares/Third_Party/QuantumLeaps_RTEF_qpc/include/qp_pkg.h ****     uint8_t const rc = me->refCtr_ + 1U;
 479              		.loc 2 63 5 view .LVU98
 480              		.loc 2 63 26 is_stmt 0 view .LVU99
 481 004c CB78     		ldrb	r3, [r1, #3]
 482              		.loc 2 63 19 view .LVU100
 483 004e 0133     		adds	r3, r3, #1
 484 0050 DBB2     		uxtb	r3, r3
 485              	.LVL49:
  64:Middlewares/Third_Party/QuantumLeaps_RTEF_qpc/include/qp_pkg.h ****     ((QEvt *)me)->refCtr_ = rc; // cast away 'const'
 486              		.loc 2 64 5 is_stmt 1 view .LVU101
 487              		.loc 2 64 27 is_stmt 0 view .LVU102
 488 0052 CB70     		strb	r3, [r1, #3]
 489              	.LVL50:
 490              	.L30:
 491              		.loc 2 64 27 view .LVU103
 492              	.LBE26:
 493              	.LBE25:
 281:Middlewares/Third_Party/QuantumLeaps_RTEF_qpc/ports/freertos/qf_port.c ****     }
 282:Middlewares/Third_Party/QuantumLeaps_RTEF_qpc/ports/freertos/qf_port.c **** #endif // (QF_MAX_EPOOL > 0U)
 283:Middlewares/Third_Party/QuantumLeaps_RTEF_qpc/ports/freertos/qf_port.c **** 
 284:Middlewares/Third_Party/QuantumLeaps_RTEF_qpc/ports/freertos/qf_port.c ****     if (status) { // can post the event?
 494              		.loc 1 284 5 is_stmt 1 view .LVU104
 495              		.loc 1 284 8 is_stmt 0 view .LVU105
 496 0054 002D     		cmp	r5, #0
 497 0056 1ED0     		beq	.L32
 498              	.LBB27:
 285:Middlewares/Third_Party/QuantumLeaps_RTEF_qpc/ports/freertos/qf_port.c ****         QS_BEGIN_PRE(QS_QF_ACTIVE_POST, me->prio)
 499              		.loc 1 285 9 is_stmt 1 view .LVU106
 286:Middlewares/Third_Party/QuantumLeaps_RTEF_qpc/ports/freertos/qf_port.c ****             QS_TIME_PRE();        // timestamp
 500              		.loc 1 286 13 view .LVU107
 287:Middlewares/Third_Party/QuantumLeaps_RTEF_qpc/ports/freertos/qf_port.c ****             QS_OBJ_PRE(sender);   // the sender object
 501              		.loc 1 287 13 view .LVU108
 288:Middlewares/Third_Party/QuantumLeaps_RTEF_qpc/ports/freertos/qf_port.c ****             QS_SIG_PRE(e->sig);   // the signal of the event
ARM GAS  C:\Users\main\AppData\Local\Temp\ccGWoVmJ.s 			page 16


 502              		.loc 1 288 13 view .LVU109
 289:Middlewares/Third_Party/QuantumLeaps_RTEF_qpc/ports/freertos/qf_port.c ****             QS_OBJ_PRE(me);       // this active object (recipient)
 503              		.loc 1 289 13 view .LVU110
 290:Middlewares/Third_Party/QuantumLeaps_RTEF_qpc/ports/freertos/qf_port.c ****             QS_2U8_PRE(e->poolNum_, e->refCtr_);
 504              		.loc 1 290 13 view .LVU111
 291:Middlewares/Third_Party/QuantumLeaps_RTEF_qpc/ports/freertos/qf_port.c ****             QS_EQC_PRE((QEQueueCtr)nFree); // # free entries
 505              		.loc 1 291 13 view .LVU112
 292:Middlewares/Third_Party/QuantumLeaps_RTEF_qpc/ports/freertos/qf_port.c ****             QS_EQC_PRE(0U);       // min # free entries (unknown)
 506              		.loc 1 292 13 view .LVU113
 293:Middlewares/Third_Party/QuantumLeaps_RTEF_qpc/ports/freertos/qf_port.c ****         QS_END_PRE()
 294:Middlewares/Third_Party/QuantumLeaps_RTEF_qpc/ports/freertos/qf_port.c **** 
 295:Middlewares/Third_Party/QuantumLeaps_RTEF_qpc/ports/freertos/qf_port.c ****         QF_CRIT_EXIT();
 507              		.loc 1 295 9 view .LVU114
 508 0058 FFF7FEFF 		bl	vPortExitCritical
 509              	.LVL51:
 296:Middlewares/Third_Party/QuantumLeaps_RTEF_qpc/ports/freertos/qf_port.c **** 
 297:Middlewares/Third_Party/QuantumLeaps_RTEF_qpc/ports/freertos/qf_port.c ****         BaseType_t err = xQueueSendToBack(
 510              		.loc 1 297 9 view .LVU115
 511              		.loc 1 297 26 is_stmt 0 view .LVU116
 512 005c BC23     		movs	r3, #188
 513 005e E058     		ldr	r0, [r4, r3]
 514 0060 0023     		movs	r3, #0
 515 0062 0022     		movs	r2, #0
 516 0064 01A9     		add	r1, sp, #4
 517 0066 FFF7FEFF 		bl	xQueueGenericSend
 518              	.LVL52:
 519 006a 0400     		movs	r4, r0
 520              	.LVL53:
 298:Middlewares/Third_Party/QuantumLeaps_RTEF_qpc/ports/freertos/qf_port.c ****                              me->eQueue, (void const *)&e, (TickType_t)0);
 299:Middlewares/Third_Party/QuantumLeaps_RTEF_qpc/ports/freertos/qf_port.c **** 
 300:Middlewares/Third_Party/QuantumLeaps_RTEF_qpc/ports/freertos/qf_port.c ****         QF_CRIT_ENTRY();
 521              		.loc 1 300 9 is_stmt 1 view .LVU117
 522 006c FFF7FEFF 		bl	vPortEnterCritical
 523              	.LVL54:
 301:Middlewares/Third_Party/QuantumLeaps_RTEF_qpc/ports/freertos/qf_port.c ****         // posting to the FreeRTOS message queue must succeed, see NOTE3
 302:Middlewares/Third_Party/QuantumLeaps_RTEF_qpc/ports/freertos/qf_port.c ****         Q_ASSERT_INCRIT(220, err == pdPASS);
 524              		.loc 1 302 9 view .LVU118
 525 0070 012C     		cmp	r4, #1
 526 0072 0CD1     		bne	.L41
 303:Middlewares/Third_Party/QuantumLeaps_RTEF_qpc/ports/freertos/qf_port.c ****         QF_CRIT_EXIT();
 527              		.loc 1 303 9 view .LVU119
 528 0074 FFF7FEFF 		bl	vPortExitCritical
 529              	.LVL55:
 530              	.LBE27:
 531 0078 12E0     		b	.L34
 532              	.LVL56:
 533              	.L39:
 267:Middlewares/Third_Party/QuantumLeaps_RTEF_qpc/ports/freertos/qf_port.c ****         }
 534              		.loc 1 267 13 view .LVU120
 535 007a D221     		movs	r1, #210
 536 007c 0B48     		ldr	r0, .L42+4
 537 007e FFF7FEFF 		bl	Q_onError
 538              	.LVL57:
 539              	.L36:
 271:Middlewares/Third_Party/QuantumLeaps_RTEF_qpc/ports/freertos/qf_port.c ****     }
 540              		.loc 1 271 16 is_stmt 0 view .LVU121
 541 0082 0125     		movs	r5, #1
ARM GAS  C:\Users\main\AppData\Local\Temp\ccGWoVmJ.s 			page 17


 542 0084 DBE7     		b	.L29
 543              	.LVL58:
 544              	.L40:
 279:Middlewares/Third_Party/QuantumLeaps_RTEF_qpc/ports/freertos/qf_port.c ****         QEvt_refCtr_inc_(e); // increment the reference counter
 545              		.loc 1 279 9 discriminator 1 view .LVU122
 546 0086 CD21     		movs	r1, #205
 547 0088 0848     		ldr	r0, .L42+4
 548 008a FFF7FEFF 		bl	Q_onError
 549              	.LVL59:
 550              	.L41:
 551              	.LBB28:
 302:Middlewares/Third_Party/QuantumLeaps_RTEF_qpc/ports/freertos/qf_port.c ****         QF_CRIT_EXIT();
 552              		.loc 1 302 9 discriminator 1 view .LVU123
 553 008e DC21     		movs	r1, #220
 554 0090 0648     		ldr	r0, .L42+4
 555 0092 FFF7FEFF 		bl	Q_onError
 556              	.LVL60:
 557              	.L32:
 302:Middlewares/Third_Party/QuantumLeaps_RTEF_qpc/ports/freertos/qf_port.c ****         QF_CRIT_EXIT();
 558              		.loc 1 302 9 discriminator 1 view .LVU124
 559              	.LBE28:
 304:Middlewares/Third_Party/QuantumLeaps_RTEF_qpc/ports/freertos/qf_port.c **** 
 305:Middlewares/Third_Party/QuantumLeaps_RTEF_qpc/ports/freertos/qf_port.c **** #ifdef Q_UNSAFE
 306:Middlewares/Third_Party/QuantumLeaps_RTEF_qpc/ports/freertos/qf_port.c ****         Q_UNUSED_PAR(err);
 307:Middlewares/Third_Party/QuantumLeaps_RTEF_qpc/ports/freertos/qf_port.c **** #endif
 308:Middlewares/Third_Party/QuantumLeaps_RTEF_qpc/ports/freertos/qf_port.c ****     }
 309:Middlewares/Third_Party/QuantumLeaps_RTEF_qpc/ports/freertos/qf_port.c ****     else { // event cannot be posted
 310:Middlewares/Third_Party/QuantumLeaps_RTEF_qpc/ports/freertos/qf_port.c ****         QS_BEGIN_PRE(QS_QF_ACTIVE_POST_ATTEMPT, me->prio)
 560              		.loc 1 310 9 is_stmt 1 view .LVU125
 311:Middlewares/Third_Party/QuantumLeaps_RTEF_qpc/ports/freertos/qf_port.c ****             QS_TIME_PRE();       // timestamp
 561              		.loc 1 311 13 view .LVU126
 312:Middlewares/Third_Party/QuantumLeaps_RTEF_qpc/ports/freertos/qf_port.c ****             QS_OBJ_PRE(sender);  // the sender object
 562              		.loc 1 312 13 view .LVU127
 313:Middlewares/Third_Party/QuantumLeaps_RTEF_qpc/ports/freertos/qf_port.c ****             QS_SIG_PRE(e->sig);  // the signal of the event
 563              		.loc 1 313 13 view .LVU128
 314:Middlewares/Third_Party/QuantumLeaps_RTEF_qpc/ports/freertos/qf_port.c ****             QS_OBJ_PRE(me);      // this active object (recipient)
 564              		.loc 1 314 13 view .LVU129
 315:Middlewares/Third_Party/QuantumLeaps_RTEF_qpc/ports/freertos/qf_port.c ****             QS_2U8_PRE(e->poolNum_, e->refCtr_);
 565              		.loc 1 315 13 view .LVU130
 316:Middlewares/Third_Party/QuantumLeaps_RTEF_qpc/ports/freertos/qf_port.c ****             QS_EQC_PRE(nFree);   // # free entries
 566              		.loc 1 316 13 view .LVU131
 317:Middlewares/Third_Party/QuantumLeaps_RTEF_qpc/ports/freertos/qf_port.c ****             QS_EQC_PRE(margin);  // margin requested
 567              		.loc 1 317 13 view .LVU132
 318:Middlewares/Third_Party/QuantumLeaps_RTEF_qpc/ports/freertos/qf_port.c ****         QS_END_PRE()
 319:Middlewares/Third_Party/QuantumLeaps_RTEF_qpc/ports/freertos/qf_port.c **** 
 320:Middlewares/Third_Party/QuantumLeaps_RTEF_qpc/ports/freertos/qf_port.c ****         QF_CRIT_EXIT();
 568              		.loc 1 320 9 view .LVU133
 569 0096 FFF7FEFF 		bl	vPortExitCritical
 570              	.LVL61:
 321:Middlewares/Third_Party/QuantumLeaps_RTEF_qpc/ports/freertos/qf_port.c **** 
 322:Middlewares/Third_Party/QuantumLeaps_RTEF_qpc/ports/freertos/qf_port.c **** #if (QF_MAX_EPOOL > 0U)
 323:Middlewares/Third_Party/QuantumLeaps_RTEF_qpc/ports/freertos/qf_port.c ****         QF_gc(e); // recycle the event to avoid a leak
 571              		.loc 1 323 9 view .LVU134
 572 009a 0198     		ldr	r0, [sp, #4]
 573 009c FFF7FEFF 		bl	QF_gc
 574              	.LVL62:
 575              	.L34:
ARM GAS  C:\Users\main\AppData\Local\Temp\ccGWoVmJ.s 			page 18


 324:Middlewares/Third_Party/QuantumLeaps_RTEF_qpc/ports/freertos/qf_port.c **** #endif // (QF_MAX_EPOOL > 0U)
 325:Middlewares/Third_Party/QuantumLeaps_RTEF_qpc/ports/freertos/qf_port.c ****     }
 326:Middlewares/Third_Party/QuantumLeaps_RTEF_qpc/ports/freertos/qf_port.c **** 
 327:Middlewares/Third_Party/QuantumLeaps_RTEF_qpc/ports/freertos/qf_port.c ****     return status;
 576              		.loc 1 327 5 view .LVU135
 328:Middlewares/Third_Party/QuantumLeaps_RTEF_qpc/ports/freertos/qf_port.c **** }
 577              		.loc 1 328 1 is_stmt 0 view .LVU136
 578 00a0 2800     		movs	r0, r5
 579 00a2 03B0     		add	sp, sp, #12
 580              		@ sp needed
 581              	.LVL63:
 582              		.loc 1 328 1 view .LVU137
 583 00a4 30BD     		pop	{r4, r5, pc}
 584              	.L43:
 585 00a6 C046     		.align	2
 586              	.L42:
 587 00a8 FFFF0000 		.word	65535
 588 00ac 00000000 		.word	.LANCHOR0
 589              		.cfi_endproc
 590              	.LFE24:
 592              		.section	.text.QActive_postLIFO_,"ax",%progbits
 593              		.align	1
 594              		.global	QActive_postLIFO_
 595              		.syntax unified
 596              		.code	16
 597              		.thumb_func
 599              	QActive_postLIFO_:
 600              	.LVL64:
 601              	.LFB25:
 329:Middlewares/Third_Party/QuantumLeaps_RTEF_qpc/ports/freertos/qf_port.c **** 
 330:Middlewares/Third_Party/QuantumLeaps_RTEF_qpc/ports/freertos/qf_port.c **** //............................................................................
 331:Middlewares/Third_Party/QuantumLeaps_RTEF_qpc/ports/freertos/qf_port.c **** void QActive_postLIFO_(QActive * const me, QEvt const * const e) {
 602              		.loc 1 331 66 is_stmt 1 view -0
 603              		.cfi_startproc
 604              		@ args = 0, pretend = 0, frame = 8
 605              		@ frame_needed = 0, uses_anonymous_args = 0
 606              		.loc 1 331 66 is_stmt 0 view .LVU139
 607 0000 10B5     		push	{r4, lr}
 608              	.LCFI8:
 609              		.cfi_def_cfa_offset 8
 610              		.cfi_offset 4, -8
 611              		.cfi_offset 14, -4
 612 0002 82B0     		sub	sp, sp, #8
 613              	.LCFI9:
 614              		.cfi_def_cfa_offset 16
 615 0004 0400     		movs	r4, r0
 616 0006 0191     		str	r1, [sp, #4]
 332:Middlewares/Third_Party/QuantumLeaps_RTEF_qpc/ports/freertos/qf_port.c ****     QF_CRIT_STAT
 333:Middlewares/Third_Party/QuantumLeaps_RTEF_qpc/ports/freertos/qf_port.c ****     QF_CRIT_ENTRY();
 617              		.loc 1 333 5 is_stmt 1 view .LVU140
 618 0008 FFF7FEFF 		bl	vPortEnterCritical
 619              	.LVL65:
 334:Middlewares/Third_Party/QuantumLeaps_RTEF_qpc/ports/freertos/qf_port.c **** 
 335:Middlewares/Third_Party/QuantumLeaps_RTEF_qpc/ports/freertos/qf_port.c ****     // the posted event must be be valid (which includes not NULL)
 336:Middlewares/Third_Party/QuantumLeaps_RTEF_qpc/ports/freertos/qf_port.c ****     Q_REQUIRE_INCRIT(300, e != (QEvt *)0);
 620              		.loc 1 336 5 view .LVU141
 621 000c 019B     		ldr	r3, [sp, #4]
ARM GAS  C:\Users\main\AppData\Local\Temp\ccGWoVmJ.s 			page 19


 622 000e 002B     		cmp	r3, #0
 623 0010 1CD0     		beq	.L49
 337:Middlewares/Third_Party/QuantumLeaps_RTEF_qpc/ports/freertos/qf_port.c **** 
 338:Middlewares/Third_Party/QuantumLeaps_RTEF_qpc/ports/freertos/qf_port.c **** #if (QF_MAX_EPOOL > 0U)
 339:Middlewares/Third_Party/QuantumLeaps_RTEF_qpc/ports/freertos/qf_port.c ****     if (e->poolNum_ != 0U) { // is it a mutable event?
 624              		.loc 1 339 5 view .LVU142
 625              		.loc 1 339 10 is_stmt 0 view .LVU143
 626 0012 9A78     		ldrb	r2, [r3, #2]
 627              		.loc 1 339 8 view .LVU144
 628 0014 002A     		cmp	r2, #0
 629 0016 07D0     		beq	.L46
 340:Middlewares/Third_Party/QuantumLeaps_RTEF_qpc/ports/freertos/qf_port.c ****         Q_ASSERT_INCRIT(305, e->refCtr_ < (2U * QF_MAX_ACTIVE));
 630              		.loc 1 340 9 is_stmt 1 view .LVU145
 631 0018 DA78     		ldrb	r2, [r3, #3]
 632 001a D2B2     		uxtb	r2, r2
 633 001c 3F2A     		cmp	r2, #63
 634 001e 1AD8     		bhi	.L50
 341:Middlewares/Third_Party/QuantumLeaps_RTEF_qpc/ports/freertos/qf_port.c ****         QEvt_refCtr_inc_(e); // increment the reference counter
 635              		.loc 1 341 9 view .LVU146
 636              	.LVL66:
 637              	.LBB29:
 638              	.LBI29:
  61:Middlewares/Third_Party/QuantumLeaps_RTEF_qpc/include/qp_pkg.h ****     // NOTE: this function must be called inside a critical section
 639              		.loc 2 61 20 view .LVU147
 640              	.LBB30:
  63:Middlewares/Third_Party/QuantumLeaps_RTEF_qpc/include/qp_pkg.h ****     ((QEvt *)me)->refCtr_ = rc; // cast away 'const'
 641              		.loc 2 63 5 view .LVU148
  63:Middlewares/Third_Party/QuantumLeaps_RTEF_qpc/include/qp_pkg.h ****     ((QEvt *)me)->refCtr_ = rc; // cast away 'const'
 642              		.loc 2 63 26 is_stmt 0 view .LVU149
 643 0020 DA78     		ldrb	r2, [r3, #3]
  63:Middlewares/Third_Party/QuantumLeaps_RTEF_qpc/include/qp_pkg.h ****     ((QEvt *)me)->refCtr_ = rc; // cast away 'const'
 644              		.loc 2 63 19 view .LVU150
 645 0022 0132     		adds	r2, r2, #1
 646 0024 D2B2     		uxtb	r2, r2
 647              	.LVL67:
 648              		.loc 2 64 5 is_stmt 1 view .LVU151
 649              		.loc 2 64 27 is_stmt 0 view .LVU152
 650 0026 DA70     		strb	r2, [r3, #3]
 651              	.LVL68:
 652              	.L46:
 653              		.loc 2 64 27 view .LVU153
 654              	.LBE30:
 655              	.LBE29:
 342:Middlewares/Third_Party/QuantumLeaps_RTEF_qpc/ports/freertos/qf_port.c ****     }
 343:Middlewares/Third_Party/QuantumLeaps_RTEF_qpc/ports/freertos/qf_port.c **** #endif // (QF_MAX_EPOOL > 0U)
 344:Middlewares/Third_Party/QuantumLeaps_RTEF_qpc/ports/freertos/qf_port.c **** 
 345:Middlewares/Third_Party/QuantumLeaps_RTEF_qpc/ports/freertos/qf_port.c ****     QS_BEGIN_PRE(QS_QF_ACTIVE_POST_LIFO, me->prio)
 656              		.loc 1 345 5 is_stmt 1 view .LVU154
 346:Middlewares/Third_Party/QuantumLeaps_RTEF_qpc/ports/freertos/qf_port.c ****         QS_TIME_PRE();       // timestamp
 657              		.loc 1 346 9 view .LVU155
 347:Middlewares/Third_Party/QuantumLeaps_RTEF_qpc/ports/freertos/qf_port.c ****         QS_SIG_PRE(e->sig);  // the signal of this event
 658              		.loc 1 347 9 view .LVU156
 348:Middlewares/Third_Party/QuantumLeaps_RTEF_qpc/ports/freertos/qf_port.c ****         QS_OBJ_PRE(me);      // this active object
 659              		.loc 1 348 9 view .LVU157
 349:Middlewares/Third_Party/QuantumLeaps_RTEF_qpc/ports/freertos/qf_port.c ****         QS_2U8_PRE(e->poolNum_, e->refCtr_);
 660              		.loc 1 349 9 view .LVU158
 350:Middlewares/Third_Party/QuantumLeaps_RTEF_qpc/ports/freertos/qf_port.c ****         QS_EQC_PRE((QEQueueCtr)FREERTOS_QUEUE_GET_FREE(me)); // # free
ARM GAS  C:\Users\main\AppData\Local\Temp\ccGWoVmJ.s 			page 20


 661              		.loc 1 350 9 view .LVU159
 351:Middlewares/Third_Party/QuantumLeaps_RTEF_qpc/ports/freertos/qf_port.c ****         QS_EQC_PRE(0U);      // min # free entries (unknown)
 662              		.loc 1 351 9 view .LVU160
 352:Middlewares/Third_Party/QuantumLeaps_RTEF_qpc/ports/freertos/qf_port.c ****     QS_END_PRE()
 353:Middlewares/Third_Party/QuantumLeaps_RTEF_qpc/ports/freertos/qf_port.c **** 
 354:Middlewares/Third_Party/QuantumLeaps_RTEF_qpc/ports/freertos/qf_port.c ****     QF_CRIT_EXIT();
 663              		.loc 1 354 5 view .LVU161
 664 0028 FFF7FEFF 		bl	vPortExitCritical
 665              	.LVL69:
 355:Middlewares/Third_Party/QuantumLeaps_RTEF_qpc/ports/freertos/qf_port.c **** 
 356:Middlewares/Third_Party/QuantumLeaps_RTEF_qpc/ports/freertos/qf_port.c ****     BaseType_t err = xQueueSendToFront(
 666              		.loc 1 356 5 view .LVU162
 667              		.loc 1 356 22 is_stmt 0 view .LVU163
 668 002c BC23     		movs	r3, #188
 669 002e E058     		ldr	r0, [r4, r3]
 670 0030 BB3B     		subs	r3, r3, #187
 671 0032 0022     		movs	r2, #0
 672 0034 01A9     		add	r1, sp, #4
 673 0036 FFF7FEFF 		bl	xQueueGenericSend
 674              	.LVL70:
 675 003a 0400     		movs	r4, r0
 676              	.LVL71:
 357:Middlewares/Third_Party/QuantumLeaps_RTEF_qpc/ports/freertos/qf_port.c ****                          me->eQueue, (void const *)&e, (TickType_t)0);
 358:Middlewares/Third_Party/QuantumLeaps_RTEF_qpc/ports/freertos/qf_port.c **** 
 359:Middlewares/Third_Party/QuantumLeaps_RTEF_qpc/ports/freertos/qf_port.c ****     QF_CRIT_ENTRY();
 677              		.loc 1 359 5 is_stmt 1 view .LVU164
 678 003c FFF7FEFF 		bl	vPortEnterCritical
 679              	.LVL72:
 360:Middlewares/Third_Party/QuantumLeaps_RTEF_qpc/ports/freertos/qf_port.c ****     // LIFO posting to the FreeRTOS queue must succeed, see NOTE3
 361:Middlewares/Third_Party/QuantumLeaps_RTEF_qpc/ports/freertos/qf_port.c ****     Q_ASSERT_INCRIT(320, err == pdPASS);
 680              		.loc 1 361 5 view .LVU165
 681 0040 012C     		cmp	r4, #1
 682 0042 0DD1     		bne	.L51
 362:Middlewares/Third_Party/QuantumLeaps_RTEF_qpc/ports/freertos/qf_port.c ****     QF_CRIT_EXIT();
 683              		.loc 1 362 5 view .LVU166
 684 0044 FFF7FEFF 		bl	vPortExitCritical
 685              	.LVL73:
 363:Middlewares/Third_Party/QuantumLeaps_RTEF_qpc/ports/freertos/qf_port.c **** 
 364:Middlewares/Third_Party/QuantumLeaps_RTEF_qpc/ports/freertos/qf_port.c **** #ifdef Q_UNSAFE
 365:Middlewares/Third_Party/QuantumLeaps_RTEF_qpc/ports/freertos/qf_port.c ****     Q_UNUSED_PAR(err);
 366:Middlewares/Third_Party/QuantumLeaps_RTEF_qpc/ports/freertos/qf_port.c **** #endif
 367:Middlewares/Third_Party/QuantumLeaps_RTEF_qpc/ports/freertos/qf_port.c **** }
 686              		.loc 1 367 1 is_stmt 0 view .LVU167
 687 0048 02B0     		add	sp, sp, #8
 688              		@ sp needed
 689              	.LVL74:
 690              		.loc 1 367 1 view .LVU168
 691 004a 10BD     		pop	{r4, pc}
 692              	.LVL75:
 693              	.L49:
 336:Middlewares/Third_Party/QuantumLeaps_RTEF_qpc/ports/freertos/qf_port.c **** 
 694              		.loc 1 336 5 discriminator 1 view .LVU169
 695 004c 9621     		movs	r1, #150
 696 004e 4900     		lsls	r1, r1, #1
 697 0050 0648     		ldr	r0, .L52
 698 0052 FFF7FEFF 		bl	Q_onError
 699              	.LVL76:
ARM GAS  C:\Users\main\AppData\Local\Temp\ccGWoVmJ.s 			page 21


 700              	.L50:
 340:Middlewares/Third_Party/QuantumLeaps_RTEF_qpc/ports/freertos/qf_port.c ****         QEvt_refCtr_inc_(e); // increment the reference counter
 701              		.loc 1 340 9 discriminator 1 view .LVU170
 702 0056 3221     		movs	r1, #50
 703 0058 FF31     		adds	r1, r1, #255
 704 005a 0448     		ldr	r0, .L52
 705 005c FFF7FEFF 		bl	Q_onError
 706              	.LVL77:
 707              	.L51:
 361:Middlewares/Third_Party/QuantumLeaps_RTEF_qpc/ports/freertos/qf_port.c ****     QF_CRIT_EXIT();
 708              		.loc 1 361 5 discriminator 1 view .LVU171
 709 0060 A021     		movs	r1, #160
 710 0062 4900     		lsls	r1, r1, #1
 711 0064 0148     		ldr	r0, .L52
 712 0066 FFF7FEFF 		bl	Q_onError
 713              	.LVL78:
 714              	.L53:
 715 006a C046     		.align	2
 716              	.L52:
 717 006c 00000000 		.word	.LANCHOR0
 718              		.cfi_endproc
 719              	.LFE25:
 721              		.section	.text.QActive_get_,"ax",%progbits
 722              		.align	1
 723              		.global	QActive_get_
 724              		.syntax unified
 725              		.code	16
 726              		.thumb_func
 728              	QActive_get_:
 729              	.LVL79:
 730              	.LFB26:
 368:Middlewares/Third_Party/QuantumLeaps_RTEF_qpc/ports/freertos/qf_port.c **** //............................................................................
 369:Middlewares/Third_Party/QuantumLeaps_RTEF_qpc/ports/freertos/qf_port.c **** QEvt const *QActive_get_(QActive * const me) {
 731              		.loc 1 369 46 is_stmt 1 view -0
 732              		.cfi_startproc
 733              		@ args = 0, pretend = 0, frame = 8
 734              		@ frame_needed = 0, uses_anonymous_args = 0
 735              		.loc 1 369 46 is_stmt 0 view .LVU173
 736 0000 00B5     		push	{lr}
 737              	.LCFI10:
 738              		.cfi_def_cfa_offset 4
 739              		.cfi_offset 14, -4
 740 0002 83B0     		sub	sp, sp, #12
 741              	.LCFI11:
 742              		.cfi_def_cfa_offset 16
 370:Middlewares/Third_Party/QuantumLeaps_RTEF_qpc/ports/freertos/qf_port.c ****     QEvtPtr e;
 743              		.loc 1 370 5 is_stmt 1 view .LVU174
 371:Middlewares/Third_Party/QuantumLeaps_RTEF_qpc/ports/freertos/qf_port.c ****     xQueueReceive(me->eQueue, (void *)&e, portMAX_DELAY);
 744              		.loc 1 371 5 view .LVU175
 745 0004 0122     		movs	r2, #1
 746 0006 BC23     		movs	r3, #188
 747 0008 C058     		ldr	r0, [r0, r3]
 748              	.LVL80:
 749              		.loc 1 371 5 is_stmt 0 view .LVU176
 750 000a 5242     		rsbs	r2, r2, #0
 751 000c 01A9     		add	r1, sp, #4
 752 000e FFF7FEFF 		bl	xQueueReceive
ARM GAS  C:\Users\main\AppData\Local\Temp\ccGWoVmJ.s 			page 22


 753              	.LVL81:
 372:Middlewares/Third_Party/QuantumLeaps_RTEF_qpc/ports/freertos/qf_port.c **** 
 373:Middlewares/Third_Party/QuantumLeaps_RTEF_qpc/ports/freertos/qf_port.c ****     QS_CRIT_STAT
 374:Middlewares/Third_Party/QuantumLeaps_RTEF_qpc/ports/freertos/qf_port.c ****     QS_CRIT_ENTRY();
 754              		.loc 1 374 5 is_stmt 1 view .LVU177
 375:Middlewares/Third_Party/QuantumLeaps_RTEF_qpc/ports/freertos/qf_port.c ****     QS_BEGIN_PRE(QS_QF_ACTIVE_GET, me->prio)
 755              		.loc 1 375 5 view .LVU178
 376:Middlewares/Third_Party/QuantumLeaps_RTEF_qpc/ports/freertos/qf_port.c ****         QS_TIME_PRE();          // timestamp
 756              		.loc 1 376 9 view .LVU179
 377:Middlewares/Third_Party/QuantumLeaps_RTEF_qpc/ports/freertos/qf_port.c ****         QS_SIG_PRE(e->sig);     // the signal of this event
 757              		.loc 1 377 9 view .LVU180
 378:Middlewares/Third_Party/QuantumLeaps_RTEF_qpc/ports/freertos/qf_port.c ****         QS_OBJ_PRE(me);         // this active object
 758              		.loc 1 378 9 view .LVU181
 379:Middlewares/Third_Party/QuantumLeaps_RTEF_qpc/ports/freertos/qf_port.c ****         QS_2U8_PRE(e->poolNum_, e->refCtr_);
 759              		.loc 1 379 9 view .LVU182
 380:Middlewares/Third_Party/QuantumLeaps_RTEF_qpc/ports/freertos/qf_port.c ****         QS_EQC_PRE((QEQueueCtr)FREERTOS_QUEUE_GET_FREE(me)); // # free
 760              		.loc 1 380 9 view .LVU183
 381:Middlewares/Third_Party/QuantumLeaps_RTEF_qpc/ports/freertos/qf_port.c ****     QS_END_PRE()
 382:Middlewares/Third_Party/QuantumLeaps_RTEF_qpc/ports/freertos/qf_port.c ****     QS_CRIT_EXIT();
 761              		.loc 1 382 5 view .LVU184
 383:Middlewares/Third_Party/QuantumLeaps_RTEF_qpc/ports/freertos/qf_port.c **** 
 384:Middlewares/Third_Party/QuantumLeaps_RTEF_qpc/ports/freertos/qf_port.c ****     return e;
 762              		.loc 1 384 5 view .LVU185
 385:Middlewares/Third_Party/QuantumLeaps_RTEF_qpc/ports/freertos/qf_port.c **** }
 763              		.loc 1 385 1 is_stmt 0 view .LVU186
 764 0012 0198     		ldr	r0, [sp, #4]
 765 0014 03B0     		add	sp, sp, #12
 766              		@ sp needed
 767 0016 00BD     		pop	{pc}
 768              		.cfi_endproc
 769              	.LFE26:
 771              		.section	.text.task_function,"ax",%progbits
 772              		.align	1
 773              		.syntax unified
 774              		.code	16
 775              		.thumb_func
 777              	task_function:
 778              	.LVL82:
 779              	.LFB21:
 108:Middlewares/Third_Party/QuantumLeaps_RTEF_qpc/ports/freertos/qf_port.c ****     QActive *act = (QActive *)pvParameters;
 780              		.loc 1 108 47 is_stmt 1 view -0
 781              		.cfi_startproc
 782              		@ args = 0, pretend = 0, frame = 0
 783              		@ frame_needed = 0, uses_anonymous_args = 0
 108:Middlewares/Third_Party/QuantumLeaps_RTEF_qpc/ports/freertos/qf_port.c ****     QActive *act = (QActive *)pvParameters;
 784              		.loc 1 108 47 is_stmt 0 view .LVU188
 785 0000 70B5     		push	{r4, r5, r6, lr}
 786              	.LCFI12:
 787              		.cfi_def_cfa_offset 16
 788              		.cfi_offset 4, -16
 789              		.cfi_offset 5, -12
 790              		.cfi_offset 6, -8
 791              		.cfi_offset 14, -4
 792 0002 0500     		movs	r5, r0
 109:Middlewares/Third_Party/QuantumLeaps_RTEF_qpc/ports/freertos/qf_port.c **** 
 793              		.loc 1 109 5 is_stmt 1 view .LVU189
 794              	.LVL83:
ARM GAS  C:\Users\main\AppData\Local\Temp\ccGWoVmJ.s 			page 23


 795              	.L56:
 114:Middlewares/Third_Party/QuantumLeaps_RTEF_qpc/ports/freertos/qf_port.c **** #endif
 796              		.loc 1 114 5 discriminator 1 view .LVU190
 797              	.LBB31:
 117:Middlewares/Third_Party/QuantumLeaps_RTEF_qpc/ports/freertos/qf_port.c ****         QASM_DISPATCH(&act->super, e, act->prio); // dispatch to the SM
 798              		.loc 1 117 9 discriminator 1 view .LVU191
 117:Middlewares/Third_Party/QuantumLeaps_RTEF_qpc/ports/freertos/qf_port.c ****         QASM_DISPATCH(&act->super, e, act->prio); // dispatch to the SM
 799              		.loc 1 117 25 is_stmt 0 discriminator 1 view .LVU192
 800 0004 2800     		movs	r0, r5
 801 0006 FFF7FEFF 		bl	QActive_get_
 802              	.LVL84:
 803 000a 0400     		movs	r4, r0
 804              	.LVL85:
 118:Middlewares/Third_Party/QuantumLeaps_RTEF_qpc/ports/freertos/qf_port.c ****         QF_gc(e); // check if the event is garbage, and collect it if so
 805              		.loc 1 118 9 is_stmt 1 discriminator 1 view .LVU193
 806 000c 2B68     		ldr	r3, [r5]
 807 000e 5B68     		ldr	r3, [r3, #4]
 808 0010 0022     		movs	r2, #0
 809 0012 0100     		movs	r1, r0
 810 0014 2800     		movs	r0, r5
 811              	.LVL86:
 118:Middlewares/Third_Party/QuantumLeaps_RTEF_qpc/ports/freertos/qf_port.c ****         QF_gc(e); // check if the event is garbage, and collect it if so
 812              		.loc 1 118 9 is_stmt 0 discriminator 1 view .LVU194
 813 0016 9847     		blx	r3
 814              	.LVL87:
 119:Middlewares/Third_Party/QuantumLeaps_RTEF_qpc/ports/freertos/qf_port.c ****     }
 815              		.loc 1 119 9 is_stmt 1 discriminator 1 view .LVU195
 816 0018 2000     		movs	r0, r4
 817 001a FFF7FEFF 		bl	QF_gc
 818              	.LVL88:
 819              	.LBE31:
 114:Middlewares/Third_Party/QuantumLeaps_RTEF_qpc/ports/freertos/qf_port.c **** #endif
 820              		.loc 1 114 11 discriminator 1 view .LVU196
 821 001e F1E7     		b	.L56
 822              		.cfi_endproc
 823              	.LFE21:
 825              		.section	.text.QMPool_getFromISR,"ax",%progbits
 826              		.align	1
 827              		.global	QMPool_getFromISR
 828              		.syntax unified
 829              		.code	16
 830              		.thumb_func
 832              	QMPool_getFromISR:
 833              	.LVL89:
 834              	.LFB32:
 386:Middlewares/Third_Party/QuantumLeaps_RTEF_qpc/ports/freertos/qf_port.c **** 
 387:Middlewares/Third_Party/QuantumLeaps_RTEF_qpc/ports/freertos/qf_port.c **** //============================================================================
 388:Middlewares/Third_Party/QuantumLeaps_RTEF_qpc/ports/freertos/qf_port.c **** // The "FromISR" QP APIs for the FreeRTOS port...
 389:Middlewares/Third_Party/QuantumLeaps_RTEF_qpc/ports/freertos/qf_port.c **** bool QActive_postFromISR_(QActive * const me, QEvt const * const e,
 390:Middlewares/Third_Party/QuantumLeaps_RTEF_qpc/ports/freertos/qf_port.c ****                           uint_fast16_t const margin,
 391:Middlewares/Third_Party/QuantumLeaps_RTEF_qpc/ports/freertos/qf_port.c ****                           BaseType_t * const pxHigherPriorityTaskWoken,
 392:Middlewares/Third_Party/QuantumLeaps_RTEF_qpc/ports/freertos/qf_port.c ****                           void const * const sender)
 393:Middlewares/Third_Party/QuantumLeaps_RTEF_qpc/ports/freertos/qf_port.c **** {
 394:Middlewares/Third_Party/QuantumLeaps_RTEF_qpc/ports/freertos/qf_port.c ****     UBaseType_t uxSavedInterruptStatus = portSET_INTERRUPT_MASK_FROM_ISR();
 395:Middlewares/Third_Party/QuantumLeaps_RTEF_qpc/ports/freertos/qf_port.c **** 
 396:Middlewares/Third_Party/QuantumLeaps_RTEF_qpc/ports/freertos/qf_port.c ****     Q_REQUIRE_INCRIT(400, e != (QEvt *)0);
 397:Middlewares/Third_Party/QuantumLeaps_RTEF_qpc/ports/freertos/qf_port.c **** 
ARM GAS  C:\Users\main\AppData\Local\Temp\ccGWoVmJ.s 			page 24


 398:Middlewares/Third_Party/QuantumLeaps_RTEF_qpc/ports/freertos/qf_port.c ****     // the number of free slots available in the FreeRTOS queue
 399:Middlewares/Third_Party/QuantumLeaps_RTEF_qpc/ports/freertos/qf_port.c ****     uint_fast16_t const nFree =
 400:Middlewares/Third_Party/QuantumLeaps_RTEF_qpc/ports/freertos/qf_port.c ****         (uint_fast16_t)FREERTOS_QUEUE_GET_FREE(me);
 401:Middlewares/Third_Party/QuantumLeaps_RTEF_qpc/ports/freertos/qf_port.c **** 
 402:Middlewares/Third_Party/QuantumLeaps_RTEF_qpc/ports/freertos/qf_port.c ****     // required margin available?
 403:Middlewares/Third_Party/QuantumLeaps_RTEF_qpc/ports/freertos/qf_port.c ****     bool status = false; // assume that event cannot be posted
 404:Middlewares/Third_Party/QuantumLeaps_RTEF_qpc/ports/freertos/qf_port.c ****     if (margin == QF_NO_MARGIN) {
 405:Middlewares/Third_Party/QuantumLeaps_RTEF_qpc/ports/freertos/qf_port.c ****         if (nFree > 0U) { // free entries available in the queue?
 406:Middlewares/Third_Party/QuantumLeaps_RTEF_qpc/ports/freertos/qf_port.c ****             status = true; // can post
 407:Middlewares/Third_Party/QuantumLeaps_RTEF_qpc/ports/freertos/qf_port.c ****         }
 408:Middlewares/Third_Party/QuantumLeaps_RTEF_qpc/ports/freertos/qf_port.c ****         else { // no free entries available
 409:Middlewares/Third_Party/QuantumLeaps_RTEF_qpc/ports/freertos/qf_port.c ****             // The queue overflows, but QF_NO_MARGIN indicates that
 410:Middlewares/Third_Party/QuantumLeaps_RTEF_qpc/ports/freertos/qf_port.c ****             // the "event delivery guarantee" is required.
 411:Middlewares/Third_Party/QuantumLeaps_RTEF_qpc/ports/freertos/qf_port.c ****             Q_ERROR_INCRIT(410); // must be able to post the event
 412:Middlewares/Third_Party/QuantumLeaps_RTEF_qpc/ports/freertos/qf_port.c ****         }
 413:Middlewares/Third_Party/QuantumLeaps_RTEF_qpc/ports/freertos/qf_port.c ****     }
 414:Middlewares/Third_Party/QuantumLeaps_RTEF_qpc/ports/freertos/qf_port.c ****     else if (nFree > (QEQueueCtr)margin) { // enough free entries?
 415:Middlewares/Third_Party/QuantumLeaps_RTEF_qpc/ports/freertos/qf_port.c ****         status = true; // can post
 416:Middlewares/Third_Party/QuantumLeaps_RTEF_qpc/ports/freertos/qf_port.c ****     }
 417:Middlewares/Third_Party/QuantumLeaps_RTEF_qpc/ports/freertos/qf_port.c ****     else {
 418:Middlewares/Third_Party/QuantumLeaps_RTEF_qpc/ports/freertos/qf_port.c ****         // empty
 419:Middlewares/Third_Party/QuantumLeaps_RTEF_qpc/ports/freertos/qf_port.c ****     }
 420:Middlewares/Third_Party/QuantumLeaps_RTEF_qpc/ports/freertos/qf_port.c **** 
 421:Middlewares/Third_Party/QuantumLeaps_RTEF_qpc/ports/freertos/qf_port.c **** #if (QF_MAX_EPOOL > 0U)
 422:Middlewares/Third_Party/QuantumLeaps_RTEF_qpc/ports/freertos/qf_port.c ****     if (e->poolNum_ != 0U) { // is it a mutable event?
 423:Middlewares/Third_Party/QuantumLeaps_RTEF_qpc/ports/freertos/qf_port.c ****         Q_ASSERT_INCRIT(405, e->refCtr_ < (2U * QF_MAX_ACTIVE));
 424:Middlewares/Third_Party/QuantumLeaps_RTEF_qpc/ports/freertos/qf_port.c ****         QEvt_refCtr_inc_(e); // increment the reference counter
 425:Middlewares/Third_Party/QuantumLeaps_RTEF_qpc/ports/freertos/qf_port.c ****     }
 426:Middlewares/Third_Party/QuantumLeaps_RTEF_qpc/ports/freertos/qf_port.c **** #endif // (QF_MAX_EPOOL > 0U)
 427:Middlewares/Third_Party/QuantumLeaps_RTEF_qpc/ports/freertos/qf_port.c **** 
 428:Middlewares/Third_Party/QuantumLeaps_RTEF_qpc/ports/freertos/qf_port.c ****     if (status) { // can post the event?
 429:Middlewares/Third_Party/QuantumLeaps_RTEF_qpc/ports/freertos/qf_port.c ****         QS_BEGIN_PRE(QS_QF_ACTIVE_POST, me->prio)
 430:Middlewares/Third_Party/QuantumLeaps_RTEF_qpc/ports/freertos/qf_port.c ****             QS_TIME_PRE();        // timestamp
 431:Middlewares/Third_Party/QuantumLeaps_RTEF_qpc/ports/freertos/qf_port.c ****             QS_OBJ_PRE(sender);   // the sender object
 432:Middlewares/Third_Party/QuantumLeaps_RTEF_qpc/ports/freertos/qf_port.c ****             QS_SIG_PRE(e->sig);   // the signal of the event
 433:Middlewares/Third_Party/QuantumLeaps_RTEF_qpc/ports/freertos/qf_port.c ****             QS_OBJ_PRE(me);       // this active object (recipient)
 434:Middlewares/Third_Party/QuantumLeaps_RTEF_qpc/ports/freertos/qf_port.c ****             QS_2U8_PRE(e->poolNum_, e->refCtr_);
 435:Middlewares/Third_Party/QuantumLeaps_RTEF_qpc/ports/freertos/qf_port.c ****             QS_EQC_PRE((QEQueueCtr)nFree); // # free entries
 436:Middlewares/Third_Party/QuantumLeaps_RTEF_qpc/ports/freertos/qf_port.c ****             QS_EQC_PRE(0U);       // min # free entries (unknown)
 437:Middlewares/Third_Party/QuantumLeaps_RTEF_qpc/ports/freertos/qf_port.c ****         QS_END_PRE()
 438:Middlewares/Third_Party/QuantumLeaps_RTEF_qpc/ports/freertos/qf_port.c **** 
 439:Middlewares/Third_Party/QuantumLeaps_RTEF_qpc/ports/freertos/qf_port.c ****         portCLEAR_INTERRUPT_MASK_FROM_ISR(uxSavedInterruptStatus);
 440:Middlewares/Third_Party/QuantumLeaps_RTEF_qpc/ports/freertos/qf_port.c **** 
 441:Middlewares/Third_Party/QuantumLeaps_RTEF_qpc/ports/freertos/qf_port.c ****         BaseType_t err = xQueueSendToBackFromISR(me->eQueue,
 442:Middlewares/Third_Party/QuantumLeaps_RTEF_qpc/ports/freertos/qf_port.c ****                               (void const *)&e,
 443:Middlewares/Third_Party/QuantumLeaps_RTEF_qpc/ports/freertos/qf_port.c ****                               pxHigherPriorityTaskWoken);
 444:Middlewares/Third_Party/QuantumLeaps_RTEF_qpc/ports/freertos/qf_port.c **** 
 445:Middlewares/Third_Party/QuantumLeaps_RTEF_qpc/ports/freertos/qf_port.c ****         uxSavedInterruptStatus = portSET_INTERRUPT_MASK_FROM_ISR();
 446:Middlewares/Third_Party/QuantumLeaps_RTEF_qpc/ports/freertos/qf_port.c ****         // posting to the FreeRTOS message queue must succeed, see NOTE3
 447:Middlewares/Third_Party/QuantumLeaps_RTEF_qpc/ports/freertos/qf_port.c ****         Q_ASSERT_INCRIT(420, err == pdPASS);
 448:Middlewares/Third_Party/QuantumLeaps_RTEF_qpc/ports/freertos/qf_port.c ****         portCLEAR_INTERRUPT_MASK_FROM_ISR(uxSavedInterruptStatus);
 449:Middlewares/Third_Party/QuantumLeaps_RTEF_qpc/ports/freertos/qf_port.c **** 
 450:Middlewares/Third_Party/QuantumLeaps_RTEF_qpc/ports/freertos/qf_port.c **** #ifdef Q_UNSAFE
 451:Middlewares/Third_Party/QuantumLeaps_RTEF_qpc/ports/freertos/qf_port.c ****         Q_UNUSED_PAR(err);
 452:Middlewares/Third_Party/QuantumLeaps_RTEF_qpc/ports/freertos/qf_port.c **** #endif
 453:Middlewares/Third_Party/QuantumLeaps_RTEF_qpc/ports/freertos/qf_port.c ****     }
 454:Middlewares/Third_Party/QuantumLeaps_RTEF_qpc/ports/freertos/qf_port.c ****     else { // event cannot be posted
ARM GAS  C:\Users\main\AppData\Local\Temp\ccGWoVmJ.s 			page 25


 455:Middlewares/Third_Party/QuantumLeaps_RTEF_qpc/ports/freertos/qf_port.c ****         QS_BEGIN_PRE(QS_QF_ACTIVE_POST_ATTEMPT, me->prio)
 456:Middlewares/Third_Party/QuantumLeaps_RTEF_qpc/ports/freertos/qf_port.c ****             QS_TIME_PRE();       // timestamp
 457:Middlewares/Third_Party/QuantumLeaps_RTEF_qpc/ports/freertos/qf_port.c ****             QS_OBJ_PRE(sender);  // the sender object
 458:Middlewares/Third_Party/QuantumLeaps_RTEF_qpc/ports/freertos/qf_port.c ****             QS_SIG_PRE(e->sig);  // the signal of the event
 459:Middlewares/Third_Party/QuantumLeaps_RTEF_qpc/ports/freertos/qf_port.c ****             QS_OBJ_PRE(me);      // this active object (recipient)
 460:Middlewares/Third_Party/QuantumLeaps_RTEF_qpc/ports/freertos/qf_port.c ****             QS_2U8_PRE(e->poolNum_, e->refCtr_);
 461:Middlewares/Third_Party/QuantumLeaps_RTEF_qpc/ports/freertos/qf_port.c ****             QS_EQC_PRE(nFree);   // # free entries
 462:Middlewares/Third_Party/QuantumLeaps_RTEF_qpc/ports/freertos/qf_port.c ****             QS_EQC_PRE(margin);  // margin requested
 463:Middlewares/Third_Party/QuantumLeaps_RTEF_qpc/ports/freertos/qf_port.c ****         QS_END_PRE()
 464:Middlewares/Third_Party/QuantumLeaps_RTEF_qpc/ports/freertos/qf_port.c **** 
 465:Middlewares/Third_Party/QuantumLeaps_RTEF_qpc/ports/freertos/qf_port.c ****         portCLEAR_INTERRUPT_MASK_FROM_ISR(uxSavedInterruptStatus);
 466:Middlewares/Third_Party/QuantumLeaps_RTEF_qpc/ports/freertos/qf_port.c **** 
 467:Middlewares/Third_Party/QuantumLeaps_RTEF_qpc/ports/freertos/qf_port.c **** #if (QF_MAX_EPOOL > 0U)
 468:Middlewares/Third_Party/QuantumLeaps_RTEF_qpc/ports/freertos/qf_port.c ****         QF_gcFromISR(e); // recycle the event to avoid a leak
 469:Middlewares/Third_Party/QuantumLeaps_RTEF_qpc/ports/freertos/qf_port.c **** #endif // (QF_MAX_EPOOL > 0U)
 470:Middlewares/Third_Party/QuantumLeaps_RTEF_qpc/ports/freertos/qf_port.c ****     }
 471:Middlewares/Third_Party/QuantumLeaps_RTEF_qpc/ports/freertos/qf_port.c **** 
 472:Middlewares/Third_Party/QuantumLeaps_RTEF_qpc/ports/freertos/qf_port.c ****     return status;
 473:Middlewares/Third_Party/QuantumLeaps_RTEF_qpc/ports/freertos/qf_port.c **** }
 474:Middlewares/Third_Party/QuantumLeaps_RTEF_qpc/ports/freertos/qf_port.c **** //............................................................................
 475:Middlewares/Third_Party/QuantumLeaps_RTEF_qpc/ports/freertos/qf_port.c **** void QActive_publishFromISR_(QEvt const * const e,
 476:Middlewares/Third_Party/QuantumLeaps_RTEF_qpc/ports/freertos/qf_port.c ****                           BaseType_t * const pxHigherPriorityTaskWoken,
 477:Middlewares/Third_Party/QuantumLeaps_RTEF_qpc/ports/freertos/qf_port.c ****                           void const * const sender)
 478:Middlewares/Third_Party/QuantumLeaps_RTEF_qpc/ports/freertos/qf_port.c **** {
 479:Middlewares/Third_Party/QuantumLeaps_RTEF_qpc/ports/freertos/qf_port.c ****     Q_REQUIRE_INCRIT(500, e != (QEvt *)0);
 480:Middlewares/Third_Party/QuantumLeaps_RTEF_qpc/ports/freertos/qf_port.c **** 
 481:Middlewares/Third_Party/QuantumLeaps_RTEF_qpc/ports/freertos/qf_port.c ****     QSignal const sig = e->sig;
 482:Middlewares/Third_Party/QuantumLeaps_RTEF_qpc/ports/freertos/qf_port.c **** 
 483:Middlewares/Third_Party/QuantumLeaps_RTEF_qpc/ports/freertos/qf_port.c ****     UBaseType_t uxSavedInterruptStatus = portSET_INTERRUPT_MASK_FROM_ISR();
 484:Middlewares/Third_Party/QuantumLeaps_RTEF_qpc/ports/freertos/qf_port.c **** 
 485:Middlewares/Third_Party/QuantumLeaps_RTEF_qpc/ports/freertos/qf_port.c ****     // the published signal must be within the configured range
 486:Middlewares/Third_Party/QuantumLeaps_RTEF_qpc/ports/freertos/qf_port.c ****     Q_REQUIRE_INCRIT(510, sig < (QSignal)QActive_maxPubSignal_);
 487:Middlewares/Third_Party/QuantumLeaps_RTEF_qpc/ports/freertos/qf_port.c **** 
 488:Middlewares/Third_Party/QuantumLeaps_RTEF_qpc/ports/freertos/qf_port.c ****     QS_BEGIN_PRE(QS_QF_PUBLISH, 0U)
 489:Middlewares/Third_Party/QuantumLeaps_RTEF_qpc/ports/freertos/qf_port.c ****         QS_TIME_PRE();          // the timestamp
 490:Middlewares/Third_Party/QuantumLeaps_RTEF_qpc/ports/freertos/qf_port.c ****         QS_OBJ_PRE(sender);     // the sender object
 491:Middlewares/Third_Party/QuantumLeaps_RTEF_qpc/ports/freertos/qf_port.c ****         QS_SIG_PRE(sig);        // the signal of the event
 492:Middlewares/Third_Party/QuantumLeaps_RTEF_qpc/ports/freertos/qf_port.c ****         QS_2U8_PRE(e->poolNum_, e->refCtr_);
 493:Middlewares/Third_Party/QuantumLeaps_RTEF_qpc/ports/freertos/qf_port.c ****     QS_END_PRE()
 494:Middlewares/Third_Party/QuantumLeaps_RTEF_qpc/ports/freertos/qf_port.c **** 
 495:Middlewares/Third_Party/QuantumLeaps_RTEF_qpc/ports/freertos/qf_port.c ****     // is it a mutable event?
 496:Middlewares/Third_Party/QuantumLeaps_RTEF_qpc/ports/freertos/qf_port.c ****     if (e->poolNum_ != 0U) {
 497:Middlewares/Third_Party/QuantumLeaps_RTEF_qpc/ports/freertos/qf_port.c ****         // NOTE: The reference counter of a mutable event is incremented to
 498:Middlewares/Third_Party/QuantumLeaps_RTEF_qpc/ports/freertos/qf_port.c ****         // prevent premature recycling of the event while the multicasting
 499:Middlewares/Third_Party/QuantumLeaps_RTEF_qpc/ports/freertos/qf_port.c ****         // is still in progress. At the end of the function, the garbage
 500:Middlewares/Third_Party/QuantumLeaps_RTEF_qpc/ports/freertos/qf_port.c ****         // collector step (QF_gc()) decrements the reference counter and
 501:Middlewares/Third_Party/QuantumLeaps_RTEF_qpc/ports/freertos/qf_port.c ****         // recycles the event if the counter drops to zero. This covers the
 502:Middlewares/Third_Party/QuantumLeaps_RTEF_qpc/ports/freertos/qf_port.c ****         // case when the event was published without any subscribers.
 503:Middlewares/Third_Party/QuantumLeaps_RTEF_qpc/ports/freertos/qf_port.c ****         Q_ASSERT_INCRIT(515, e->refCtr_ < (2U * QF_MAX_ACTIVE));
 504:Middlewares/Third_Party/QuantumLeaps_RTEF_qpc/ports/freertos/qf_port.c ****         QEvt_refCtr_inc_(e);
 505:Middlewares/Third_Party/QuantumLeaps_RTEF_qpc/ports/freertos/qf_port.c ****     }
 506:Middlewares/Third_Party/QuantumLeaps_RTEF_qpc/ports/freertos/qf_port.c **** 
 507:Middlewares/Third_Party/QuantumLeaps_RTEF_qpc/ports/freertos/qf_port.c ****     // make a local, modifiable copy of the subscriber set
 508:Middlewares/Third_Party/QuantumLeaps_RTEF_qpc/ports/freertos/qf_port.c ****     QPSet subscrSet = QActive_subscrList_[sig].set;
 509:Middlewares/Third_Party/QuantumLeaps_RTEF_qpc/ports/freertos/qf_port.c **** 
 510:Middlewares/Third_Party/QuantumLeaps_RTEF_qpc/ports/freertos/qf_port.c ****     portCLEAR_INTERRUPT_MASK_FROM_ISR(uxSavedInterruptStatus);
 511:Middlewares/Third_Party/QuantumLeaps_RTEF_qpc/ports/freertos/qf_port.c **** 
ARM GAS  C:\Users\main\AppData\Local\Temp\ccGWoVmJ.s 			page 26


 512:Middlewares/Third_Party/QuantumLeaps_RTEF_qpc/ports/freertos/qf_port.c ****     if (QPSet_notEmpty(&subscrSet)) { // any subscribers?
 513:Middlewares/Third_Party/QuantumLeaps_RTEF_qpc/ports/freertos/qf_port.c ****         // the highest-prio subscriber
 514:Middlewares/Third_Party/QuantumLeaps_RTEF_qpc/ports/freertos/qf_port.c ****         uint_fast8_t p = QPSet_findMax(&subscrSet);
 515:Middlewares/Third_Party/QuantumLeaps_RTEF_qpc/ports/freertos/qf_port.c **** 
 516:Middlewares/Third_Party/QuantumLeaps_RTEF_qpc/ports/freertos/qf_port.c ****         uxSavedInterruptStatus = portSET_INTERRUPT_MASK_FROM_ISR();
 517:Middlewares/Third_Party/QuantumLeaps_RTEF_qpc/ports/freertos/qf_port.c **** 
 518:Middlewares/Third_Party/QuantumLeaps_RTEF_qpc/ports/freertos/qf_port.c ****         QActive *a = QActive_registry_[p];
 519:Middlewares/Third_Party/QuantumLeaps_RTEF_qpc/ports/freertos/qf_port.c ****         // the AO must be registered with the framework
 520:Middlewares/Third_Party/QuantumLeaps_RTEF_qpc/ports/freertos/qf_port.c ****         Q_ASSERT_INCRIT(520, a != (QActive *)0);
 521:Middlewares/Third_Party/QuantumLeaps_RTEF_qpc/ports/freertos/qf_port.c **** 
 522:Middlewares/Third_Party/QuantumLeaps_RTEF_qpc/ports/freertos/qf_port.c ****         portCLEAR_INTERRUPT_MASK_FROM_ISR(uxSavedInterruptStatus);
 523:Middlewares/Third_Party/QuantumLeaps_RTEF_qpc/ports/freertos/qf_port.c **** 
 524:Middlewares/Third_Party/QuantumLeaps_RTEF_qpc/ports/freertos/qf_port.c ****         //QF_SCHED_LOCK_(p); // no scheduler locking in FreeRTOS
 525:Middlewares/Third_Party/QuantumLeaps_RTEF_qpc/ports/freertos/qf_port.c ****         do { // loop over all subscribers
 526:Middlewares/Third_Party/QuantumLeaps_RTEF_qpc/ports/freertos/qf_port.c ****             // QACTIVE_POST() asserts internally if the queue overflows
 527:Middlewares/Third_Party/QuantumLeaps_RTEF_qpc/ports/freertos/qf_port.c ****             QACTIVE_POST_FROM_ISR(a, e, pxHigherPriorityTaskWoken, sender);
 528:Middlewares/Third_Party/QuantumLeaps_RTEF_qpc/ports/freertos/qf_port.c **** 
 529:Middlewares/Third_Party/QuantumLeaps_RTEF_qpc/ports/freertos/qf_port.c ****             QPSet_remove(&subscrSet, p); // remove the handled subscriber
 530:Middlewares/Third_Party/QuantumLeaps_RTEF_qpc/ports/freertos/qf_port.c ****             if (QPSet_notEmpty(&subscrSet)) {  // still more subscribers?
 531:Middlewares/Third_Party/QuantumLeaps_RTEF_qpc/ports/freertos/qf_port.c ****                 p = QPSet_findMax(&subscrSet); // highest-prio subscriber
 532:Middlewares/Third_Party/QuantumLeaps_RTEF_qpc/ports/freertos/qf_port.c **** 
 533:Middlewares/Third_Party/QuantumLeaps_RTEF_qpc/ports/freertos/qf_port.c ****                 uxSavedInterruptStatus = portSET_INTERRUPT_MASK_FROM_ISR();
 534:Middlewares/Third_Party/QuantumLeaps_RTEF_qpc/ports/freertos/qf_port.c **** 
 535:Middlewares/Third_Party/QuantumLeaps_RTEF_qpc/ports/freertos/qf_port.c ****                 a = QActive_registry_[p];
 536:Middlewares/Third_Party/QuantumLeaps_RTEF_qpc/ports/freertos/qf_port.c ****                 // the AO must be registered with the framework
 537:Middlewares/Third_Party/QuantumLeaps_RTEF_qpc/ports/freertos/qf_port.c ****                 Q_ASSERT_INCRIT(530, a != (QActive *)0);
 538:Middlewares/Third_Party/QuantumLeaps_RTEF_qpc/ports/freertos/qf_port.c **** 
 539:Middlewares/Third_Party/QuantumLeaps_RTEF_qpc/ports/freertos/qf_port.c ****                 portCLEAR_INTERRUPT_MASK_FROM_ISR(uxSavedInterruptStatus);
 540:Middlewares/Third_Party/QuantumLeaps_RTEF_qpc/ports/freertos/qf_port.c ****             }
 541:Middlewares/Third_Party/QuantumLeaps_RTEF_qpc/ports/freertos/qf_port.c ****             else {
 542:Middlewares/Third_Party/QuantumLeaps_RTEF_qpc/ports/freertos/qf_port.c ****                 p = 0U; // no more subscribers
 543:Middlewares/Third_Party/QuantumLeaps_RTEF_qpc/ports/freertos/qf_port.c ****             }
 544:Middlewares/Third_Party/QuantumLeaps_RTEF_qpc/ports/freertos/qf_port.c ****         } while (p != 0U);
 545:Middlewares/Third_Party/QuantumLeaps_RTEF_qpc/ports/freertos/qf_port.c **** 
 546:Middlewares/Third_Party/QuantumLeaps_RTEF_qpc/ports/freertos/qf_port.c ****         uxSavedInterruptStatus = portSET_INTERRUPT_MASK_FROM_ISR();
 547:Middlewares/Third_Party/QuantumLeaps_RTEF_qpc/ports/freertos/qf_port.c ****         Q_ASSERT_INCRIT(590, p == 0U); // all subscribers processed
 548:Middlewares/Third_Party/QuantumLeaps_RTEF_qpc/ports/freertos/qf_port.c ****         portCLEAR_INTERRUPT_MASK_FROM_ISR(uxSavedInterruptStatus);
 549:Middlewares/Third_Party/QuantumLeaps_RTEF_qpc/ports/freertos/qf_port.c **** 
 550:Middlewares/Third_Party/QuantumLeaps_RTEF_qpc/ports/freertos/qf_port.c ****         //QF_SCHED_UNLOCK_(); // no scheduler locking in FreeRTOS
 551:Middlewares/Third_Party/QuantumLeaps_RTEF_qpc/ports/freertos/qf_port.c ****     }
 552:Middlewares/Third_Party/QuantumLeaps_RTEF_qpc/ports/freertos/qf_port.c **** 
 553:Middlewares/Third_Party/QuantumLeaps_RTEF_qpc/ports/freertos/qf_port.c **** #if (QF_MAX_EPOOL > 0U)
 554:Middlewares/Third_Party/QuantumLeaps_RTEF_qpc/ports/freertos/qf_port.c ****     // The following garbage collection step decrements the reference counter
 555:Middlewares/Third_Party/QuantumLeaps_RTEF_qpc/ports/freertos/qf_port.c ****     // and recycles the event if the counter drops to zero. This covers both
 556:Middlewares/Third_Party/QuantumLeaps_RTEF_qpc/ports/freertos/qf_port.c ****     // cases when the event was published with or without any subscribers.
 557:Middlewares/Third_Party/QuantumLeaps_RTEF_qpc/ports/freertos/qf_port.c ****     QF_gcFromISR(e);
 558:Middlewares/Third_Party/QuantumLeaps_RTEF_qpc/ports/freertos/qf_port.c **** #endif // (QF_MAX_EPOOL > 0U)
 559:Middlewares/Third_Party/QuantumLeaps_RTEF_qpc/ports/freertos/qf_port.c **** }
 560:Middlewares/Third_Party/QuantumLeaps_RTEF_qpc/ports/freertos/qf_port.c **** 
 561:Middlewares/Third_Party/QuantumLeaps_RTEF_qpc/ports/freertos/qf_port.c **** //............................................................................
 562:Middlewares/Third_Party/QuantumLeaps_RTEF_qpc/ports/freertos/qf_port.c **** //! @private @memberof QTimeEvt
 563:Middlewares/Third_Party/QuantumLeaps_RTEF_qpc/ports/freertos/qf_port.c **** void QTimeEvt_tickFromISR_(uint_fast8_t const tickRate,
 564:Middlewares/Third_Party/QuantumLeaps_RTEF_qpc/ports/freertos/qf_port.c ****                           BaseType_t * const pxHigherPriorityTaskWoken,
 565:Middlewares/Third_Party/QuantumLeaps_RTEF_qpc/ports/freertos/qf_port.c ****                           void const * const sender)
 566:Middlewares/Third_Party/QuantumLeaps_RTEF_qpc/ports/freertos/qf_port.c **** {
 567:Middlewares/Third_Party/QuantumLeaps_RTEF_qpc/ports/freertos/qf_port.c **** #ifndef Q_SPY
 568:Middlewares/Third_Party/QuantumLeaps_RTEF_qpc/ports/freertos/qf_port.c ****     Q_UNUSED_PAR(sender);
ARM GAS  C:\Users\main\AppData\Local\Temp\ccGWoVmJ.s 			page 27


 569:Middlewares/Third_Party/QuantumLeaps_RTEF_qpc/ports/freertos/qf_port.c **** #endif
 570:Middlewares/Third_Party/QuantumLeaps_RTEF_qpc/ports/freertos/qf_port.c **** 
 571:Middlewares/Third_Party/QuantumLeaps_RTEF_qpc/ports/freertos/qf_port.c ****     UBaseType_t uxSavedInterruptStatus = portSET_INTERRUPT_MASK_FROM_ISR();
 572:Middlewares/Third_Party/QuantumLeaps_RTEF_qpc/ports/freertos/qf_port.c **** 
 573:Middlewares/Third_Party/QuantumLeaps_RTEF_qpc/ports/freertos/qf_port.c ****     Q_REQUIRE_INCRIT(600, tickRate < Q_DIM(QTimeEvt_timeEvtHead_));
 574:Middlewares/Third_Party/QuantumLeaps_RTEF_qpc/ports/freertos/qf_port.c **** 
 575:Middlewares/Third_Party/QuantumLeaps_RTEF_qpc/ports/freertos/qf_port.c ****     QTimeEvt *prev = &QTimeEvt_timeEvtHead_[tickRate];
 576:Middlewares/Third_Party/QuantumLeaps_RTEF_qpc/ports/freertos/qf_port.c **** 
 577:Middlewares/Third_Party/QuantumLeaps_RTEF_qpc/ports/freertos/qf_port.c **** #ifdef Q_SPY
 578:Middlewares/Third_Party/QuantumLeaps_RTEF_qpc/ports/freertos/qf_port.c ****     QS_BEGIN_PRE(QS_QF_TICK, 0U)
 579:Middlewares/Third_Party/QuantumLeaps_RTEF_qpc/ports/freertos/qf_port.c ****         ++prev->ctr;
 580:Middlewares/Third_Party/QuantumLeaps_RTEF_qpc/ports/freertos/qf_port.c ****         QS_TEC_PRE(prev->ctr);   // tick ctr
 581:Middlewares/Third_Party/QuantumLeaps_RTEF_qpc/ports/freertos/qf_port.c ****         QS_U8_PRE(tickRate);     // tick rate
 582:Middlewares/Third_Party/QuantumLeaps_RTEF_qpc/ports/freertos/qf_port.c ****     QS_END_PRE()
 583:Middlewares/Third_Party/QuantumLeaps_RTEF_qpc/ports/freertos/qf_port.c **** #endif // def Q_SPY
 584:Middlewares/Third_Party/QuantumLeaps_RTEF_qpc/ports/freertos/qf_port.c **** 
 585:Middlewares/Third_Party/QuantumLeaps_RTEF_qpc/ports/freertos/qf_port.c ****     // scan the linked-list of time events at this rate...
 586:Middlewares/Third_Party/QuantumLeaps_RTEF_qpc/ports/freertos/qf_port.c ****     while (true) {
 587:Middlewares/Third_Party/QuantumLeaps_RTEF_qpc/ports/freertos/qf_port.c ****         Q_ASSERT_INCRIT(610, prev != (QTimeEvt *)0); // sanity check
 588:Middlewares/Third_Party/QuantumLeaps_RTEF_qpc/ports/freertos/qf_port.c **** 
 589:Middlewares/Third_Party/QuantumLeaps_RTEF_qpc/ports/freertos/qf_port.c ****         QTimeEvt *te = prev->next; // advance down the time evt. list
 590:Middlewares/Third_Party/QuantumLeaps_RTEF_qpc/ports/freertos/qf_port.c **** 
 591:Middlewares/Third_Party/QuantumLeaps_RTEF_qpc/ports/freertos/qf_port.c ****         if (te == (QTimeEvt *)0) { // end of the list?
 592:Middlewares/Third_Party/QuantumLeaps_RTEF_qpc/ports/freertos/qf_port.c ****             // NO any new time events armed since the last QTimeEvt_tick_()?
 593:Middlewares/Third_Party/QuantumLeaps_RTEF_qpc/ports/freertos/qf_port.c ****             if (QTimeEvt_timeEvtHead_[tickRate].act == (void *)0) {
 594:Middlewares/Third_Party/QuantumLeaps_RTEF_qpc/ports/freertos/qf_port.c ****                 break; // terminate the for-loop
 595:Middlewares/Third_Party/QuantumLeaps_RTEF_qpc/ports/freertos/qf_port.c ****             }
 596:Middlewares/Third_Party/QuantumLeaps_RTEF_qpc/ports/freertos/qf_port.c **** 
 597:Middlewares/Third_Party/QuantumLeaps_RTEF_qpc/ports/freertos/qf_port.c ****             prev->next = (QTimeEvt*)QTimeEvt_timeEvtHead_[tickRate].act;
 598:Middlewares/Third_Party/QuantumLeaps_RTEF_qpc/ports/freertos/qf_port.c ****             QTimeEvt_timeEvtHead_[tickRate].act = (void *)0;
 599:Middlewares/Third_Party/QuantumLeaps_RTEF_qpc/ports/freertos/qf_port.c **** 
 600:Middlewares/Third_Party/QuantumLeaps_RTEF_qpc/ports/freertos/qf_port.c ****             te = prev->next; // switch to the new list
 601:Middlewares/Third_Party/QuantumLeaps_RTEF_qpc/ports/freertos/qf_port.c ****         }
 602:Middlewares/Third_Party/QuantumLeaps_RTEF_qpc/ports/freertos/qf_port.c **** 
 603:Middlewares/Third_Party/QuantumLeaps_RTEF_qpc/ports/freertos/qf_port.c ****         // the time event 'te' must be valid
 604:Middlewares/Third_Party/QuantumLeaps_RTEF_qpc/ports/freertos/qf_port.c ****         Q_ASSERT_INCRIT(640, te != (QTimeEvt *)0);
 605:Middlewares/Third_Party/QuantumLeaps_RTEF_qpc/ports/freertos/qf_port.c **** 
 606:Middlewares/Third_Party/QuantumLeaps_RTEF_qpc/ports/freertos/qf_port.c ****         QTimeEvtCtr ctr = te->ctr; // move volatile into temporary
 607:Middlewares/Third_Party/QuantumLeaps_RTEF_qpc/ports/freertos/qf_port.c **** 
 608:Middlewares/Third_Party/QuantumLeaps_RTEF_qpc/ports/freertos/qf_port.c ****         if (ctr == 0U) { // time event scheduled for removal?
 609:Middlewares/Third_Party/QuantumLeaps_RTEF_qpc/ports/freertos/qf_port.c ****             prev->next = te->next;
 610:Middlewares/Third_Party/QuantumLeaps_RTEF_qpc/ports/freertos/qf_port.c **** 
 611:Middlewares/Third_Party/QuantumLeaps_RTEF_qpc/ports/freertos/qf_port.c ****             // mark time event 'te' as NOT linked
 612:Middlewares/Third_Party/QuantumLeaps_RTEF_qpc/ports/freertos/qf_port.c ****             te->flags &= (uint8_t)(~QTE_FLAG_IS_LINKED & 0xFFU);
 613:Middlewares/Third_Party/QuantumLeaps_RTEF_qpc/ports/freertos/qf_port.c ****             // do NOT advance the prev pointer
 614:Middlewares/Third_Party/QuantumLeaps_RTEF_qpc/ports/freertos/qf_port.c **** 
 615:Middlewares/Third_Party/QuantumLeaps_RTEF_qpc/ports/freertos/qf_port.c ****             // exit crit. section to reduce latency
 616:Middlewares/Third_Party/QuantumLeaps_RTEF_qpc/ports/freertos/qf_port.c ****             portCLEAR_INTERRUPT_MASK_FROM_ISR(uxSavedInterruptStatus);
 617:Middlewares/Third_Party/QuantumLeaps_RTEF_qpc/ports/freertos/qf_port.c ****         }
 618:Middlewares/Third_Party/QuantumLeaps_RTEF_qpc/ports/freertos/qf_port.c ****         else if (ctr == 1U) { // is time event about to expire?
 619:Middlewares/Third_Party/QuantumLeaps_RTEF_qpc/ports/freertos/qf_port.c ****             QActive * const act = (QActive *)te->act;
 620:Middlewares/Third_Party/QuantumLeaps_RTEF_qpc/ports/freertos/qf_port.c ****             prev = QTimeEvt_expire_(te, prev, act, tickRate);
 621:Middlewares/Third_Party/QuantumLeaps_RTEF_qpc/ports/freertos/qf_port.c **** 
 622:Middlewares/Third_Party/QuantumLeaps_RTEF_qpc/ports/freertos/qf_port.c ****             portCLEAR_INTERRUPT_MASK_FROM_ISR(uxSavedInterruptStatus);
 623:Middlewares/Third_Party/QuantumLeaps_RTEF_qpc/ports/freertos/qf_port.c **** 
 624:Middlewares/Third_Party/QuantumLeaps_RTEF_qpc/ports/freertos/qf_port.c ****             // QACTIVE_POST_FROM_ISR() asserts if the queue overflows
 625:Middlewares/Third_Party/QuantumLeaps_RTEF_qpc/ports/freertos/qf_port.c ****             QACTIVE_POST_FROM_ISR(act, &te->super,
ARM GAS  C:\Users\main\AppData\Local\Temp\ccGWoVmJ.s 			page 28


 626:Middlewares/Third_Party/QuantumLeaps_RTEF_qpc/ports/freertos/qf_port.c ****                                   pxHigherPriorityTaskWoken,
 627:Middlewares/Third_Party/QuantumLeaps_RTEF_qpc/ports/freertos/qf_port.c ****                                   sender);
 628:Middlewares/Third_Party/QuantumLeaps_RTEF_qpc/ports/freertos/qf_port.c ****         }
 629:Middlewares/Third_Party/QuantumLeaps_RTEF_qpc/ports/freertos/qf_port.c ****         else { // time event keeps timing out
 630:Middlewares/Third_Party/QuantumLeaps_RTEF_qpc/ports/freertos/qf_port.c ****             --ctr; // decrement the tick counter
 631:Middlewares/Third_Party/QuantumLeaps_RTEF_qpc/ports/freertos/qf_port.c ****             te->ctr = ctr; // update the original
 632:Middlewares/Third_Party/QuantumLeaps_RTEF_qpc/ports/freertos/qf_port.c ****             prev = te; // advance to this time event
 633:Middlewares/Third_Party/QuantumLeaps_RTEF_qpc/ports/freertos/qf_port.c **** 
 634:Middlewares/Third_Party/QuantumLeaps_RTEF_qpc/ports/freertos/qf_port.c ****             portCLEAR_INTERRUPT_MASK_FROM_ISR(uxSavedInterruptStatus);
 635:Middlewares/Third_Party/QuantumLeaps_RTEF_qpc/ports/freertos/qf_port.c ****         }
 636:Middlewares/Third_Party/QuantumLeaps_RTEF_qpc/ports/freertos/qf_port.c ****         // re-enter crit. section to continue the loop
 637:Middlewares/Third_Party/QuantumLeaps_RTEF_qpc/ports/freertos/qf_port.c ****         uxSavedInterruptStatus = portSET_INTERRUPT_MASK_FROM_ISR();
 638:Middlewares/Third_Party/QuantumLeaps_RTEF_qpc/ports/freertos/qf_port.c ****     }
 639:Middlewares/Third_Party/QuantumLeaps_RTEF_qpc/ports/freertos/qf_port.c **** 
 640:Middlewares/Third_Party/QuantumLeaps_RTEF_qpc/ports/freertos/qf_port.c ****     portCLEAR_INTERRUPT_MASK_FROM_ISR(uxSavedInterruptStatus);
 641:Middlewares/Third_Party/QuantumLeaps_RTEF_qpc/ports/freertos/qf_port.c **** }
 642:Middlewares/Third_Party/QuantumLeaps_RTEF_qpc/ports/freertos/qf_port.c **** 
 643:Middlewares/Third_Party/QuantumLeaps_RTEF_qpc/ports/freertos/qf_port.c **** //............................................................................
 644:Middlewares/Third_Party/QuantumLeaps_RTEF_qpc/ports/freertos/qf_port.c **** QEvt *QF_newXFromISR_(uint_fast16_t const evtSize,
 645:Middlewares/Third_Party/QuantumLeaps_RTEF_qpc/ports/freertos/qf_port.c ****                       uint_fast16_t const margin, enum_t const sig)
 646:Middlewares/Third_Party/QuantumLeaps_RTEF_qpc/ports/freertos/qf_port.c **** {
 647:Middlewares/Third_Party/QuantumLeaps_RTEF_qpc/ports/freertos/qf_port.c ****     // find the pool number that fits the requested event size...
 648:Middlewares/Third_Party/QuantumLeaps_RTEF_qpc/ports/freertos/qf_port.c ****     uint8_t poolNum = 0U; // zero-based poolNum initially
 649:Middlewares/Third_Party/QuantumLeaps_RTEF_qpc/ports/freertos/qf_port.c ****     for (; poolNum < QF_priv_.maxPool_; ++poolNum) {
 650:Middlewares/Third_Party/QuantumLeaps_RTEF_qpc/ports/freertos/qf_port.c ****         if (evtSize <= QF_EPOOL_EVENT_SIZE_(QF_priv_.ePool_[poolNum])) {
 651:Middlewares/Third_Party/QuantumLeaps_RTEF_qpc/ports/freertos/qf_port.c ****             break;
 652:Middlewares/Third_Party/QuantumLeaps_RTEF_qpc/ports/freertos/qf_port.c ****         }
 653:Middlewares/Third_Party/QuantumLeaps_RTEF_qpc/ports/freertos/qf_port.c ****     }
 654:Middlewares/Third_Party/QuantumLeaps_RTEF_qpc/ports/freertos/qf_port.c **** 
 655:Middlewares/Third_Party/QuantumLeaps_RTEF_qpc/ports/freertos/qf_port.c ****     UBaseType_t uxSavedInterruptStatus = portSET_INTERRUPT_MASK_FROM_ISR();
 656:Middlewares/Third_Party/QuantumLeaps_RTEF_qpc/ports/freertos/qf_port.c **** 
 657:Middlewares/Third_Party/QuantumLeaps_RTEF_qpc/ports/freertos/qf_port.c ****     // precondition:
 658:Middlewares/Third_Party/QuantumLeaps_RTEF_qpc/ports/freertos/qf_port.c ****     // - cannot run out of registered pools
 659:Middlewares/Third_Party/QuantumLeaps_RTEF_qpc/ports/freertos/qf_port.c ****     Q_REQUIRE_INCRIT(700, poolNum < QF_priv_.maxPool_);
 660:Middlewares/Third_Party/QuantumLeaps_RTEF_qpc/ports/freertos/qf_port.c **** 
 661:Middlewares/Third_Party/QuantumLeaps_RTEF_qpc/ports/freertos/qf_port.c ****     ++poolNum; // convert to 1-based poolNum
 662:Middlewares/Third_Party/QuantumLeaps_RTEF_qpc/ports/freertos/qf_port.c **** 
 663:Middlewares/Third_Party/QuantumLeaps_RTEF_qpc/ports/freertos/qf_port.c ****     portCLEAR_INTERRUPT_MASK_FROM_ISR(uxSavedInterruptStatus);
 664:Middlewares/Third_Party/QuantumLeaps_RTEF_qpc/ports/freertos/qf_port.c **** 
 665:Middlewares/Third_Party/QuantumLeaps_RTEF_qpc/ports/freertos/qf_port.c ****     // get event e (port-dependent)...
 666:Middlewares/Third_Party/QuantumLeaps_RTEF_qpc/ports/freertos/qf_port.c ****     QEvt *e;
 667:Middlewares/Third_Party/QuantumLeaps_RTEF_qpc/ports/freertos/qf_port.c **** #ifdef Q_SPY
 668:Middlewares/Third_Party/QuantumLeaps_RTEF_qpc/ports/freertos/qf_port.c ****     e = QMPool_getFromISR(&QF_priv_.ePool_[poolNum - 1U],
 669:Middlewares/Third_Party/QuantumLeaps_RTEF_qpc/ports/freertos/qf_port.c ****                   ((margin != QF_NO_MARGIN) ? margin : 0U),
 670:Middlewares/Third_Party/QuantumLeaps_RTEF_qpc/ports/freertos/qf_port.c ****                   (uint_fast8_t)QS_EP_ID + poolNum);
 671:Middlewares/Third_Party/QuantumLeaps_RTEF_qpc/ports/freertos/qf_port.c **** #else
 672:Middlewares/Third_Party/QuantumLeaps_RTEF_qpc/ports/freertos/qf_port.c ****     e = QMPool_getFromISR(&QF_priv_.ePool_[poolNum - 1U],
 673:Middlewares/Third_Party/QuantumLeaps_RTEF_qpc/ports/freertos/qf_port.c ****                       ((margin != QF_NO_MARGIN) ? margin : 0U), 0U);
 674:Middlewares/Third_Party/QuantumLeaps_RTEF_qpc/ports/freertos/qf_port.c **** #endif
 675:Middlewares/Third_Party/QuantumLeaps_RTEF_qpc/ports/freertos/qf_port.c **** 
 676:Middlewares/Third_Party/QuantumLeaps_RTEF_qpc/ports/freertos/qf_port.c ****     if (e != (QEvt *)0) { // was e allocated correctly?
 677:Middlewares/Third_Party/QuantumLeaps_RTEF_qpc/ports/freertos/qf_port.c ****         e->sig      = (QSignal)sig; // set the signal
 678:Middlewares/Third_Party/QuantumLeaps_RTEF_qpc/ports/freertos/qf_port.c ****         e->poolNum_ = poolNum;
 679:Middlewares/Third_Party/QuantumLeaps_RTEF_qpc/ports/freertos/qf_port.c ****         e->refCtr_  = 0U;
 680:Middlewares/Third_Party/QuantumLeaps_RTEF_qpc/ports/freertos/qf_port.c **** 
 681:Middlewares/Third_Party/QuantumLeaps_RTEF_qpc/ports/freertos/qf_port.c **** #ifdef Q_SPY
 682:Middlewares/Third_Party/QuantumLeaps_RTEF_qpc/ports/freertos/qf_port.c ****         uxSavedInterruptStatus = portSET_INTERRUPT_MASK_FROM_ISR();
ARM GAS  C:\Users\main\AppData\Local\Temp\ccGWoVmJ.s 			page 29


 683:Middlewares/Third_Party/QuantumLeaps_RTEF_qpc/ports/freertos/qf_port.c ****         QS_BEGIN_PRE(QS_QF_NEW, (uint_fast8_t)QS_EP_ID + poolNum)
 684:Middlewares/Third_Party/QuantumLeaps_RTEF_qpc/ports/freertos/qf_port.c ****             QS_TIME_PRE();        // timestamp
 685:Middlewares/Third_Party/QuantumLeaps_RTEF_qpc/ports/freertos/qf_port.c ****             QS_EVS_PRE(evtSize);  // the size of the event
 686:Middlewares/Third_Party/QuantumLeaps_RTEF_qpc/ports/freertos/qf_port.c ****             QS_SIG_PRE(sig);      // the signal of the event
 687:Middlewares/Third_Party/QuantumLeaps_RTEF_qpc/ports/freertos/qf_port.c ****         QS_END_PRE()
 688:Middlewares/Third_Party/QuantumLeaps_RTEF_qpc/ports/freertos/qf_port.c ****         portCLEAR_INTERRUPT_MASK_FROM_ISR(uxSavedInterruptStatus);
 689:Middlewares/Third_Party/QuantumLeaps_RTEF_qpc/ports/freertos/qf_port.c **** #endif // def Q_SPY
 690:Middlewares/Third_Party/QuantumLeaps_RTEF_qpc/ports/freertos/qf_port.c ****     }
 691:Middlewares/Third_Party/QuantumLeaps_RTEF_qpc/ports/freertos/qf_port.c ****     else { // event was not allocated
 692:Middlewares/Third_Party/QuantumLeaps_RTEF_qpc/ports/freertos/qf_port.c ****         uxSavedInterruptStatus = portSET_INTERRUPT_MASK_FROM_ISR();
 693:Middlewares/Third_Party/QuantumLeaps_RTEF_qpc/ports/freertos/qf_port.c **** 
 694:Middlewares/Third_Party/QuantumLeaps_RTEF_qpc/ports/freertos/qf_port.c ****         // This assertion means that the event allocation failed,
 695:Middlewares/Third_Party/QuantumLeaps_RTEF_qpc/ports/freertos/qf_port.c ****         // and this failure cannot be tolerated. The most frequent
 696:Middlewares/Third_Party/QuantumLeaps_RTEF_qpc/ports/freertos/qf_port.c ****         // reason is an event leak in the application.
 697:Middlewares/Third_Party/QuantumLeaps_RTEF_qpc/ports/freertos/qf_port.c ****         Q_ASSERT_INCRIT(720, margin != QF_NO_MARGIN);
 698:Middlewares/Third_Party/QuantumLeaps_RTEF_qpc/ports/freertos/qf_port.c **** 
 699:Middlewares/Third_Party/QuantumLeaps_RTEF_qpc/ports/freertos/qf_port.c ****         QS_BEGIN_PRE(QS_QF_NEW_ATTEMPT,
 700:Middlewares/Third_Party/QuantumLeaps_RTEF_qpc/ports/freertos/qf_port.c ****                 (uint_fast8_t)QS_EP_ID + poolNum)
 701:Middlewares/Third_Party/QuantumLeaps_RTEF_qpc/ports/freertos/qf_port.c ****             QS_TIME_PRE();        // timestamp
 702:Middlewares/Third_Party/QuantumLeaps_RTEF_qpc/ports/freertos/qf_port.c ****             QS_EVS_PRE(evtSize);  // the size of the event
 703:Middlewares/Third_Party/QuantumLeaps_RTEF_qpc/ports/freertos/qf_port.c ****             QS_SIG_PRE(sig);      // the signal of the event
 704:Middlewares/Third_Party/QuantumLeaps_RTEF_qpc/ports/freertos/qf_port.c ****         QS_END_PRE()
 705:Middlewares/Third_Party/QuantumLeaps_RTEF_qpc/ports/freertos/qf_port.c **** 
 706:Middlewares/Third_Party/QuantumLeaps_RTEF_qpc/ports/freertos/qf_port.c ****         portCLEAR_INTERRUPT_MASK_FROM_ISR(uxSavedInterruptStatus);
 707:Middlewares/Third_Party/QuantumLeaps_RTEF_qpc/ports/freertos/qf_port.c ****     }
 708:Middlewares/Third_Party/QuantumLeaps_RTEF_qpc/ports/freertos/qf_port.c **** 
 709:Middlewares/Third_Party/QuantumLeaps_RTEF_qpc/ports/freertos/qf_port.c ****     // the returned event e is guaranteed to be valid (not NULL)
 710:Middlewares/Third_Party/QuantumLeaps_RTEF_qpc/ports/freertos/qf_port.c ****     // if we can't tolerate failed allocation
 711:Middlewares/Third_Party/QuantumLeaps_RTEF_qpc/ports/freertos/qf_port.c ****     return e;
 712:Middlewares/Third_Party/QuantumLeaps_RTEF_qpc/ports/freertos/qf_port.c **** }
 713:Middlewares/Third_Party/QuantumLeaps_RTEF_qpc/ports/freertos/qf_port.c **** //............................................................................
 714:Middlewares/Third_Party/QuantumLeaps_RTEF_qpc/ports/freertos/qf_port.c **** void QF_gcFromISR(QEvt const * const e) {
 715:Middlewares/Third_Party/QuantumLeaps_RTEF_qpc/ports/freertos/qf_port.c ****     UBaseType_t uxSavedInterruptStatus = portSET_INTERRUPT_MASK_FROM_ISR();
 716:Middlewares/Third_Party/QuantumLeaps_RTEF_qpc/ports/freertos/qf_port.c **** 
 717:Middlewares/Third_Party/QuantumLeaps_RTEF_qpc/ports/freertos/qf_port.c ****     Q_REQUIRE_INCRIT(800, e != (QEvt *)0);
 718:Middlewares/Third_Party/QuantumLeaps_RTEF_qpc/ports/freertos/qf_port.c **** 
 719:Middlewares/Third_Party/QuantumLeaps_RTEF_qpc/ports/freertos/qf_port.c ****     uint8_t const poolNum = e->poolNum_;
 720:Middlewares/Third_Party/QuantumLeaps_RTEF_qpc/ports/freertos/qf_port.c **** 
 721:Middlewares/Third_Party/QuantumLeaps_RTEF_qpc/ports/freertos/qf_port.c ****     if (poolNum != 0U) { // is it a pool event (mutable)?
 722:Middlewares/Third_Party/QuantumLeaps_RTEF_qpc/ports/freertos/qf_port.c **** 
 723:Middlewares/Third_Party/QuantumLeaps_RTEF_qpc/ports/freertos/qf_port.c ****         if (e->refCtr_ > 1U) { // isn't this the last reference?
 724:Middlewares/Third_Party/QuantumLeaps_RTEF_qpc/ports/freertos/qf_port.c **** 
 725:Middlewares/Third_Party/QuantumLeaps_RTEF_qpc/ports/freertos/qf_port.c ****             QS_BEGIN_PRE(QS_QF_GC_ATTEMPT,
 726:Middlewares/Third_Party/QuantumLeaps_RTEF_qpc/ports/freertos/qf_port.c ****                     (uint_fast8_t)QS_EP_ID + poolNum)
 727:Middlewares/Third_Party/QuantumLeaps_RTEF_qpc/ports/freertos/qf_port.c ****                 QS_TIME_PRE();       // timestamp
 728:Middlewares/Third_Party/QuantumLeaps_RTEF_qpc/ports/freertos/qf_port.c ****                 QS_SIG_PRE(e->sig);  // the signal of the event
 729:Middlewares/Third_Party/QuantumLeaps_RTEF_qpc/ports/freertos/qf_port.c ****                 QS_2U8_PRE(poolNum, e->refCtr_);
 730:Middlewares/Third_Party/QuantumLeaps_RTEF_qpc/ports/freertos/qf_port.c ****             QS_END_PRE()
 731:Middlewares/Third_Party/QuantumLeaps_RTEF_qpc/ports/freertos/qf_port.c **** 
 732:Middlewares/Third_Party/QuantumLeaps_RTEF_qpc/ports/freertos/qf_port.c ****             Q_ASSERT_INCRIT(805, e->refCtr_ > 0U);
 733:Middlewares/Third_Party/QuantumLeaps_RTEF_qpc/ports/freertos/qf_port.c ****             QEvt_refCtr_dec_(e); // decrement the ref counter
 734:Middlewares/Third_Party/QuantumLeaps_RTEF_qpc/ports/freertos/qf_port.c **** 
 735:Middlewares/Third_Party/QuantumLeaps_RTEF_qpc/ports/freertos/qf_port.c ****             portCLEAR_INTERRUPT_MASK_FROM_ISR(uxSavedInterruptStatus);
 736:Middlewares/Third_Party/QuantumLeaps_RTEF_qpc/ports/freertos/qf_port.c ****         }
 737:Middlewares/Third_Party/QuantumLeaps_RTEF_qpc/ports/freertos/qf_port.c ****         else { // this is the last reference to this event, recycle it
 738:Middlewares/Third_Party/QuantumLeaps_RTEF_qpc/ports/freertos/qf_port.c **** 
 739:Middlewares/Third_Party/QuantumLeaps_RTEF_qpc/ports/freertos/qf_port.c ****             QS_BEGIN_PRE(QS_QF_GC,
ARM GAS  C:\Users\main\AppData\Local\Temp\ccGWoVmJ.s 			page 30


 740:Middlewares/Third_Party/QuantumLeaps_RTEF_qpc/ports/freertos/qf_port.c ****                     (uint_fast8_t)QS_EP_ID + poolNum)
 741:Middlewares/Third_Party/QuantumLeaps_RTEF_qpc/ports/freertos/qf_port.c ****                 QS_TIME_PRE();       // timestamp
 742:Middlewares/Third_Party/QuantumLeaps_RTEF_qpc/ports/freertos/qf_port.c ****                 QS_SIG_PRE(e->sig);  // the signal of the event
 743:Middlewares/Third_Party/QuantumLeaps_RTEF_qpc/ports/freertos/qf_port.c ****                 QS_2U8_PRE(poolNum, e->refCtr_);
 744:Middlewares/Third_Party/QuantumLeaps_RTEF_qpc/ports/freertos/qf_port.c ****             QS_END_PRE()
 745:Middlewares/Third_Party/QuantumLeaps_RTEF_qpc/ports/freertos/qf_port.c **** 
 746:Middlewares/Third_Party/QuantumLeaps_RTEF_qpc/ports/freertos/qf_port.c ****             // pool number must be in range
 747:Middlewares/Third_Party/QuantumLeaps_RTEF_qpc/ports/freertos/qf_port.c ****             Q_ASSERT_INCRIT(810, (poolNum <= QF_priv_.maxPool_)
 748:Middlewares/Third_Party/QuantumLeaps_RTEF_qpc/ports/freertos/qf_port.c ****                                   && (poolNum <= QF_MAX_EPOOL));
 749:Middlewares/Third_Party/QuantumLeaps_RTEF_qpc/ports/freertos/qf_port.c ****             portCLEAR_INTERRUPT_MASK_FROM_ISR(uxSavedInterruptStatus);
 750:Middlewares/Third_Party/QuantumLeaps_RTEF_qpc/ports/freertos/qf_port.c **** 
 751:Middlewares/Third_Party/QuantumLeaps_RTEF_qpc/ports/freertos/qf_port.c ****             // NOTE: casting 'const' away is legit because 'e' is a pool event
 752:Middlewares/Third_Party/QuantumLeaps_RTEF_qpc/ports/freertos/qf_port.c **** #ifdef Q_SPY
 753:Middlewares/Third_Party/QuantumLeaps_RTEF_qpc/ports/freertos/qf_port.c ****             // cast 'const' away in (QEvt *)e is OK because it's a pool event
 754:Middlewares/Third_Party/QuantumLeaps_RTEF_qpc/ports/freertos/qf_port.c ****             QMPool_putFromISR(&QF_priv_.ePool_[poolNum - 1U], (QEvt *)e,
 755:Middlewares/Third_Party/QuantumLeaps_RTEF_qpc/ports/freertos/qf_port.c ****                               (uint_fast8_t)QS_EP_ID + e->poolNum_);
 756:Middlewares/Third_Party/QuantumLeaps_RTEF_qpc/ports/freertos/qf_port.c **** #else
 757:Middlewares/Third_Party/QuantumLeaps_RTEF_qpc/ports/freertos/qf_port.c ****             QMPool_putFromISR(&QF_priv_.ePool_[poolNum - 1U], (QEvt *)e, 0U);
 758:Middlewares/Third_Party/QuantumLeaps_RTEF_qpc/ports/freertos/qf_port.c **** #endif
 759:Middlewares/Third_Party/QuantumLeaps_RTEF_qpc/ports/freertos/qf_port.c ****         }
 760:Middlewares/Third_Party/QuantumLeaps_RTEF_qpc/ports/freertos/qf_port.c ****     }
 761:Middlewares/Third_Party/QuantumLeaps_RTEF_qpc/ports/freertos/qf_port.c ****     else {
 762:Middlewares/Third_Party/QuantumLeaps_RTEF_qpc/ports/freertos/qf_port.c ****         portCLEAR_INTERRUPT_MASK_FROM_ISR(uxSavedInterruptStatus);
 763:Middlewares/Third_Party/QuantumLeaps_RTEF_qpc/ports/freertos/qf_port.c ****     }
 764:Middlewares/Third_Party/QuantumLeaps_RTEF_qpc/ports/freertos/qf_port.c **** }
 765:Middlewares/Third_Party/QuantumLeaps_RTEF_qpc/ports/freertos/qf_port.c **** //............................................................................
 766:Middlewares/Third_Party/QuantumLeaps_RTEF_qpc/ports/freertos/qf_port.c **** void *QMPool_getFromISR(QMPool * const me, uint_fast16_t const margin,
 767:Middlewares/Third_Party/QuantumLeaps_RTEF_qpc/ports/freertos/qf_port.c ****                         uint_fast8_t const qsId)
 768:Middlewares/Third_Party/QuantumLeaps_RTEF_qpc/ports/freertos/qf_port.c **** {
 835              		.loc 1 768 1 view -0
 836              		.cfi_startproc
 837              		@ args = 0, pretend = 0, frame = 0
 838              		@ frame_needed = 0, uses_anonymous_args = 0
 839              		.loc 1 768 1 is_stmt 0 view .LVU198
 840 0000 70B5     		push	{r4, r5, r6, lr}
 841              	.LCFI13:
 842              		.cfi_def_cfa_offset 16
 843              		.cfi_offset 4, -16
 844              		.cfi_offset 5, -12
 845              		.cfi_offset 6, -8
 846              		.cfi_offset 14, -4
 847 0002 0400     		movs	r4, r0
 848 0004 0D00     		movs	r5, r1
 769:Middlewares/Third_Party/QuantumLeaps_RTEF_qpc/ports/freertos/qf_port.c **** #ifndef Q_SPY
 770:Middlewares/Third_Party/QuantumLeaps_RTEF_qpc/ports/freertos/qf_port.c ****     Q_UNUSED_PAR(qsId);
 849              		.loc 1 770 5 is_stmt 1 view .LVU199
 771:Middlewares/Third_Party/QuantumLeaps_RTEF_qpc/ports/freertos/qf_port.c **** #endif
 772:Middlewares/Third_Party/QuantumLeaps_RTEF_qpc/ports/freertos/qf_port.c **** 
 773:Middlewares/Third_Party/QuantumLeaps_RTEF_qpc/ports/freertos/qf_port.c ****     UBaseType_t uxSavedInterruptStatus = portSET_INTERRUPT_MASK_FROM_ISR();
 850              		.loc 1 773 5 view .LVU200
 851              		.loc 1 773 42 is_stmt 0 view .LVU201
 852 0006 FFF7FEFF 		bl	ulSetInterruptMaskFromISR
 853              	.LVL90:
 774:Middlewares/Third_Party/QuantumLeaps_RTEF_qpc/ports/freertos/qf_port.c **** 
 775:Middlewares/Third_Party/QuantumLeaps_RTEF_qpc/ports/freertos/qf_port.c ****     // get volatile into temporaries
 776:Middlewares/Third_Party/QuantumLeaps_RTEF_qpc/ports/freertos/qf_port.c ****     void * *pfb = me->freeHead; // pointer to free block
 854              		.loc 1 776 5 is_stmt 1 view .LVU202
ARM GAS  C:\Users\main\AppData\Local\Temp\ccGWoVmJ.s 			page 31


 855              		.loc 1 776 13 is_stmt 0 view .LVU203
 856 000a A668     		ldr	r6, [r4, #8]
 857              	.LVL91:
 777:Middlewares/Third_Party/QuantumLeaps_RTEF_qpc/ports/freertos/qf_port.c ****     QMPoolCtr nFree = me->nFree;
 858              		.loc 1 777 5 is_stmt 1 view .LVU204
 859              		.loc 1 777 15 is_stmt 0 view .LVU205
 860 000c 238A     		ldrh	r3, [r4, #16]
 861 000e 9BB2     		uxth	r3, r3
 862              	.LVL92:
 778:Middlewares/Third_Party/QuantumLeaps_RTEF_qpc/ports/freertos/qf_port.c **** 
 779:Middlewares/Third_Party/QuantumLeaps_RTEF_qpc/ports/freertos/qf_port.c ****     // have more free blocks than the requested margin?
 780:Middlewares/Third_Party/QuantumLeaps_RTEF_qpc/ports/freertos/qf_port.c ****     if (nFree > (QMPoolCtr)margin) {
 863              		.loc 1 780 5 is_stmt 1 view .LVU206
 864              		.loc 1 780 17 is_stmt 0 view .LVU207
 865 0010 ADB2     		uxth	r5, r5
 866              	.LVL93:
 867              		.loc 1 780 8 view .LVU208
 868 0012 9D42     		cmp	r5, r3
 869 0014 2CD2     		bcs	.L65
 870              	.LBB32:
 781:Middlewares/Third_Party/QuantumLeaps_RTEF_qpc/ports/freertos/qf_port.c ****         Q_ASSERT_INCRIT(910, pfb != (void**)0);
 871              		.loc 1 781 9 is_stmt 1 view .LVU209
 872 0016 002E     		cmp	r6, #0
 873 0018 11D0     		beq	.L66
 782:Middlewares/Third_Party/QuantumLeaps_RTEF_qpc/ports/freertos/qf_port.c **** 
 783:Middlewares/Third_Party/QuantumLeaps_RTEF_qpc/ports/freertos/qf_port.c ****         void ** const pfb_next = pfb[0]; // fast temporary
 874              		.loc 1 783 9 view .LVU210
 875              		.loc 1 783 23 is_stmt 0 view .LVU211
 876 001a 3268     		ldr	r2, [r6]
 877              	.LVL94:
 784:Middlewares/Third_Party/QuantumLeaps_RTEF_qpc/ports/freertos/qf_port.c **** 
 785:Middlewares/Third_Party/QuantumLeaps_RTEF_qpc/ports/freertos/qf_port.c ****         --nFree; // one less free block
 878              		.loc 1 785 9 is_stmt 1 view .LVU212
 879 001c 013B     		subs	r3, r3, #1
 880              	.LVL95:
 881              		.loc 1 785 9 is_stmt 0 view .LVU213
 882 001e 9BB2     		uxth	r3, r3
 883              	.LVL96:
 786:Middlewares/Third_Party/QuantumLeaps_RTEF_qpc/ports/freertos/qf_port.c ****         if (nFree == 0U) { // is the pool becoming empty?
 884              		.loc 1 786 9 is_stmt 1 view .LVU214
 885              		.loc 1 786 12 is_stmt 0 view .LVU215
 886 0020 002B     		cmp	r3, #0
 887 0022 15D1     		bne	.L60
 787:Middlewares/Third_Party/QuantumLeaps_RTEF_qpc/ports/freertos/qf_port.c ****             // pool is becoming empty, so the next free block must be NULL
 788:Middlewares/Third_Party/QuantumLeaps_RTEF_qpc/ports/freertos/qf_port.c ****             Q_ASSERT_INCRIT(920, pfb_next == (void**)0);
 888              		.loc 1 788 13 is_stmt 1 view .LVU216
 889 0024 002A     		cmp	r2, #0
 890 0026 0ED1     		bne	.L67
 789:Middlewares/Third_Party/QuantumLeaps_RTEF_qpc/ports/freertos/qf_port.c **** 
 790:Middlewares/Third_Party/QuantumLeaps_RTEF_qpc/ports/freertos/qf_port.c ****             me->nFree = 0U; // no more free blocks
 891              		.loc 1 790 13 view .LVU217
 892              		.loc 1 790 23 is_stmt 0 view .LVU218
 893 0028 0023     		movs	r3, #0
 894              	.LVL97:
 895              		.loc 1 790 23 view .LVU219
 896 002a 2382     		strh	r3, [r4, #16]
 791:Middlewares/Third_Party/QuantumLeaps_RTEF_qpc/ports/freertos/qf_port.c ****             me->nMin = 0U;  // remember that the pool got empty
ARM GAS  C:\Users\main\AppData\Local\Temp\ccGWoVmJ.s 			page 32


 897              		.loc 1 791 13 is_stmt 1 view .LVU220
 898              		.loc 1 791 22 is_stmt 0 view .LVU221
 899 002c 6382     		strh	r3, [r4, #18]
 900              	.L62:
 792:Middlewares/Third_Party/QuantumLeaps_RTEF_qpc/ports/freertos/qf_port.c ****         }
 793:Middlewares/Third_Party/QuantumLeaps_RTEF_qpc/ports/freertos/qf_port.c ****         else { // the pool is NOT empty
 794:Middlewares/Third_Party/QuantumLeaps_RTEF_qpc/ports/freertos/qf_port.c **** 
 795:Middlewares/Third_Party/QuantumLeaps_RTEF_qpc/ports/freertos/qf_port.c ****             // the next free-block pointer must be in range
 796:Middlewares/Third_Party/QuantumLeaps_RTEF_qpc/ports/freertos/qf_port.c ****             Q_ASSERT_INCRIT(930,
 797:Middlewares/Third_Party/QuantumLeaps_RTEF_qpc/ports/freertos/qf_port.c ****                 (me->start <= pfb_next) && (pfb_next <= me->end));
 798:Middlewares/Third_Party/QuantumLeaps_RTEF_qpc/ports/freertos/qf_port.c **** 
 799:Middlewares/Third_Party/QuantumLeaps_RTEF_qpc/ports/freertos/qf_port.c ****             me->nFree = nFree; // update the original
 800:Middlewares/Third_Party/QuantumLeaps_RTEF_qpc/ports/freertos/qf_port.c ****             if (me->nMin > nFree) { // is this the new minimum?
 801:Middlewares/Third_Party/QuantumLeaps_RTEF_qpc/ports/freertos/qf_port.c ****                 me->nMin = nFree; // remember the minimum so far
 802:Middlewares/Third_Party/QuantumLeaps_RTEF_qpc/ports/freertos/qf_port.c ****             }
 803:Middlewares/Third_Party/QuantumLeaps_RTEF_qpc/ports/freertos/qf_port.c ****         }
 804:Middlewares/Third_Party/QuantumLeaps_RTEF_qpc/ports/freertos/qf_port.c **** 
 805:Middlewares/Third_Party/QuantumLeaps_RTEF_qpc/ports/freertos/qf_port.c ****         me->freeHead = pfb_next; // set the head to the next free block
 901              		.loc 1 805 9 is_stmt 1 view .LVU222
 902              		.loc 1 805 22 is_stmt 0 view .LVU223
 903 002e A260     		str	r2, [r4, #8]
 806:Middlewares/Third_Party/QuantumLeaps_RTEF_qpc/ports/freertos/qf_port.c **** 
 807:Middlewares/Third_Party/QuantumLeaps_RTEF_qpc/ports/freertos/qf_port.c ****         // change the allocated block contents so that it is different
 808:Middlewares/Third_Party/QuantumLeaps_RTEF_qpc/ports/freertos/qf_port.c ****         // than a free block inside the pool.
 809:Middlewares/Third_Party/QuantumLeaps_RTEF_qpc/ports/freertos/qf_port.c ****         pfb[0] = &me->end[1]; // invalid location beyond the end
 904              		.loc 1 809 9 is_stmt 1 view .LVU224
 905              		.loc 1 809 21 is_stmt 0 view .LVU225
 906 0030 6368     		ldr	r3, [r4, #4]
 907              		.loc 1 809 18 view .LVU226
 908 0032 0433     		adds	r3, r3, #4
 909              		.loc 1 809 16 view .LVU227
 910 0034 3360     		str	r3, [r6]
 810:Middlewares/Third_Party/QuantumLeaps_RTEF_qpc/ports/freertos/qf_port.c **** 
 811:Middlewares/Third_Party/QuantumLeaps_RTEF_qpc/ports/freertos/qf_port.c ****         QS_BEGIN_PRE(QS_QF_MPOOL_GET, qsId)
 911              		.loc 1 811 9 is_stmt 1 view .LVU228
 812:Middlewares/Third_Party/QuantumLeaps_RTEF_qpc/ports/freertos/qf_port.c ****             QS_TIME_PRE();         // timestamp
 912              		.loc 1 812 13 view .LVU229
 813:Middlewares/Third_Party/QuantumLeaps_RTEF_qpc/ports/freertos/qf_port.c ****             QS_OBJ_PRE(me);        // this memory pool
 913              		.loc 1 813 13 view .LVU230
 814:Middlewares/Third_Party/QuantumLeaps_RTEF_qpc/ports/freertos/qf_port.c ****             QS_MPC_PRE(nFree);     // # free blocks in the pool
 914              		.loc 1 814 13 view .LVU231
 815:Middlewares/Third_Party/QuantumLeaps_RTEF_qpc/ports/freertos/qf_port.c ****             QS_MPC_PRE(me->nMin);  // min # free blocks ever in the pool
 915              		.loc 1 815 13 view .LVU232
 916              	.LVL98:
 917              	.L58:
 918              		.loc 1 815 13 is_stmt 0 view .LVU233
 919              	.LBE32:
 816:Middlewares/Third_Party/QuantumLeaps_RTEF_qpc/ports/freertos/qf_port.c ****         QS_END_PRE()
 817:Middlewares/Third_Party/QuantumLeaps_RTEF_qpc/ports/freertos/qf_port.c ****     }
 818:Middlewares/Third_Party/QuantumLeaps_RTEF_qpc/ports/freertos/qf_port.c ****     else { // don't have enough free blocks at this point
 819:Middlewares/Third_Party/QuantumLeaps_RTEF_qpc/ports/freertos/qf_port.c ****         pfb = (void**)0;
 820:Middlewares/Third_Party/QuantumLeaps_RTEF_qpc/ports/freertos/qf_port.c **** 
 821:Middlewares/Third_Party/QuantumLeaps_RTEF_qpc/ports/freertos/qf_port.c ****         QS_BEGIN_PRE(QS_QF_MPOOL_GET_ATTEMPT, qsId)
 822:Middlewares/Third_Party/QuantumLeaps_RTEF_qpc/ports/freertos/qf_port.c ****             QS_TIME_PRE();         // timestamp
 920              		.loc 1 822 13 is_stmt 1 view .LVU234
 823:Middlewares/Third_Party/QuantumLeaps_RTEF_qpc/ports/freertos/qf_port.c ****             QS_OBJ_PRE(me);        // this memory pool
 921              		.loc 1 823 13 view .LVU235
ARM GAS  C:\Users\main\AppData\Local\Temp\ccGWoVmJ.s 			page 33


 824:Middlewares/Third_Party/QuantumLeaps_RTEF_qpc/ports/freertos/qf_port.c ****             QS_MPC_PRE(nFree);     // # free blocks in the pool
 922              		.loc 1 824 13 view .LVU236
 825:Middlewares/Third_Party/QuantumLeaps_RTEF_qpc/ports/freertos/qf_port.c ****             QS_MPC_PRE(margin);    // the requested margin
 923              		.loc 1 825 13 view .LVU237
 826:Middlewares/Third_Party/QuantumLeaps_RTEF_qpc/ports/freertos/qf_port.c ****         QS_END_PRE()
 827:Middlewares/Third_Party/QuantumLeaps_RTEF_qpc/ports/freertos/qf_port.c ****     }
 828:Middlewares/Third_Party/QuantumLeaps_RTEF_qpc/ports/freertos/qf_port.c **** 
 829:Middlewares/Third_Party/QuantumLeaps_RTEF_qpc/ports/freertos/qf_port.c ****     portCLEAR_INTERRUPT_MASK_FROM_ISR(uxSavedInterruptStatus);
 924              		.loc 1 829 5 view .LVU238
 925 0036 FFF7FEFF 		bl	vClearInterruptMaskFromISR
 926              	.LVL99:
 830:Middlewares/Third_Party/QuantumLeaps_RTEF_qpc/ports/freertos/qf_port.c **** 
 831:Middlewares/Third_Party/QuantumLeaps_RTEF_qpc/ports/freertos/qf_port.c ****     return (void *)pfb; // return the block or NULL pointer to the caller
 927              		.loc 1 831 5 view .LVU239
 832:Middlewares/Third_Party/QuantumLeaps_RTEF_qpc/ports/freertos/qf_port.c **** }
 928              		.loc 1 832 1 is_stmt 0 view .LVU240
 929 003a 3000     		movs	r0, r6
 930              		@ sp needed
 931              	.LVL100:
 932              	.LVL101:
 933              		.loc 1 832 1 view .LVU241
 934 003c 70BD     		pop	{r4, r5, r6, pc}
 935              	.LVL102:
 936              	.L66:
 937              	.LBB33:
 781:Middlewares/Third_Party/QuantumLeaps_RTEF_qpc/ports/freertos/qf_port.c **** 
 938              		.loc 1 781 9 discriminator 1 view .LVU242
 939 003e 0D49     		ldr	r1, .L68
 940 0040 0D48     		ldr	r0, .L68+4
 941              	.LVL103:
 781:Middlewares/Third_Party/QuantumLeaps_RTEF_qpc/ports/freertos/qf_port.c **** 
 942              		.loc 1 781 9 discriminator 1 view .LVU243
 943 0042 FFF7FEFF 		bl	Q_onError
 944              	.LVL104:
 945              	.L67:
 788:Middlewares/Third_Party/QuantumLeaps_RTEF_qpc/ports/freertos/qf_port.c **** 
 946              		.loc 1 788 13 discriminator 1 view .LVU244
 947 0046 E621     		movs	r1, #230
 948 0048 8900     		lsls	r1, r1, #2
 949 004a 0B48     		ldr	r0, .L68+4
 950              	.LVL105:
 788:Middlewares/Third_Party/QuantumLeaps_RTEF_qpc/ports/freertos/qf_port.c **** 
 951              		.loc 1 788 13 discriminator 1 view .LVU245
 952 004c FFF7FEFF 		bl	Q_onError
 953              	.LVL106:
 954              	.L60:
 796:Middlewares/Third_Party/QuantumLeaps_RTEF_qpc/ports/freertos/qf_port.c ****                 (me->start <= pfb_next) && (pfb_next <= me->end));
 955              		.loc 1 796 13 is_stmt 1 view .LVU246
 956 0050 2168     		ldr	r1, [r4]
 957 0052 9142     		cmp	r1, r2
 958 0054 08D8     		bhi	.L63
 796:Middlewares/Third_Party/QuantumLeaps_RTEF_qpc/ports/freertos/qf_port.c ****                 (me->start <= pfb_next) && (pfb_next <= me->end));
 959              		.loc 1 796 13 is_stmt 0 discriminator 2 view .LVU247
 960 0056 6168     		ldr	r1, [r4, #4]
 961 0058 9142     		cmp	r1, r2
 962 005a 05D3     		bcc	.L63
 799:Middlewares/Third_Party/QuantumLeaps_RTEF_qpc/ports/freertos/qf_port.c ****             if (me->nMin > nFree) { // is this the new minimum?
ARM GAS  C:\Users\main\AppData\Local\Temp\ccGWoVmJ.s 			page 34


 963              		.loc 1 799 13 is_stmt 1 view .LVU248
 799:Middlewares/Third_Party/QuantumLeaps_RTEF_qpc/ports/freertos/qf_port.c ****             if (me->nMin > nFree) { // is this the new minimum?
 964              		.loc 1 799 23 is_stmt 0 view .LVU249
 965 005c 2382     		strh	r3, [r4, #16]
 800:Middlewares/Third_Party/QuantumLeaps_RTEF_qpc/ports/freertos/qf_port.c ****                 me->nMin = nFree; // remember the minimum so far
 966              		.loc 1 800 13 is_stmt 1 view .LVU250
 800:Middlewares/Third_Party/QuantumLeaps_RTEF_qpc/ports/freertos/qf_port.c ****                 me->nMin = nFree; // remember the minimum so far
 967              		.loc 1 800 19 is_stmt 0 view .LVU251
 968 005e 618A     		ldrh	r1, [r4, #18]
 800:Middlewares/Third_Party/QuantumLeaps_RTEF_qpc/ports/freertos/qf_port.c ****                 me->nMin = nFree; // remember the minimum so far
 969              		.loc 1 800 16 view .LVU252
 970 0060 9942     		cmp	r1, r3
 971 0062 E4D9     		bls	.L62
 801:Middlewares/Third_Party/QuantumLeaps_RTEF_qpc/ports/freertos/qf_port.c ****             }
 972              		.loc 1 801 17 is_stmt 1 view .LVU253
 801:Middlewares/Third_Party/QuantumLeaps_RTEF_qpc/ports/freertos/qf_port.c ****             }
 973              		.loc 1 801 26 is_stmt 0 view .LVU254
 974 0064 6382     		strh	r3, [r4, #18]
 975 0066 E2E7     		b	.L62
 976              	.L63:
 796:Middlewares/Third_Party/QuantumLeaps_RTEF_qpc/ports/freertos/qf_port.c ****                 (me->start <= pfb_next) && (pfb_next <= me->end));
 977              		.loc 1 796 13 discriminator 3 view .LVU255
 978 0068 0449     		ldr	r1, .L68+8
 979 006a 0348     		ldr	r0, .L68+4
 980              	.LVL107:
 796:Middlewares/Third_Party/QuantumLeaps_RTEF_qpc/ports/freertos/qf_port.c ****                 (me->start <= pfb_next) && (pfb_next <= me->end));
 981              		.loc 1 796 13 discriminator 3 view .LVU256
 982 006c FFF7FEFF 		bl	Q_onError
 983              	.LVL108:
 984              	.L65:
 796:Middlewares/Third_Party/QuantumLeaps_RTEF_qpc/ports/freertos/qf_port.c ****                 (me->start <= pfb_next) && (pfb_next <= me->end));
 985              		.loc 1 796 13 discriminator 3 view .LVU257
 986              	.LBE33:
 819:Middlewares/Third_Party/QuantumLeaps_RTEF_qpc/ports/freertos/qf_port.c **** 
 987              		.loc 1 819 13 view .LVU258
 988 0070 0026     		movs	r6, #0
 989              	.LVL109:
 819:Middlewares/Third_Party/QuantumLeaps_RTEF_qpc/ports/freertos/qf_port.c **** 
 990              		.loc 1 819 13 view .LVU259
 991 0072 E0E7     		b	.L58
 992              	.L69:
 993              		.align	2
 994              	.L68:
 995 0074 8E030000 		.word	910
 996 0078 00000000 		.word	.LANCHOR0
 997 007c A2030000 		.word	930
 998              		.cfi_endproc
 999              	.LFE32:
 1001              		.section	.text.QF_newXFromISR_,"ax",%progbits
 1002              		.align	1
 1003              		.global	QF_newXFromISR_
 1004              		.syntax unified
 1005              		.code	16
 1006              		.thumb_func
 1008              	QF_newXFromISR_:
 1009              	.LVL110:
 1010              	.LFB30:
ARM GAS  C:\Users\main\AppData\Local\Temp\ccGWoVmJ.s 			page 35


 646:Middlewares/Third_Party/QuantumLeaps_RTEF_qpc/ports/freertos/qf_port.c ****     // find the pool number that fits the requested event size...
 1011              		.loc 1 646 1 is_stmt 1 view -0
 1012              		.cfi_startproc
 1013              		@ args = 0, pretend = 0, frame = 0
 1014              		@ frame_needed = 0, uses_anonymous_args = 0
 646:Middlewares/Third_Party/QuantumLeaps_RTEF_qpc/ports/freertos/qf_port.c ****     // find the pool number that fits the requested event size...
 1015              		.loc 1 646 1 is_stmt 0 view .LVU261
 1016 0000 F8B5     		push	{r3, r4, r5, r6, r7, lr}
 1017              	.LCFI14:
 1018              		.cfi_def_cfa_offset 24
 1019              		.cfi_offset 3, -24
 1020              		.cfi_offset 4, -20
 1021              		.cfi_offset 5, -16
 1022              		.cfi_offset 6, -12
 1023              		.cfi_offset 7, -8
 1024              		.cfi_offset 14, -4
 1025 0002 0D00     		movs	r5, r1
 1026 0004 1700     		movs	r7, r2
 648:Middlewares/Third_Party/QuantumLeaps_RTEF_qpc/ports/freertos/qf_port.c ****     for (; poolNum < QF_priv_.maxPool_; ++poolNum) {
 1027              		.loc 1 648 5 is_stmt 1 view .LVU262
 1028              	.LVL111:
 649:Middlewares/Third_Party/QuantumLeaps_RTEF_qpc/ports/freertos/qf_port.c ****         if (evtSize <= QF_EPOOL_EVENT_SIZE_(QF_priv_.ePool_[poolNum])) {
 1029              		.loc 1 649 5 view .LVU263
 648:Middlewares/Third_Party/QuantumLeaps_RTEF_qpc/ports/freertos/qf_port.c ****     for (; poolNum < QF_priv_.maxPool_; ++poolNum) {
 1030              		.loc 1 648 13 is_stmt 0 view .LVU264
 1031 0006 0024     		movs	r4, #0
 649:Middlewares/Third_Party/QuantumLeaps_RTEF_qpc/ports/freertos/qf_port.c ****         if (evtSize <= QF_EPOOL_EVENT_SIZE_(QF_priv_.ePool_[poolNum])) {
 1032              		.loc 1 649 5 view .LVU265
 1033 0008 01E0     		b	.L71
 1034              	.LVL112:
 1035              	.L80:
 649:Middlewares/Third_Party/QuantumLeaps_RTEF_qpc/ports/freertos/qf_port.c ****         if (evtSize <= QF_EPOOL_EVENT_SIZE_(QF_priv_.ePool_[poolNum])) {
 1036              		.loc 1 649 41 is_stmt 1 view .LVU266
 1037 000a 0134     		adds	r4, r4, #1
 1038              	.LVL113:
 649:Middlewares/Third_Party/QuantumLeaps_RTEF_qpc/ports/freertos/qf_port.c ****         if (evtSize <= QF_EPOOL_EVENT_SIZE_(QF_priv_.ePool_[poolNum])) {
 1039              		.loc 1 649 41 is_stmt 0 view .LVU267
 1040 000c E4B2     		uxtb	r4, r4
 1041              	.LVL114:
 1042              	.L71:
 649:Middlewares/Third_Party/QuantumLeaps_RTEF_qpc/ports/freertos/qf_port.c ****         if (evtSize <= QF_EPOOL_EVENT_SIZE_(QF_priv_.ePool_[poolNum])) {
 1043              		.loc 1 649 12 is_stmt 1 discriminator 1 view .LVU268
 649:Middlewares/Third_Party/QuantumLeaps_RTEF_qpc/ports/freertos/qf_port.c ****         if (evtSize <= QF_EPOOL_EVENT_SIZE_(QF_priv_.ePool_[poolNum])) {
 1044              		.loc 1 649 20 is_stmt 0 discriminator 1 view .LVU269
 1045 000e 2600     		movs	r6, r4
 649:Middlewares/Third_Party/QuantumLeaps_RTEF_qpc/ports/freertos/qf_port.c ****         if (evtSize <= QF_EPOOL_EVENT_SIZE_(QF_priv_.ePool_[poolNum])) {
 1046              		.loc 1 649 30 discriminator 1 view .LVU270
 1047 0010 1F4B     		ldr	r3, .L83
 1048 0012 DB6B     		ldr	r3, [r3, #60]
 649:Middlewares/Third_Party/QuantumLeaps_RTEF_qpc/ports/freertos/qf_port.c ****         if (evtSize <= QF_EPOOL_EVENT_SIZE_(QF_priv_.ePool_[poolNum])) {
 1049              		.loc 1 649 5 discriminator 1 view .LVU271
 1050 0014 9C42     		cmp	r4, r3
 1051 0016 07D2     		bcs	.L72
 650:Middlewares/Third_Party/QuantumLeaps_RTEF_qpc/ports/freertos/qf_port.c ****             break;
 1052              		.loc 1 650 9 is_stmt 1 view .LVU272
 650:Middlewares/Third_Party/QuantumLeaps_RTEF_qpc/ports/freertos/qf_port.c ****             break;
 1053              		.loc 1 650 24 is_stmt 0 view .LVU273
ARM GAS  C:\Users\main\AppData\Local\Temp\ccGWoVmJ.s 			page 36


 1054 0018 A300     		lsls	r3, r4, #2
 1055 001a 1B19     		adds	r3, r3, r4
 1056 001c 9B00     		lsls	r3, r3, #2
 1057 001e 1C4A     		ldr	r2, .L83
 1058 0020 D318     		adds	r3, r2, r3
 1059 0022 9B89     		ldrh	r3, [r3, #12]
 650:Middlewares/Third_Party/QuantumLeaps_RTEF_qpc/ports/freertos/qf_port.c ****             break;
 1060              		.loc 1 650 12 view .LVU274
 1061 0024 8342     		cmp	r3, r0
 1062 0026 F0D3     		bcc	.L80
 1063              	.L72:
 655:Middlewares/Third_Party/QuantumLeaps_RTEF_qpc/ports/freertos/qf_port.c **** 
 1064              		.loc 1 655 5 is_stmt 1 view .LVU275
 655:Middlewares/Third_Party/QuantumLeaps_RTEF_qpc/ports/freertos/qf_port.c **** 
 1065              		.loc 1 655 42 is_stmt 0 view .LVU276
 1066 0028 FFF7FEFF 		bl	ulSetInterruptMaskFromISR
 1067              	.LVL115:
 659:Middlewares/Third_Party/QuantumLeaps_RTEF_qpc/ports/freertos/qf_port.c **** 
 1068              		.loc 1 659 5 is_stmt 1 view .LVU277
 1069 002c 184B     		ldr	r3, .L83
 1070 002e DB6B     		ldr	r3, [r3, #60]
 1071 0030 9E42     		cmp	r6, r3
 1072 0032 18D2     		bcs	.L81
 661:Middlewares/Third_Party/QuantumLeaps_RTEF_qpc/ports/freertos/qf_port.c **** 
 1073              		.loc 1 661 5 view .LVU278
 1074 0034 0134     		adds	r4, r4, #1
 1075              	.LVL116:
 661:Middlewares/Third_Party/QuantumLeaps_RTEF_qpc/ports/freertos/qf_port.c **** 
 1076              		.loc 1 661 5 is_stmt 0 view .LVU279
 1077 0036 E4B2     		uxtb	r4, r4
 1078              	.LVL117:
 663:Middlewares/Third_Party/QuantumLeaps_RTEF_qpc/ports/freertos/qf_port.c **** 
 1079              		.loc 1 663 5 is_stmt 1 view .LVU280
 1080 0038 FFF7FEFF 		bl	vClearInterruptMaskFromISR
 1081              	.LVL118:
 666:Middlewares/Third_Party/QuantumLeaps_RTEF_qpc/ports/freertos/qf_port.c **** #ifdef Q_SPY
 1082              		.loc 1 666 5 view .LVU281
 672:Middlewares/Third_Party/QuantumLeaps_RTEF_qpc/ports/freertos/qf_port.c ****                       ((margin != QF_NO_MARGIN) ? margin : 0U), 0U);
 1083              		.loc 1 672 5 view .LVU282
 672:Middlewares/Third_Party/QuantumLeaps_RTEF_qpc/ports/freertos/qf_port.c ****                       ((margin != QF_NO_MARGIN) ? margin : 0U), 0U);
 1084              		.loc 1 672 52 is_stmt 0 view .LVU283
 1085 003c 631E     		subs	r3, r4, #1
 672:Middlewares/Third_Party/QuantumLeaps_RTEF_qpc/ports/freertos/qf_port.c ****                       ((margin != QF_NO_MARGIN) ? margin : 0U), 0U);
 1086              		.loc 1 672 9 view .LVU284
 1087 003e 9800     		lsls	r0, r3, #2
 1088 0040 C018     		adds	r0, r0, r3
 1089 0042 8000     		lsls	r0, r0, #2
 1090 0044 124B     		ldr	r3, .L83
 1091 0046 C018     		adds	r0, r0, r3
 1092 0048 124B     		ldr	r3, .L83+4
 1093 004a 9D42     		cmp	r5, r3
 1094 004c 10D0     		beq	.L79
 1095 004e 2900     		movs	r1, r5
 1096              	.L75:
 672:Middlewares/Third_Party/QuantumLeaps_RTEF_qpc/ports/freertos/qf_port.c ****                       ((margin != QF_NO_MARGIN) ? margin : 0U), 0U);
 1097              		.loc 1 672 9 discriminator 4 view .LVU285
 1098 0050 0022     		movs	r2, #0
ARM GAS  C:\Users\main\AppData\Local\Temp\ccGWoVmJ.s 			page 37


 1099 0052 FFF7FEFF 		bl	QMPool_getFromISR
 1100              	.LVL119:
 1101 0056 061E     		subs	r6, r0, #0
 1102              	.LVL120:
 676:Middlewares/Third_Party/QuantumLeaps_RTEF_qpc/ports/freertos/qf_port.c ****         e->sig      = (QSignal)sig; // set the signal
 1103              		.loc 1 676 5 is_stmt 1 discriminator 4 view .LVU286
 676:Middlewares/Third_Party/QuantumLeaps_RTEF_qpc/ports/freertos/qf_port.c ****         e->sig      = (QSignal)sig; // set the signal
 1104              		.loc 1 676 8 is_stmt 0 discriminator 4 view .LVU287
 1105 0058 0CD0     		beq	.L76
 677:Middlewares/Third_Party/QuantumLeaps_RTEF_qpc/ports/freertos/qf_port.c ****         e->poolNum_ = poolNum;
 1106              		.loc 1 677 9 is_stmt 1 view .LVU288
 677:Middlewares/Third_Party/QuantumLeaps_RTEF_qpc/ports/freertos/qf_port.c ****         e->poolNum_ = poolNum;
 1107              		.loc 1 677 21 is_stmt 0 view .LVU289
 1108 005a 0780     		strh	r7, [r0]
 678:Middlewares/Third_Party/QuantumLeaps_RTEF_qpc/ports/freertos/qf_port.c ****         e->refCtr_  = 0U;
 1109              		.loc 1 678 9 is_stmt 1 view .LVU290
 678:Middlewares/Third_Party/QuantumLeaps_RTEF_qpc/ports/freertos/qf_port.c ****         e->refCtr_  = 0U;
 1110              		.loc 1 678 21 is_stmt 0 view .LVU291
 1111 005c 8470     		strb	r4, [r0, #2]
 679:Middlewares/Third_Party/QuantumLeaps_RTEF_qpc/ports/freertos/qf_port.c **** 
 1112              		.loc 1 679 9 is_stmt 1 view .LVU292
 679:Middlewares/Third_Party/QuantumLeaps_RTEF_qpc/ports/freertos/qf_port.c **** 
 1113              		.loc 1 679 21 is_stmt 0 view .LVU293
 1114 005e 0023     		movs	r3, #0
 1115 0060 C370     		strb	r3, [r0, #3]
 1116              	.LVL121:
 1117              	.L70:
 712:Middlewares/Third_Party/QuantumLeaps_RTEF_qpc/ports/freertos/qf_port.c **** //............................................................................
 1118              		.loc 1 712 1 view .LVU294
 1119 0062 3000     		movs	r0, r6
 1120              		@ sp needed
 1121              	.LVL122:
 1122              	.LVL123:
 1123              	.LVL124:
 1124              	.LVL125:
 712:Middlewares/Third_Party/QuantumLeaps_RTEF_qpc/ports/freertos/qf_port.c **** //............................................................................
 1125              		.loc 1 712 1 view .LVU295
 1126 0064 F8BD     		pop	{r3, r4, r5, r6, r7, pc}
 1127              	.LVL126:
 1128              	.L81:
 659:Middlewares/Third_Party/QuantumLeaps_RTEF_qpc/ports/freertos/qf_port.c **** 
 1129              		.loc 1 659 5 discriminator 1 view .LVU296
 1130 0066 AF21     		movs	r1, #175
 1131 0068 8900     		lsls	r1, r1, #2
 1132 006a 0B48     		ldr	r0, .L83+8
 1133              	.LVL127:
 659:Middlewares/Third_Party/QuantumLeaps_RTEF_qpc/ports/freertos/qf_port.c **** 
 1134              		.loc 1 659 5 discriminator 1 view .LVU297
 1135 006c FFF7FEFF 		bl	Q_onError
 1136              	.LVL128:
 1137              	.L79:
 672:Middlewares/Third_Party/QuantumLeaps_RTEF_qpc/ports/freertos/qf_port.c ****                       ((margin != QF_NO_MARGIN) ? margin : 0U), 0U);
 1138              		.loc 1 672 9 view .LVU298
 1139 0070 0021     		movs	r1, #0
 1140 0072 EDE7     		b	.L75
 1141              	.LVL129:
 1142              	.L76:
ARM GAS  C:\Users\main\AppData\Local\Temp\ccGWoVmJ.s 			page 38


 692:Middlewares/Third_Party/QuantumLeaps_RTEF_qpc/ports/freertos/qf_port.c **** 
 1143              		.loc 1 692 9 is_stmt 1 view .LVU299
 692:Middlewares/Third_Party/QuantumLeaps_RTEF_qpc/ports/freertos/qf_port.c **** 
 1144              		.loc 1 692 34 is_stmt 0 view .LVU300
 1145 0074 FFF7FEFF 		bl	ulSetInterruptMaskFromISR
 1146              	.LVL130:
 697:Middlewares/Third_Party/QuantumLeaps_RTEF_qpc/ports/freertos/qf_port.c **** 
 1147              		.loc 1 697 9 is_stmt 1 view .LVU301
 1148 0078 064B     		ldr	r3, .L83+4
 1149 007a 9D42     		cmp	r5, r3
 1150 007c 02D0     		beq	.L82
 699:Middlewares/Third_Party/QuantumLeaps_RTEF_qpc/ports/freertos/qf_port.c ****                 (uint_fast8_t)QS_EP_ID + poolNum)
 1151              		.loc 1 699 9 view .LVU302
 701:Middlewares/Third_Party/QuantumLeaps_RTEF_qpc/ports/freertos/qf_port.c ****             QS_EVS_PRE(evtSize);  // the size of the event
 1152              		.loc 1 701 13 view .LVU303
 702:Middlewares/Third_Party/QuantumLeaps_RTEF_qpc/ports/freertos/qf_port.c ****             QS_SIG_PRE(sig);      // the signal of the event
 1153              		.loc 1 702 13 view .LVU304
 703:Middlewares/Third_Party/QuantumLeaps_RTEF_qpc/ports/freertos/qf_port.c ****         QS_END_PRE()
 1154              		.loc 1 703 13 view .LVU305
 706:Middlewares/Third_Party/QuantumLeaps_RTEF_qpc/ports/freertos/qf_port.c ****     }
 1155              		.loc 1 706 9 view .LVU306
 1156 007e FFF7FEFF 		bl	vClearInterruptMaskFromISR
 1157              	.LVL131:
 711:Middlewares/Third_Party/QuantumLeaps_RTEF_qpc/ports/freertos/qf_port.c **** }
 1158              		.loc 1 711 5 view .LVU307
 711:Middlewares/Third_Party/QuantumLeaps_RTEF_qpc/ports/freertos/qf_port.c **** }
 1159              		.loc 1 711 12 is_stmt 0 view .LVU308
 1160 0082 EEE7     		b	.L70
 1161              	.LVL132:
 1162              	.L82:
 697:Middlewares/Third_Party/QuantumLeaps_RTEF_qpc/ports/freertos/qf_port.c **** 
 1163              		.loc 1 697 9 discriminator 1 view .LVU309
 1164 0084 B421     		movs	r1, #180
 1165 0086 8900     		lsls	r1, r1, #2
 1166 0088 0348     		ldr	r0, .L83+8
 1167              	.LVL133:
 697:Middlewares/Third_Party/QuantumLeaps_RTEF_qpc/ports/freertos/qf_port.c **** 
 1168              		.loc 1 697 9 discriminator 1 view .LVU310
 1169 008a FFF7FEFF 		bl	Q_onError
 1170              	.LVL134:
 1171              	.L84:
 1172 008e C046     		.align	2
 1173              	.L83:
 1174 0090 00000000 		.word	QF_priv_
 1175 0094 FFFF0000 		.word	65535
 1176 0098 00000000 		.word	.LANCHOR0
 1177              		.cfi_endproc
 1178              	.LFE30:
 1180              		.section	.text.QMPool_putFromISR,"ax",%progbits
 1181              		.align	1
 1182              		.global	QMPool_putFromISR
 1183              		.syntax unified
 1184              		.code	16
 1185              		.thumb_func
 1187              	QMPool_putFromISR:
 1188              	.LVL135:
 1189              	.LFB33:
ARM GAS  C:\Users\main\AppData\Local\Temp\ccGWoVmJ.s 			page 39


 833:Middlewares/Third_Party/QuantumLeaps_RTEF_qpc/ports/freertos/qf_port.c **** //............................................................................
 834:Middlewares/Third_Party/QuantumLeaps_RTEF_qpc/ports/freertos/qf_port.c **** void QMPool_putFromISR(QMPool * const me, void *block,
 835:Middlewares/Third_Party/QuantumLeaps_RTEF_qpc/ports/freertos/qf_port.c ****                        uint_fast8_t const qsId)
 836:Middlewares/Third_Party/QuantumLeaps_RTEF_qpc/ports/freertos/qf_port.c **** {
 1190              		.loc 1 836 1 is_stmt 1 view -0
 1191              		.cfi_startproc
 1192              		@ args = 0, pretend = 0, frame = 0
 1193              		@ frame_needed = 0, uses_anonymous_args = 0
 1194              		.loc 1 836 1 is_stmt 0 view .LVU312
 1195 0000 70B5     		push	{r4, r5, r6, lr}
 1196              	.LCFI15:
 1197              		.cfi_def_cfa_offset 16
 1198              		.cfi_offset 4, -16
 1199              		.cfi_offset 5, -12
 1200              		.cfi_offset 6, -8
 1201              		.cfi_offset 14, -4
 1202 0002 0400     		movs	r4, r0
 1203 0004 0D00     		movs	r5, r1
 837:Middlewares/Third_Party/QuantumLeaps_RTEF_qpc/ports/freertos/qf_port.c **** #ifndef Q_SPY
 838:Middlewares/Third_Party/QuantumLeaps_RTEF_qpc/ports/freertos/qf_port.c ****     Q_UNUSED_PAR(qsId);
 1204              		.loc 1 838 5 is_stmt 1 view .LVU313
 839:Middlewares/Third_Party/QuantumLeaps_RTEF_qpc/ports/freertos/qf_port.c **** #endif
 840:Middlewares/Third_Party/QuantumLeaps_RTEF_qpc/ports/freertos/qf_port.c **** 
 841:Middlewares/Third_Party/QuantumLeaps_RTEF_qpc/ports/freertos/qf_port.c ****     void * * const pfb = (void * *)block; // pointer to free block
 1205              		.loc 1 841 5 view .LVU314
 1206              	.LVL136:
 842:Middlewares/Third_Party/QuantumLeaps_RTEF_qpc/ports/freertos/qf_port.c **** 
 843:Middlewares/Third_Party/QuantumLeaps_RTEF_qpc/ports/freertos/qf_port.c ****     UBaseType_t uxSavedInterruptStatus = portSET_INTERRUPT_MASK_FROM_ISR();
 1207              		.loc 1 843 5 view .LVU315
 1208              		.loc 1 843 42 is_stmt 0 view .LVU316
 1209 0006 FFF7FEFF 		bl	ulSetInterruptMaskFromISR
 1210              	.LVL137:
 844:Middlewares/Third_Party/QuantumLeaps_RTEF_qpc/ports/freertos/qf_port.c **** 
 845:Middlewares/Third_Party/QuantumLeaps_RTEF_qpc/ports/freertos/qf_port.c ****     // get volatile into temporaries
 846:Middlewares/Third_Party/QuantumLeaps_RTEF_qpc/ports/freertos/qf_port.c ****     void * * const freeHead = me->freeHead;
 1211              		.loc 1 846 5 is_stmt 1 view .LVU317
 1212              		.loc 1 846 20 is_stmt 0 view .LVU318
 1213 000a A168     		ldr	r1, [r4, #8]
 1214              	.LVL138:
 847:Middlewares/Third_Party/QuantumLeaps_RTEF_qpc/ports/freertos/qf_port.c ****     QMPoolCtr nFree = me->nFree;
 1215              		.loc 1 847 5 is_stmt 1 view .LVU319
 1216              		.loc 1 847 15 is_stmt 0 view .LVU320
 1217 000c 238A     		ldrh	r3, [r4, #16]
 1218 000e 9BB2     		uxth	r3, r3
 1219              	.LVL139:
 848:Middlewares/Third_Party/QuantumLeaps_RTEF_qpc/ports/freertos/qf_port.c **** 
 849:Middlewares/Third_Party/QuantumLeaps_RTEF_qpc/ports/freertos/qf_port.c ****     Q_REQUIRE_INCRIT(1000, nFree < me->nTot);
 1220              		.loc 1 849 5 is_stmt 1 view .LVU321
 1221 0010 E289     		ldrh	r2, [r4, #14]
 1222 0012 9A42     		cmp	r2, r3
 1223 0014 0DD9     		bls	.L89
 850:Middlewares/Third_Party/QuantumLeaps_RTEF_qpc/ports/freertos/qf_port.c ****     Q_REQUIRE_INCRIT(1010, (me->start <= pfb) && (pfb <= me->end));
 1224              		.loc 1 850 5 view .LVU322
 1225 0016 2268     		ldr	r2, [r4]
 1226 0018 AA42     		cmp	r2, r5
 1227 001a 0FD8     		bhi	.L87
 1228              		.loc 1 850 5 is_stmt 0 discriminator 2 view .LVU323
ARM GAS  C:\Users\main\AppData\Local\Temp\ccGWoVmJ.s 			page 40


 1229 001c 6268     		ldr	r2, [r4, #4]
 1230 001e AA42     		cmp	r2, r5
 1231 0020 0CD3     		bcc	.L87
 851:Middlewares/Third_Party/QuantumLeaps_RTEF_qpc/ports/freertos/qf_port.c **** 
 852:Middlewares/Third_Party/QuantumLeaps_RTEF_qpc/ports/freertos/qf_port.c ****     ++nFree; // one more free block in this pool
 1232              		.loc 1 852 5 is_stmt 1 view .LVU324
 1233 0022 0133     		adds	r3, r3, #1
 1234              	.LVL140:
 1235              		.loc 1 852 5 is_stmt 0 view .LVU325
 1236 0024 9BB2     		uxth	r3, r3
 1237              	.LVL141:
 853:Middlewares/Third_Party/QuantumLeaps_RTEF_qpc/ports/freertos/qf_port.c **** 
 854:Middlewares/Third_Party/QuantumLeaps_RTEF_qpc/ports/freertos/qf_port.c ****     me->freeHead = pfb; // set as new head of the free list
 1238              		.loc 1 854 5 is_stmt 1 view .LVU326
 1239              		.loc 1 854 18 is_stmt 0 view .LVU327
 1240 0026 A560     		str	r5, [r4, #8]
 855:Middlewares/Third_Party/QuantumLeaps_RTEF_qpc/ports/freertos/qf_port.c ****     me->nFree = nFree;
 1241              		.loc 1 855 5 is_stmt 1 view .LVU328
 1242              		.loc 1 855 15 is_stmt 0 view .LVU329
 1243 0028 2382     		strh	r3, [r4, #16]
 856:Middlewares/Third_Party/QuantumLeaps_RTEF_qpc/ports/freertos/qf_port.c ****     pfb[0] = freeHead; // link into the list
 1244              		.loc 1 856 5 is_stmt 1 view .LVU330
 1245              		.loc 1 856 12 is_stmt 0 view .LVU331
 1246 002a 2960     		str	r1, [r5]
 857:Middlewares/Third_Party/QuantumLeaps_RTEF_qpc/ports/freertos/qf_port.c **** 
 858:Middlewares/Third_Party/QuantumLeaps_RTEF_qpc/ports/freertos/qf_port.c ****     QS_BEGIN_PRE(QS_QF_MPOOL_PUT, qsId)
 1247              		.loc 1 858 5 is_stmt 1 view .LVU332
 859:Middlewares/Third_Party/QuantumLeaps_RTEF_qpc/ports/freertos/qf_port.c ****         QS_TIME_PRE();         // timestamp
 1248              		.loc 1 859 9 view .LVU333
 860:Middlewares/Third_Party/QuantumLeaps_RTEF_qpc/ports/freertos/qf_port.c ****         QS_OBJ_PRE(me);        // this memory pool
 1249              		.loc 1 860 9 view .LVU334
 861:Middlewares/Third_Party/QuantumLeaps_RTEF_qpc/ports/freertos/qf_port.c ****         QS_MPC_PRE(nFree);     // the # free blocks in the pool
 1250              		.loc 1 861 9 view .LVU335
 862:Middlewares/Third_Party/QuantumLeaps_RTEF_qpc/ports/freertos/qf_port.c ****     QS_END_PRE()
 863:Middlewares/Third_Party/QuantumLeaps_RTEF_qpc/ports/freertos/qf_port.c **** 
 864:Middlewares/Third_Party/QuantumLeaps_RTEF_qpc/ports/freertos/qf_port.c ****     portCLEAR_INTERRUPT_MASK_FROM_ISR(uxSavedInterruptStatus);
 1251              		.loc 1 864 5 view .LVU336
 1252 002c FFF7FEFF 		bl	vClearInterruptMaskFromISR
 1253              	.LVL142:
 865:Middlewares/Third_Party/QuantumLeaps_RTEF_qpc/ports/freertos/qf_port.c **** }
 1254              		.loc 1 865 1 is_stmt 0 view .LVU337
 1255              		@ sp needed
 1256              	.LVL143:
 1257              	.LVL144:
 1258              		.loc 1 865 1 view .LVU338
 1259 0030 70BD     		pop	{r4, r5, r6, pc}
 1260              	.LVL145:
 1261              	.L89:
 849:Middlewares/Third_Party/QuantumLeaps_RTEF_qpc/ports/freertos/qf_port.c ****     Q_REQUIRE_INCRIT(1010, (me->start <= pfb) && (pfb <= me->end));
 1262              		.loc 1 849 5 discriminator 1 view .LVU339
 1263 0032 FA21     		movs	r1, #250
 1264              	.LVL146:
 849:Middlewares/Third_Party/QuantumLeaps_RTEF_qpc/ports/freertos/qf_port.c ****     Q_REQUIRE_INCRIT(1010, (me->start <= pfb) && (pfb <= me->end));
 1265              		.loc 1 849 5 discriminator 1 view .LVU340
 1266 0034 8900     		lsls	r1, r1, #2
 1267 0036 0348     		ldr	r0, .L90
 1268              	.LVL147:
ARM GAS  C:\Users\main\AppData\Local\Temp\ccGWoVmJ.s 			page 41


 849:Middlewares/Third_Party/QuantumLeaps_RTEF_qpc/ports/freertos/qf_port.c ****     Q_REQUIRE_INCRIT(1010, (me->start <= pfb) && (pfb <= me->end));
 1269              		.loc 1 849 5 discriminator 1 view .LVU341
 1270 0038 FFF7FEFF 		bl	Q_onError
 1271              	.LVL148:
 1272              	.L87:
 850:Middlewares/Third_Party/QuantumLeaps_RTEF_qpc/ports/freertos/qf_port.c **** 
 1273              		.loc 1 850 5 discriminator 3 view .LVU342
 1274 003c 0249     		ldr	r1, .L90+4
 1275              	.LVL149:
 850:Middlewares/Third_Party/QuantumLeaps_RTEF_qpc/ports/freertos/qf_port.c **** 
 1276              		.loc 1 850 5 discriminator 3 view .LVU343
 1277 003e 0148     		ldr	r0, .L90
 1278              	.LVL150:
 850:Middlewares/Third_Party/QuantumLeaps_RTEF_qpc/ports/freertos/qf_port.c **** 
 1279              		.loc 1 850 5 discriminator 3 view .LVU344
 1280 0040 FFF7FEFF 		bl	Q_onError
 1281              	.LVL151:
 1282              	.L91:
 850:Middlewares/Third_Party/QuantumLeaps_RTEF_qpc/ports/freertos/qf_port.c **** 
 1283              		.loc 1 850 5 discriminator 3 view .LVU345
 1284              		.align	2
 1285              	.L90:
 1286 0044 00000000 		.word	.LANCHOR0
 1287 0048 F2030000 		.word	1010
 1288              		.cfi_endproc
 1289              	.LFE33:
 1291              		.section	.text.QF_gcFromISR,"ax",%progbits
 1292              		.align	1
 1293              		.global	QF_gcFromISR
 1294              		.syntax unified
 1295              		.code	16
 1296              		.thumb_func
 1298              	QF_gcFromISR:
 1299              	.LVL152:
 1300              	.LFB31:
 714:Middlewares/Third_Party/QuantumLeaps_RTEF_qpc/ports/freertos/qf_port.c ****     UBaseType_t uxSavedInterruptStatus = portSET_INTERRUPT_MASK_FROM_ISR();
 1301              		.loc 1 714 41 is_stmt 1 view -0
 1302              		.cfi_startproc
 1303              		@ args = 0, pretend = 0, frame = 0
 1304              		@ frame_needed = 0, uses_anonymous_args = 0
 714:Middlewares/Third_Party/QuantumLeaps_RTEF_qpc/ports/freertos/qf_port.c ****     UBaseType_t uxSavedInterruptStatus = portSET_INTERRUPT_MASK_FROM_ISR();
 1305              		.loc 1 714 41 is_stmt 0 view .LVU347
 1306 0000 70B5     		push	{r4, r5, r6, lr}
 1307              	.LCFI16:
 1308              		.cfi_def_cfa_offset 16
 1309              		.cfi_offset 4, -16
 1310              		.cfi_offset 5, -12
 1311              		.cfi_offset 6, -8
 1312              		.cfi_offset 14, -4
 1313 0002 0400     		movs	r4, r0
 715:Middlewares/Third_Party/QuantumLeaps_RTEF_qpc/ports/freertos/qf_port.c **** 
 1314              		.loc 1 715 5 is_stmt 1 view .LVU348
 715:Middlewares/Third_Party/QuantumLeaps_RTEF_qpc/ports/freertos/qf_port.c **** 
 1315              		.loc 1 715 42 is_stmt 0 view .LVU349
 1316 0004 FFF7FEFF 		bl	ulSetInterruptMaskFromISR
 1317              	.LVL153:
 717:Middlewares/Third_Party/QuantumLeaps_RTEF_qpc/ports/freertos/qf_port.c **** 
ARM GAS  C:\Users\main\AppData\Local\Temp\ccGWoVmJ.s 			page 42


 1318              		.loc 1 717 5 is_stmt 1 view .LVU350
 1319 0008 002C     		cmp	r4, #0
 1320 000a 10D0     		beq	.L100
 719:Middlewares/Third_Party/QuantumLeaps_RTEF_qpc/ports/freertos/qf_port.c **** 
 1321              		.loc 1 719 5 view .LVU351
 719:Middlewares/Third_Party/QuantumLeaps_RTEF_qpc/ports/freertos/qf_port.c **** 
 1322              		.loc 1 719 19 is_stmt 0 view .LVU352
 1323 000c A578     		ldrb	r5, [r4, #2]
 1324              	.LVL154:
 721:Middlewares/Third_Party/QuantumLeaps_RTEF_qpc/ports/freertos/qf_port.c **** 
 1325              		.loc 1 721 5 is_stmt 1 view .LVU353
 721:Middlewares/Third_Party/QuantumLeaps_RTEF_qpc/ports/freertos/qf_port.c **** 
 1326              		.loc 1 721 8 is_stmt 0 view .LVU354
 1327 000e 002D     		cmp	r5, #0
 1328 0010 2DD0     		beq	.L94
 723:Middlewares/Third_Party/QuantumLeaps_RTEF_qpc/ports/freertos/qf_port.c **** 
 1329              		.loc 1 723 9 is_stmt 1 view .LVU355
 723:Middlewares/Third_Party/QuantumLeaps_RTEF_qpc/ports/freertos/qf_port.c **** 
 1330              		.loc 1 723 14 is_stmt 0 view .LVU356
 1331 0012 E378     		ldrb	r3, [r4, #3]
 1332 0014 DBB2     		uxtb	r3, r3
 723:Middlewares/Third_Party/QuantumLeaps_RTEF_qpc/ports/freertos/qf_port.c **** 
 1333              		.loc 1 723 12 view .LVU357
 1334 0016 012B     		cmp	r3, #1
 1335 0018 12D9     		bls	.L95
 725:Middlewares/Third_Party/QuantumLeaps_RTEF_qpc/ports/freertos/qf_port.c ****                     (uint_fast8_t)QS_EP_ID + poolNum)
 1336              		.loc 1 725 13 is_stmt 1 view .LVU358
 727:Middlewares/Third_Party/QuantumLeaps_RTEF_qpc/ports/freertos/qf_port.c ****                 QS_SIG_PRE(e->sig);  // the signal of the event
 1337              		.loc 1 727 17 view .LVU359
 728:Middlewares/Third_Party/QuantumLeaps_RTEF_qpc/ports/freertos/qf_port.c ****                 QS_2U8_PRE(poolNum, e->refCtr_);
 1338              		.loc 1 728 17 view .LVU360
 729:Middlewares/Third_Party/QuantumLeaps_RTEF_qpc/ports/freertos/qf_port.c ****             QS_END_PRE()
 1339              		.loc 1 729 17 view .LVU361
 732:Middlewares/Third_Party/QuantumLeaps_RTEF_qpc/ports/freertos/qf_port.c ****             QEvt_refCtr_dec_(e); // decrement the ref counter
 1340              		.loc 1 732 13 view .LVU362
 1341 001a E378     		ldrb	r3, [r4, #3]
 1342 001c 002B     		cmp	r3, #0
 1343 001e 0BD0     		beq	.L101
 733:Middlewares/Third_Party/QuantumLeaps_RTEF_qpc/ports/freertos/qf_port.c **** 
 1344              		.loc 1 733 13 view .LVU363
 1345              	.LVL155:
 1346              	.LBB34:
 1347              	.LBI34:
  65:Middlewares/Third_Party/QuantumLeaps_RTEF_qpc/include/qp_pkg.h **** }
  66:Middlewares/Third_Party/QuantumLeaps_RTEF_qpc/include/qp_pkg.h **** 
  67:Middlewares/Third_Party/QuantumLeaps_RTEF_qpc/include/qp_pkg.h **** //! @private @memberof QEvt
  68:Middlewares/Third_Party/QuantumLeaps_RTEF_qpc/include/qp_pkg.h **** static inline void QEvt_refCtr_dec_(QEvt const * const me) {
 1348              		.loc 2 68 20 view .LVU364
 1349              	.LBB35:
  69:Middlewares/Third_Party/QuantumLeaps_RTEF_qpc/include/qp_pkg.h ****     // NOTE: this function must be called inside a critical section
  70:Middlewares/Third_Party/QuantumLeaps_RTEF_qpc/include/qp_pkg.h ****     uint8_t const rc = me->refCtr_ - 1U;
 1350              		.loc 2 70 5 view .LVU365
 1351              		.loc 2 70 26 is_stmt 0 view .LVU366
 1352 0020 E378     		ldrb	r3, [r4, #3]
 1353              		.loc 2 70 19 view .LVU367
 1354 0022 013B     		subs	r3, r3, #1
 1355 0024 DBB2     		uxtb	r3, r3
ARM GAS  C:\Users\main\AppData\Local\Temp\ccGWoVmJ.s 			page 43


 1356              	.LVL156:
  71:Middlewares/Third_Party/QuantumLeaps_RTEF_qpc/include/qp_pkg.h ****     ((QEvt *)me)->refCtr_ = rc; // cast away 'const'
 1357              		.loc 2 71 5 is_stmt 1 view .LVU368
 1358              		.loc 2 71 27 is_stmt 0 view .LVU369
 1359 0026 E370     		strb	r3, [r4, #3]
 1360              	.LVL157:
 1361              		.loc 2 71 27 view .LVU370
 1362              	.LBE35:
 1363              	.LBE34:
 735:Middlewares/Third_Party/QuantumLeaps_RTEF_qpc/ports/freertos/qf_port.c ****         }
 1364              		.loc 1 735 13 is_stmt 1 view .LVU371
 1365 0028 FFF7FEFF 		bl	vClearInterruptMaskFromISR
 1366              	.LVL158:
 1367              	.L92:
 764:Middlewares/Third_Party/QuantumLeaps_RTEF_qpc/ports/freertos/qf_port.c **** //............................................................................
 1368              		.loc 1 764 1 is_stmt 0 view .LVU372
 1369              		@ sp needed
 1370              	.LVL159:
 764:Middlewares/Third_Party/QuantumLeaps_RTEF_qpc/ports/freertos/qf_port.c **** //............................................................................
 1371              		.loc 1 764 1 view .LVU373
 1372 002c 70BD     		pop	{r4, r5, r6, pc}
 1373              	.LVL160:
 1374              	.L100:
 717:Middlewares/Third_Party/QuantumLeaps_RTEF_qpc/ports/freertos/qf_port.c **** 
 1375              		.loc 1 717 5 discriminator 1 view .LVU374
 1376 002e C821     		movs	r1, #200
 1377 0030 8900     		lsls	r1, r1, #2
 1378 0032 1048     		ldr	r0, .L102
 1379              	.LVL161:
 717:Middlewares/Third_Party/QuantumLeaps_RTEF_qpc/ports/freertos/qf_port.c **** 
 1380              		.loc 1 717 5 discriminator 1 view .LVU375
 1381 0034 FFF7FEFF 		bl	Q_onError
 1382              	.LVL162:
 1383              	.L101:
 732:Middlewares/Third_Party/QuantumLeaps_RTEF_qpc/ports/freertos/qf_port.c ****             QEvt_refCtr_dec_(e); // decrement the ref counter
 1384              		.loc 1 732 13 discriminator 1 view .LVU376
 1385 0038 0F49     		ldr	r1, .L102+4
 1386 003a 0E48     		ldr	r0, .L102
 1387              	.LVL163:
 732:Middlewares/Third_Party/QuantumLeaps_RTEF_qpc/ports/freertos/qf_port.c ****             QEvt_refCtr_dec_(e); // decrement the ref counter
 1388              		.loc 1 732 13 discriminator 1 view .LVU377
 1389 003c FFF7FEFF 		bl	Q_onError
 1390              	.LVL164:
 1391              	.L95:
 739:Middlewares/Third_Party/QuantumLeaps_RTEF_qpc/ports/freertos/qf_port.c ****                     (uint_fast8_t)QS_EP_ID + poolNum)
 1392              		.loc 1 739 13 is_stmt 1 view .LVU378
 741:Middlewares/Third_Party/QuantumLeaps_RTEF_qpc/ports/freertos/qf_port.c ****                 QS_SIG_PRE(e->sig);  // the signal of the event
 1393              		.loc 1 741 17 view .LVU379
 742:Middlewares/Third_Party/QuantumLeaps_RTEF_qpc/ports/freertos/qf_port.c ****                 QS_2U8_PRE(poolNum, e->refCtr_);
 1394              		.loc 1 742 17 view .LVU380
 743:Middlewares/Third_Party/QuantumLeaps_RTEF_qpc/ports/freertos/qf_port.c ****             QS_END_PRE()
 1395              		.loc 1 743 17 view .LVU381
 747:Middlewares/Third_Party/QuantumLeaps_RTEF_qpc/ports/freertos/qf_port.c ****                                   && (poolNum <= QF_MAX_EPOOL));
 1396              		.loc 1 747 13 view .LVU382
 1397 0040 0E4B     		ldr	r3, .L102+8
 1398 0042 DB6B     		ldr	r3, [r3, #60]
 1399 0044 9D42     		cmp	r5, r3
ARM GAS  C:\Users\main\AppData\Local\Temp\ccGWoVmJ.s 			page 44


 1400 0046 0ED8     		bhi	.L98
 747:Middlewares/Third_Party/QuantumLeaps_RTEF_qpc/ports/freertos/qf_port.c ****                                   && (poolNum <= QF_MAX_EPOOL));
 1401              		.loc 1 747 13 is_stmt 0 discriminator 2 view .LVU383
 1402 0048 032D     		cmp	r5, #3
 1403 004a 0CD8     		bhi	.L98
 749:Middlewares/Third_Party/QuantumLeaps_RTEF_qpc/ports/freertos/qf_port.c **** 
 1404              		.loc 1 749 13 is_stmt 1 view .LVU384
 1405 004c FFF7FEFF 		bl	vClearInterruptMaskFromISR
 1406              	.LVL165:
 757:Middlewares/Third_Party/QuantumLeaps_RTEF_qpc/ports/freertos/qf_port.c **** #endif
 1407              		.loc 1 757 13 view .LVU385
 757:Middlewares/Third_Party/QuantumLeaps_RTEF_qpc/ports/freertos/qf_port.c **** #endif
 1408              		.loc 1 757 56 is_stmt 0 view .LVU386
 1409 0050 013D     		subs	r5, r5, #1
 1410              	.LVL166:
 757:Middlewares/Third_Party/QuantumLeaps_RTEF_qpc/ports/freertos/qf_port.c **** #endif
 1411              		.loc 1 757 13 view .LVU387
 1412 0052 A800     		lsls	r0, r5, #2
 1413 0054 4019     		adds	r0, r0, r5
 1414 0056 8000     		lsls	r0, r0, #2
 1415 0058 084D     		ldr	r5, .L102+8
 1416              	.LVL167:
 757:Middlewares/Third_Party/QuantumLeaps_RTEF_qpc/ports/freertos/qf_port.c **** #endif
 1417              		.loc 1 757 13 view .LVU388
 1418 005a 4019     		adds	r0, r0, r5
 1419 005c 0022     		movs	r2, #0
 1420 005e 2100     		movs	r1, r4
 1421 0060 FFF7FEFF 		bl	QMPool_putFromISR
 1422              	.LVL168:
 1423 0064 E2E7     		b	.L92
 1424              	.LVL169:
 1425              	.L98:
 747:Middlewares/Third_Party/QuantumLeaps_RTEF_qpc/ports/freertos/qf_port.c ****                                   && (poolNum <= QF_MAX_EPOOL));
 1426              		.loc 1 747 13 discriminator 3 view .LVU389
 1427 0066 0649     		ldr	r1, .L102+12
 1428 0068 0248     		ldr	r0, .L102
 1429              	.LVL170:
 747:Middlewares/Third_Party/QuantumLeaps_RTEF_qpc/ports/freertos/qf_port.c ****                                   && (poolNum <= QF_MAX_EPOOL));
 1430              		.loc 1 747 13 discriminator 3 view .LVU390
 1431 006a FFF7FEFF 		bl	Q_onError
 1432              	.LVL171:
 1433              	.L94:
 762:Middlewares/Third_Party/QuantumLeaps_RTEF_qpc/ports/freertos/qf_port.c ****     }
 1434              		.loc 1 762 9 is_stmt 1 view .LVU391
 1435 006e FFF7FEFF 		bl	vClearInterruptMaskFromISR
 1436              	.LVL172:
 764:Middlewares/Third_Party/QuantumLeaps_RTEF_qpc/ports/freertos/qf_port.c **** //............................................................................
 1437              		.loc 1 764 1 is_stmt 0 view .LVU392
 1438 0072 DBE7     		b	.L92
 1439              	.L103:
 1440              		.align	2
 1441              	.L102:
 1442 0074 00000000 		.word	.LANCHOR0
 1443 0078 25030000 		.word	805
 1444 007c 00000000 		.word	QF_priv_
 1445 0080 2A030000 		.word	810
 1446              		.cfi_endproc
ARM GAS  C:\Users\main\AppData\Local\Temp\ccGWoVmJ.s 			page 45


 1447              	.LFE31:
 1449              		.section	.text.QActive_postFromISR_,"ax",%progbits
 1450              		.align	1
 1451              		.global	QActive_postFromISR_
 1452              		.syntax unified
 1453              		.code	16
 1454              		.thumb_func
 1456              	QActive_postFromISR_:
 1457              	.LVL173:
 1458              	.LFB27:
 393:Middlewares/Third_Party/QuantumLeaps_RTEF_qpc/ports/freertos/qf_port.c ****     UBaseType_t uxSavedInterruptStatus = portSET_INTERRUPT_MASK_FROM_ISR();
 1459              		.loc 1 393 1 is_stmt 1 view -0
 1460              		.cfi_startproc
 1461              		@ args = 4, pretend = 0, frame = 8
 1462              		@ frame_needed = 0, uses_anonymous_args = 0
 393:Middlewares/Third_Party/QuantumLeaps_RTEF_qpc/ports/freertos/qf_port.c ****     UBaseType_t uxSavedInterruptStatus = portSET_INTERRUPT_MASK_FROM_ISR();
 1463              		.loc 1 393 1 is_stmt 0 view .LVU394
 1464 0000 70B5     		push	{r4, r5, r6, lr}
 1465              	.LCFI17:
 1466              		.cfi_def_cfa_offset 16
 1467              		.cfi_offset 4, -16
 1468              		.cfi_offset 5, -12
 1469              		.cfi_offset 6, -8
 1470              		.cfi_offset 14, -4
 1471 0002 82B0     		sub	sp, sp, #8
 1472              	.LCFI18:
 1473              		.cfi_def_cfa_offset 24
 1474 0004 0400     		movs	r4, r0
 1475 0006 0191     		str	r1, [sp, #4]
 1476 0008 1500     		movs	r5, r2
 1477 000a 1E00     		movs	r6, r3
 394:Middlewares/Third_Party/QuantumLeaps_RTEF_qpc/ports/freertos/qf_port.c **** 
 1478              		.loc 1 394 5 is_stmt 1 view .LVU395
 394:Middlewares/Third_Party/QuantumLeaps_RTEF_qpc/ports/freertos/qf_port.c **** 
 1479              		.loc 1 394 42 is_stmt 0 view .LVU396
 1480 000c FFF7FEFF 		bl	ulSetInterruptMaskFromISR
 1481              	.LVL174:
 396:Middlewares/Third_Party/QuantumLeaps_RTEF_qpc/ports/freertos/qf_port.c **** 
 1482              		.loc 1 396 5 is_stmt 1 view .LVU397
 1483 0010 0199     		ldr	r1, [sp, #4]
 1484 0012 0029     		cmp	r1, #0
 1485 0014 0DD0     		beq	.L115
 399:Middlewares/Third_Party/QuantumLeaps_RTEF_qpc/ports/freertos/qf_port.c ****         (uint_fast16_t)FREERTOS_QUEUE_GET_FREE(me);
 1486              		.loc 1 399 5 view .LVU398
 400:Middlewares/Third_Party/QuantumLeaps_RTEF_qpc/ports/freertos/qf_port.c **** 
 1487              		.loc 1 400 24 is_stmt 0 view .LVU399
 1488 0016 A823     		movs	r3, #168
 1489 0018 E358     		ldr	r3, [r4, r3]
 1490 001a A422     		movs	r2, #164
 1491 001c A258     		ldr	r2, [r4, r2]
 399:Middlewares/Third_Party/QuantumLeaps_RTEF_qpc/ports/freertos/qf_port.c ****         (uint_fast16_t)FREERTOS_QUEUE_GET_FREE(me);
 1492              		.loc 1 399 25 view .LVU400
 1493 001e 9B1A     		subs	r3, r3, r2
 1494              	.LVL175:
 403:Middlewares/Third_Party/QuantumLeaps_RTEF_qpc/ports/freertos/qf_port.c ****     if (margin == QF_NO_MARGIN) {
 1495              		.loc 1 403 5 is_stmt 1 view .LVU401
 404:Middlewares/Third_Party/QuantumLeaps_RTEF_qpc/ports/freertos/qf_port.c ****         if (nFree > 0U) { // free entries available in the queue?
ARM GAS  C:\Users\main\AppData\Local\Temp\ccGWoVmJ.s 			page 46


 1496              		.loc 1 404 5 view .LVU402
 404:Middlewares/Third_Party/QuantumLeaps_RTEF_qpc/ports/freertos/qf_port.c ****         if (nFree > 0U) { // free entries available in the queue?
 1497              		.loc 1 404 8 is_stmt 0 view .LVU403
 1498 0020 234A     		ldr	r2, .L120
 1499 0022 9542     		cmp	r5, r2
 1500 0024 0AD0     		beq	.L116
 414:Middlewares/Third_Party/QuantumLeaps_RTEF_qpc/ports/freertos/qf_port.c ****         status = true; // can post
 1501              		.loc 1 414 10 is_stmt 1 view .LVU404
 414:Middlewares/Third_Party/QuantumLeaps_RTEF_qpc/ports/freertos/qf_port.c ****         status = true; // can post
 1502              		.loc 1 414 13 is_stmt 0 view .LVU405
 1503 0026 FF22     		movs	r2, #255
 1504 0028 1540     		ands	r5, r2
 1505              	.LVL176:
 414:Middlewares/Third_Party/QuantumLeaps_RTEF_qpc/ports/freertos/qf_port.c ****         status = true; // can post
 1506              		.loc 1 414 13 view .LVU406
 1507 002a AB42     		cmp	r3, r5
 1508 002c 2CD8     		bhi	.L114
 403:Middlewares/Third_Party/QuantumLeaps_RTEF_qpc/ports/freertos/qf_port.c ****     if (margin == QF_NO_MARGIN) {
 1509              		.loc 1 403 10 view .LVU407
 1510 002e 0025     		movs	r5, #0
 1511 0030 07E0     		b	.L107
 1512              	.LVL177:
 1513              	.L115:
 396:Middlewares/Third_Party/QuantumLeaps_RTEF_qpc/ports/freertos/qf_port.c **** 
 1514              		.loc 1 396 5 discriminator 1 view .LVU408
 1515 0032 C831     		adds	r1, r1, #200
 1516 0034 4900     		lsls	r1, r1, #1
 1517 0036 1F48     		ldr	r0, .L120+4
 1518              	.LVL178:
 396:Middlewares/Third_Party/QuantumLeaps_RTEF_qpc/ports/freertos/qf_port.c **** 
 1519              		.loc 1 396 5 discriminator 1 view .LVU409
 1520 0038 FFF7FEFF 		bl	Q_onError
 1521              	.LVL179:
 1522              	.L116:
 405:Middlewares/Third_Party/QuantumLeaps_RTEF_qpc/ports/freertos/qf_port.c ****             status = true; // can post
 1523              		.loc 1 405 9 is_stmt 1 view .LVU410
 405:Middlewares/Third_Party/QuantumLeaps_RTEF_qpc/ports/freertos/qf_port.c ****             status = true; // can post
 1524              		.loc 1 405 12 is_stmt 0 view .LVU411
 1525 003c 002B     		cmp	r3, #0
 1526 003e 1ED0     		beq	.L117
 406:Middlewares/Third_Party/QuantumLeaps_RTEF_qpc/ports/freertos/qf_port.c ****         }
 1527              		.loc 1 406 20 view .LVU412
 1528 0040 0125     		movs	r5, #1
 1529              	.LVL180:
 1530              	.L107:
 419:Middlewares/Third_Party/QuantumLeaps_RTEF_qpc/ports/freertos/qf_port.c **** 
 1531              		.loc 1 419 5 is_stmt 1 view .LVU413
 422:Middlewares/Third_Party/QuantumLeaps_RTEF_qpc/ports/freertos/qf_port.c ****         Q_ASSERT_INCRIT(405, e->refCtr_ < (2U * QF_MAX_ACTIVE));
 1532              		.loc 1 422 5 view .LVU414
 422:Middlewares/Third_Party/QuantumLeaps_RTEF_qpc/ports/freertos/qf_port.c ****         Q_ASSERT_INCRIT(405, e->refCtr_ < (2U * QF_MAX_ACTIVE));
 1533              		.loc 1 422 10 is_stmt 0 view .LVU415
 1534 0042 8B78     		ldrb	r3, [r1, #2]
 1535              	.LVL181:
 422:Middlewares/Third_Party/QuantumLeaps_RTEF_qpc/ports/freertos/qf_port.c ****         Q_ASSERT_INCRIT(405, e->refCtr_ < (2U * QF_MAX_ACTIVE));
 1536              		.loc 1 422 8 view .LVU416
 1537 0044 002B     		cmp	r3, #0
 1538 0046 07D0     		beq	.L108
ARM GAS  C:\Users\main\AppData\Local\Temp\ccGWoVmJ.s 			page 47


 423:Middlewares/Third_Party/QuantumLeaps_RTEF_qpc/ports/freertos/qf_port.c ****         QEvt_refCtr_inc_(e); // increment the reference counter
 1539              		.loc 1 423 9 is_stmt 1 view .LVU417
 1540 0048 CB78     		ldrb	r3, [r1, #3]
 1541 004a DBB2     		uxtb	r3, r3
 1542 004c 3F2B     		cmp	r3, #63
 1543 004e 1DD8     		bhi	.L118
 424:Middlewares/Third_Party/QuantumLeaps_RTEF_qpc/ports/freertos/qf_port.c ****     }
 1544              		.loc 1 424 9 view .LVU418
 1545              	.LVL182:
 1546              	.LBB36:
 1547              	.LBI36:
  61:Middlewares/Third_Party/QuantumLeaps_RTEF_qpc/include/qp_pkg.h ****     // NOTE: this function must be called inside a critical section
 1548              		.loc 2 61 20 view .LVU419
 1549              	.LBB37:
  63:Middlewares/Third_Party/QuantumLeaps_RTEF_qpc/include/qp_pkg.h ****     ((QEvt *)me)->refCtr_ = rc; // cast away 'const'
 1550              		.loc 2 63 5 view .LVU420
  63:Middlewares/Third_Party/QuantumLeaps_RTEF_qpc/include/qp_pkg.h ****     ((QEvt *)me)->refCtr_ = rc; // cast away 'const'
 1551              		.loc 2 63 26 is_stmt 0 view .LVU421
 1552 0050 CB78     		ldrb	r3, [r1, #3]
  63:Middlewares/Third_Party/QuantumLeaps_RTEF_qpc/include/qp_pkg.h ****     ((QEvt *)me)->refCtr_ = rc; // cast away 'const'
 1553              		.loc 2 63 19 view .LVU422
 1554 0052 0133     		adds	r3, r3, #1
 1555 0054 DBB2     		uxtb	r3, r3
 1556              	.LVL183:
  64:Middlewares/Third_Party/QuantumLeaps_RTEF_qpc/include/qp_pkg.h **** }
 1557              		.loc 2 64 5 is_stmt 1 view .LVU423
  64:Middlewares/Third_Party/QuantumLeaps_RTEF_qpc/include/qp_pkg.h **** }
 1558              		.loc 2 64 27 is_stmt 0 view .LVU424
 1559 0056 CB70     		strb	r3, [r1, #3]
 1560              	.LVL184:
 1561              	.L108:
  64:Middlewares/Third_Party/QuantumLeaps_RTEF_qpc/include/qp_pkg.h **** }
 1562              		.loc 2 64 27 view .LVU425
 1563              	.LBE37:
 1564              	.LBE36:
 428:Middlewares/Third_Party/QuantumLeaps_RTEF_qpc/ports/freertos/qf_port.c ****         QS_BEGIN_PRE(QS_QF_ACTIVE_POST, me->prio)
 1565              		.loc 1 428 5 is_stmt 1 view .LVU426
 428:Middlewares/Third_Party/QuantumLeaps_RTEF_qpc/ports/freertos/qf_port.c ****         QS_BEGIN_PRE(QS_QF_ACTIVE_POST, me->prio)
 1566              		.loc 1 428 8 is_stmt 0 view .LVU427
 1567 0058 002D     		cmp	r5, #0
 1568 005a 21D0     		beq	.L110
 1569              	.LBB38:
 429:Middlewares/Third_Party/QuantumLeaps_RTEF_qpc/ports/freertos/qf_port.c ****             QS_TIME_PRE();        // timestamp
 1570              		.loc 1 429 9 is_stmt 1 view .LVU428
 430:Middlewares/Third_Party/QuantumLeaps_RTEF_qpc/ports/freertos/qf_port.c ****             QS_OBJ_PRE(sender);   // the sender object
 1571              		.loc 1 430 13 view .LVU429
 431:Middlewares/Third_Party/QuantumLeaps_RTEF_qpc/ports/freertos/qf_port.c ****             QS_SIG_PRE(e->sig);   // the signal of the event
 1572              		.loc 1 431 13 view .LVU430
 432:Middlewares/Third_Party/QuantumLeaps_RTEF_qpc/ports/freertos/qf_port.c ****             QS_OBJ_PRE(me);       // this active object (recipient)
 1573              		.loc 1 432 13 view .LVU431
 433:Middlewares/Third_Party/QuantumLeaps_RTEF_qpc/ports/freertos/qf_port.c ****             QS_2U8_PRE(e->poolNum_, e->refCtr_);
 1574              		.loc 1 433 13 view .LVU432
 434:Middlewares/Third_Party/QuantumLeaps_RTEF_qpc/ports/freertos/qf_port.c ****             QS_EQC_PRE((QEQueueCtr)nFree); // # free entries
 1575              		.loc 1 434 13 view .LVU433
 435:Middlewares/Third_Party/QuantumLeaps_RTEF_qpc/ports/freertos/qf_port.c ****             QS_EQC_PRE(0U);       // min # free entries (unknown)
 1576              		.loc 1 435 13 view .LVU434
 436:Middlewares/Third_Party/QuantumLeaps_RTEF_qpc/ports/freertos/qf_port.c ****         QS_END_PRE()
ARM GAS  C:\Users\main\AppData\Local\Temp\ccGWoVmJ.s 			page 48


 1577              		.loc 1 436 13 view .LVU435
 439:Middlewares/Third_Party/QuantumLeaps_RTEF_qpc/ports/freertos/qf_port.c **** 
 1578              		.loc 1 439 9 view .LVU436
 1579 005c FFF7FEFF 		bl	vClearInterruptMaskFromISR
 1580              	.LVL185:
 441:Middlewares/Third_Party/QuantumLeaps_RTEF_qpc/ports/freertos/qf_port.c ****                               (void const *)&e,
 1581              		.loc 1 441 9 view .LVU437
 441:Middlewares/Third_Party/QuantumLeaps_RTEF_qpc/ports/freertos/qf_port.c ****                               (void const *)&e,
 1582              		.loc 1 441 26 is_stmt 0 view .LVU438
 1583 0060 BC23     		movs	r3, #188
 1584 0062 E058     		ldr	r0, [r4, r3]
 1585 0064 0023     		movs	r3, #0
 1586 0066 3200     		movs	r2, r6
 1587 0068 01A9     		add	r1, sp, #4
 1588 006a FFF7FEFF 		bl	xQueueGenericSendFromISR
 1589              	.LVL186:
 1590 006e 0400     		movs	r4, r0
 1591              	.LVL187:
 445:Middlewares/Third_Party/QuantumLeaps_RTEF_qpc/ports/freertos/qf_port.c ****         // posting to the FreeRTOS message queue must succeed, see NOTE3
 1592              		.loc 1 445 9 is_stmt 1 view .LVU439
 445:Middlewares/Third_Party/QuantumLeaps_RTEF_qpc/ports/freertos/qf_port.c ****         // posting to the FreeRTOS message queue must succeed, see NOTE3
 1593              		.loc 1 445 34 is_stmt 0 view .LVU440
 1594 0070 FFF7FEFF 		bl	ulSetInterruptMaskFromISR
 1595              	.LVL188:
 447:Middlewares/Third_Party/QuantumLeaps_RTEF_qpc/ports/freertos/qf_port.c ****         portCLEAR_INTERRUPT_MASK_FROM_ISR(uxSavedInterruptStatus);
 1596              		.loc 1 447 9 is_stmt 1 view .LVU441
 1597 0074 012C     		cmp	r4, #1
 1598 0076 0ED1     		bne	.L119
 448:Middlewares/Third_Party/QuantumLeaps_RTEF_qpc/ports/freertos/qf_port.c **** 
 1599              		.loc 1 448 9 view .LVU442
 1600 0078 FFF7FEFF 		bl	vClearInterruptMaskFromISR
 1601              	.LVL189:
 448:Middlewares/Third_Party/QuantumLeaps_RTEF_qpc/ports/freertos/qf_port.c **** 
 1602              		.loc 1 448 9 is_stmt 0 view .LVU443
 1603              	.LBE38:
 1604 007c 15E0     		b	.L112
 1605              	.LVL190:
 1606              	.L117:
 411:Middlewares/Third_Party/QuantumLeaps_RTEF_qpc/ports/freertos/qf_port.c ****         }
 1607              		.loc 1 411 13 is_stmt 1 view .LVU444
 1608 007e CD21     		movs	r1, #205
 1609 0080 4900     		lsls	r1, r1, #1
 1610 0082 0C48     		ldr	r0, .L120+4
 1611              	.LVL191:
 411:Middlewares/Third_Party/QuantumLeaps_RTEF_qpc/ports/freertos/qf_port.c ****         }
 1612              		.loc 1 411 13 is_stmt 0 view .LVU445
 1613 0084 FFF7FEFF 		bl	Q_onError
 1614              	.LVL192:
 1615              	.L114:
 415:Middlewares/Third_Party/QuantumLeaps_RTEF_qpc/ports/freertos/qf_port.c ****     }
 1616              		.loc 1 415 16 view .LVU446
 1617 0088 0125     		movs	r5, #1
 1618 008a DAE7     		b	.L107
 1619              	.LVL193:
 1620              	.L118:
 423:Middlewares/Third_Party/QuantumLeaps_RTEF_qpc/ports/freertos/qf_port.c ****         QEvt_refCtr_inc_(e); // increment the reference counter
 1621              		.loc 1 423 9 discriminator 1 view .LVU447
ARM GAS  C:\Users\main\AppData\Local\Temp\ccGWoVmJ.s 			page 49


 1622 008c 9621     		movs	r1, #150
 1623 008e FF31     		adds	r1, r1, #255
 1624 0090 0848     		ldr	r0, .L120+4
 1625              	.LVL194:
 423:Middlewares/Third_Party/QuantumLeaps_RTEF_qpc/ports/freertos/qf_port.c ****         QEvt_refCtr_inc_(e); // increment the reference counter
 1626              		.loc 1 423 9 discriminator 1 view .LVU448
 1627 0092 FFF7FEFF 		bl	Q_onError
 1628              	.LVL195:
 1629              	.L119:
 1630              	.LBB39:
 447:Middlewares/Third_Party/QuantumLeaps_RTEF_qpc/ports/freertos/qf_port.c ****         portCLEAR_INTERRUPT_MASK_FROM_ISR(uxSavedInterruptStatus);
 1631              		.loc 1 447 9 discriminator 1 view .LVU449
 1632 0096 D221     		movs	r1, #210
 1633 0098 4900     		lsls	r1, r1, #1
 1634 009a 0648     		ldr	r0, .L120+4
 1635              	.LVL196:
 447:Middlewares/Third_Party/QuantumLeaps_RTEF_qpc/ports/freertos/qf_port.c ****         portCLEAR_INTERRUPT_MASK_FROM_ISR(uxSavedInterruptStatus);
 1636              		.loc 1 447 9 discriminator 1 view .LVU450
 1637 009c FFF7FEFF 		bl	Q_onError
 1638              	.LVL197:
 1639              	.L110:
 447:Middlewares/Third_Party/QuantumLeaps_RTEF_qpc/ports/freertos/qf_port.c ****         portCLEAR_INTERRUPT_MASK_FROM_ISR(uxSavedInterruptStatus);
 1640              		.loc 1 447 9 discriminator 1 view .LVU451
 1641              	.LBE39:
 455:Middlewares/Third_Party/QuantumLeaps_RTEF_qpc/ports/freertos/qf_port.c ****             QS_TIME_PRE();       // timestamp
 1642              		.loc 1 455 9 is_stmt 1 view .LVU452
 456:Middlewares/Third_Party/QuantumLeaps_RTEF_qpc/ports/freertos/qf_port.c ****             QS_OBJ_PRE(sender);  // the sender object
 1643              		.loc 1 456 13 view .LVU453
 457:Middlewares/Third_Party/QuantumLeaps_RTEF_qpc/ports/freertos/qf_port.c ****             QS_SIG_PRE(e->sig);  // the signal of the event
 1644              		.loc 1 457 13 view .LVU454
 458:Middlewares/Third_Party/QuantumLeaps_RTEF_qpc/ports/freertos/qf_port.c ****             QS_OBJ_PRE(me);      // this active object (recipient)
 1645              		.loc 1 458 13 view .LVU455
 459:Middlewares/Third_Party/QuantumLeaps_RTEF_qpc/ports/freertos/qf_port.c ****             QS_2U8_PRE(e->poolNum_, e->refCtr_);
 1646              		.loc 1 459 13 view .LVU456
 460:Middlewares/Third_Party/QuantumLeaps_RTEF_qpc/ports/freertos/qf_port.c ****             QS_EQC_PRE(nFree);   // # free entries
 1647              		.loc 1 460 13 view .LVU457
 461:Middlewares/Third_Party/QuantumLeaps_RTEF_qpc/ports/freertos/qf_port.c ****             QS_EQC_PRE(margin);  // margin requested
 1648              		.loc 1 461 13 view .LVU458
 462:Middlewares/Third_Party/QuantumLeaps_RTEF_qpc/ports/freertos/qf_port.c ****         QS_END_PRE()
 1649              		.loc 1 462 13 view .LVU459
 465:Middlewares/Third_Party/QuantumLeaps_RTEF_qpc/ports/freertos/qf_port.c **** 
 1650              		.loc 1 465 9 view .LVU460
 1651 00a0 FFF7FEFF 		bl	vClearInterruptMaskFromISR
 1652              	.LVL198:
 468:Middlewares/Third_Party/QuantumLeaps_RTEF_qpc/ports/freertos/qf_port.c **** #endif // (QF_MAX_EPOOL > 0U)
 1653              		.loc 1 468 9 view .LVU461
 1654 00a4 0198     		ldr	r0, [sp, #4]
 1655 00a6 FFF7FEFF 		bl	QF_gcFromISR
 1656              	.LVL199:
 1657              	.L112:
 472:Middlewares/Third_Party/QuantumLeaps_RTEF_qpc/ports/freertos/qf_port.c **** }
 1658              		.loc 1 472 5 view .LVU462
 473:Middlewares/Third_Party/QuantumLeaps_RTEF_qpc/ports/freertos/qf_port.c **** //............................................................................
 1659              		.loc 1 473 1 is_stmt 0 view .LVU463
 1660 00aa 2800     		movs	r0, r5
 1661 00ac 02B0     		add	sp, sp, #8
 1662              		@ sp needed
ARM GAS  C:\Users\main\AppData\Local\Temp\ccGWoVmJ.s 			page 50


 1663              	.LVL200:
 1664              	.LVL201:
 473:Middlewares/Third_Party/QuantumLeaps_RTEF_qpc/ports/freertos/qf_port.c **** //............................................................................
 1665              		.loc 1 473 1 view .LVU464
 1666 00ae 70BD     		pop	{r4, r5, r6, pc}
 1667              	.L121:
 1668              		.align	2
 1669              	.L120:
 1670 00b0 FFFF0000 		.word	65535
 1671 00b4 00000000 		.word	.LANCHOR0
 1672              		.cfi_endproc
 1673              	.LFE27:
 1675              		.section	.text.QTimeEvt_tickFromISR_,"ax",%progbits
 1676              		.align	1
 1677              		.global	QTimeEvt_tickFromISR_
 1678              		.syntax unified
 1679              		.code	16
 1680              		.thumb_func
 1682              	QTimeEvt_tickFromISR_:
 1683              	.LVL202:
 1684              	.LFB29:
 566:Middlewares/Third_Party/QuantumLeaps_RTEF_qpc/ports/freertos/qf_port.c **** #ifndef Q_SPY
 1685              		.loc 1 566 1 is_stmt 1 view -0
 1686              		.cfi_startproc
 1687              		@ args = 0, pretend = 0, frame = 0
 1688              		@ frame_needed = 0, uses_anonymous_args = 0
 566:Middlewares/Third_Party/QuantumLeaps_RTEF_qpc/ports/freertos/qf_port.c **** #ifndef Q_SPY
 1689              		.loc 1 566 1 is_stmt 0 view .LVU466
 1690 0000 F0B5     		push	{r4, r5, r6, r7, lr}
 1691              	.LCFI19:
 1692              		.cfi_def_cfa_offset 20
 1693              		.cfi_offset 4, -20
 1694              		.cfi_offset 5, -16
 1695              		.cfi_offset 6, -12
 1696              		.cfi_offset 7, -8
 1697              		.cfi_offset 14, -4
 1698 0002 CE46     		mov	lr, r9
 1699 0004 4746     		mov	r7, r8
 1700 0006 80B5     		push	{r7, lr}
 1701              	.LCFI20:
 1702              		.cfi_def_cfa_offset 28
 1703              		.cfi_offset 8, -28
 1704              		.cfi_offset 9, -24
 1705 0008 83B0     		sub	sp, sp, #12
 1706              	.LCFI21:
 1707              		.cfi_def_cfa_offset 40
 1708 000a 0700     		movs	r7, r0
 1709 000c 8846     		mov	r8, r1
 568:Middlewares/Third_Party/QuantumLeaps_RTEF_qpc/ports/freertos/qf_port.c **** #endif
 1710              		.loc 1 568 5 is_stmt 1 view .LVU467
 571:Middlewares/Third_Party/QuantumLeaps_RTEF_qpc/ports/freertos/qf_port.c **** 
 1711              		.loc 1 571 5 view .LVU468
 571:Middlewares/Third_Party/QuantumLeaps_RTEF_qpc/ports/freertos/qf_port.c **** 
 1712              		.loc 1 571 42 is_stmt 0 view .LVU469
 1713 000e FFF7FEFF 		bl	ulSetInterruptMaskFromISR
 1714              	.LVL203:
 571:Middlewares/Third_Party/QuantumLeaps_RTEF_qpc/ports/freertos/qf_port.c **** 
ARM GAS  C:\Users\main\AppData\Local\Temp\ccGWoVmJ.s 			page 51


 1715              		.loc 1 571 42 view .LVU470
 1716 0012 0600     		movs	r6, r0
 1717              	.LVL204:
 573:Middlewares/Third_Party/QuantumLeaps_RTEF_qpc/ports/freertos/qf_port.c **** 
 1718              		.loc 1 573 5 is_stmt 1 view .LVU471
 1719 0014 002F     		cmp	r7, #0
 1720 0016 05D1     		bne	.L132
 575:Middlewares/Third_Party/QuantumLeaps_RTEF_qpc/ports/freertos/qf_port.c **** 
 1721              		.loc 1 575 5 view .LVU472
 575:Middlewares/Third_Party/QuantumLeaps_RTEF_qpc/ports/freertos/qf_port.c **** 
 1722              		.loc 1 575 15 is_stmt 0 view .LVU473
 1723 0018 7D00     		lsls	r5, r7, #1
 1724 001a ED19     		adds	r5, r5, r7
 1725 001c ED00     		lsls	r5, r5, #3
 1726 001e 2F48     		ldr	r0, .L138
 1727              	.LVL205:
 575:Middlewares/Third_Party/QuantumLeaps_RTEF_qpc/ports/freertos/qf_port.c **** 
 1728              		.loc 1 575 15 view .LVU474
 1729 0020 2D18     		adds	r5, r5, r0
 1730              	.LVL206:
 575:Middlewares/Third_Party/QuantumLeaps_RTEF_qpc/ports/freertos/qf_port.c **** 
 1731              		.loc 1 575 15 view .LVU475
 1732 0022 2AE0     		b	.L131
 1733              	.LVL207:
 1734              	.L132:
 573:Middlewares/Third_Party/QuantumLeaps_RTEF_qpc/ports/freertos/qf_port.c **** 
 1735              		.loc 1 573 5 discriminator 1 view .LVU476
 1736 0024 9621     		movs	r1, #150
 1737 0026 8900     		lsls	r1, r1, #2
 1738 0028 2D48     		ldr	r0, .L138+4
 1739              	.LVL208:
 573:Middlewares/Third_Party/QuantumLeaps_RTEF_qpc/ports/freertos/qf_port.c **** 
 1740              		.loc 1 573 5 discriminator 1 view .LVU477
 1741 002a FFF7FEFF 		bl	Q_onError
 1742              	.LVL209:
 1743              	.L133:
 1744              	.LBB40:
 587:Middlewares/Third_Party/QuantumLeaps_RTEF_qpc/ports/freertos/qf_port.c **** 
 1745              		.loc 1 587 9 discriminator 1 view .LVU478
 1746 002e 2D49     		ldr	r1, .L138+8
 1747 0030 2B48     		ldr	r0, .L138+4
 1748 0032 FFF7FEFF 		bl	Q_onError
 1749              	.LVL210:
 1750              	.L134:
 593:Middlewares/Third_Party/QuantumLeaps_RTEF_qpc/ports/freertos/qf_port.c ****                 break; // terminate the for-loop
 1751              		.loc 1 593 13 is_stmt 1 view .LVU479
 593:Middlewares/Third_Party/QuantumLeaps_RTEF_qpc/ports/freertos/qf_port.c ****                 break; // terminate the for-loop
 1752              		.loc 1 593 48 is_stmt 0 view .LVU480
 1753 0036 7B00     		lsls	r3, r7, #1
 1754 0038 DB19     		adds	r3, r3, r7
 1755 003a DB00     		lsls	r3, r3, #3
 1756 003c 274A     		ldr	r2, .L138
 1757 003e D318     		adds	r3, r2, r3
 1758 0040 9B68     		ldr	r3, [r3, #8]
 593:Middlewares/Third_Party/QuantumLeaps_RTEF_qpc/ports/freertos/qf_port.c ****                 break; // terminate the for-loop
 1759              		.loc 1 593 16 view .LVU481
 1760 0042 002B     		cmp	r3, #0
ARM GAS  C:\Users\main\AppData\Local\Temp\ccGWoVmJ.s 			page 52


 1761 0044 41D0     		beq	.L126
 597:Middlewares/Third_Party/QuantumLeaps_RTEF_qpc/ports/freertos/qf_port.c ****             QTimeEvt_timeEvtHead_[tickRate].act = (void *)0;
 1762              		.loc 1 597 13 is_stmt 1 view .LVU482
 597:Middlewares/Third_Party/QuantumLeaps_RTEF_qpc/ports/freertos/qf_port.c ****             QTimeEvt_timeEvtHead_[tickRate].act = (void *)0;
 1763              		.loc 1 597 24 is_stmt 0 view .LVU483
 1764 0046 6B60     		str	r3, [r5, #4]
 598:Middlewares/Third_Party/QuantumLeaps_RTEF_qpc/ports/freertos/qf_port.c **** 
 1765              		.loc 1 598 13 is_stmt 1 view .LVU484
 598:Middlewares/Third_Party/QuantumLeaps_RTEF_qpc/ports/freertos/qf_port.c **** 
 1766              		.loc 1 598 49 is_stmt 0 view .LVU485
 1767 0048 7B00     		lsls	r3, r7, #1
 1768 004a DB19     		adds	r3, r3, r7
 1769 004c DB00     		lsls	r3, r3, #3
 1770 004e D318     		adds	r3, r2, r3
 1771 0050 0022     		movs	r2, #0
 1772 0052 9A60     		str	r2, [r3, #8]
 600:Middlewares/Third_Party/QuantumLeaps_RTEF_qpc/ports/freertos/qf_port.c ****         }
 1773              		.loc 1 600 13 is_stmt 1 view .LVU486
 600:Middlewares/Third_Party/QuantumLeaps_RTEF_qpc/ports/freertos/qf_port.c ****         }
 1774              		.loc 1 600 16 is_stmt 0 view .LVU487
 1775 0054 6C68     		ldr	r4, [r5, #4]
 1776              	.LVL211:
 600:Middlewares/Third_Party/QuantumLeaps_RTEF_qpc/ports/freertos/qf_port.c ****         }
 1777              		.loc 1 600 16 view .LVU488
 1778 0056 15E0     		b	.L125
 1779              	.L135:
 604:Middlewares/Third_Party/QuantumLeaps_RTEF_qpc/ports/freertos/qf_port.c **** 
 1780              		.loc 1 604 9 discriminator 1 view .LVU489
 1781 0058 A021     		movs	r1, #160
 1782 005a 8900     		lsls	r1, r1, #2
 1783 005c 2048     		ldr	r0, .L138+4
 1784 005e FFF7FEFF 		bl	Q_onError
 1785              	.LVL212:
 1786              	.L136:
 609:Middlewares/Third_Party/QuantumLeaps_RTEF_qpc/ports/freertos/qf_port.c **** 
 1787              		.loc 1 609 13 is_stmt 1 view .LVU490
 609:Middlewares/Third_Party/QuantumLeaps_RTEF_qpc/ports/freertos/qf_port.c **** 
 1788              		.loc 1 609 28 is_stmt 0 view .LVU491
 1789 0062 6368     		ldr	r3, [r4, #4]
 609:Middlewares/Third_Party/QuantumLeaps_RTEF_qpc/ports/freertos/qf_port.c **** 
 1790              		.loc 1 609 24 view .LVU492
 1791 0064 6B60     		str	r3, [r5, #4]
 612:Middlewares/Third_Party/QuantumLeaps_RTEF_qpc/ports/freertos/qf_port.c ****             // do NOT advance the prev pointer
 1792              		.loc 1 612 13 is_stmt 1 view .LVU493
 612:Middlewares/Third_Party/QuantumLeaps_RTEF_qpc/ports/freertos/qf_port.c ****             // do NOT advance the prev pointer
 1793              		.loc 1 612 23 is_stmt 0 view .LVU494
 1794 0066 627D     		ldrb	r2, [r4, #21]
 1795              	.LVL213:
 612:Middlewares/Third_Party/QuantumLeaps_RTEF_qpc/ports/freertos/qf_port.c ****             // do NOT advance the prev pointer
 1796              		.loc 1 612 23 view .LVU495
 1797 0068 7F23     		movs	r3, #127
 1798 006a 1340     		ands	r3, r2
 1799 006c 6375     		strb	r3, [r4, #21]
 616:Middlewares/Third_Party/QuantumLeaps_RTEF_qpc/ports/freertos/qf_port.c ****         }
 1800              		.loc 1 616 13 is_stmt 1 view .LVU496
 1801 006e 3000     		movs	r0, r6
 1802 0070 FFF7FEFF 		bl	vClearInterruptMaskFromISR
ARM GAS  C:\Users\main\AppData\Local\Temp\ccGWoVmJ.s 			page 53


 1803              	.LVL214:
 1804              	.L129:
 637:Middlewares/Third_Party/QuantumLeaps_RTEF_qpc/ports/freertos/qf_port.c ****     }
 1805              		.loc 1 637 9 view .LVU497
 637:Middlewares/Third_Party/QuantumLeaps_RTEF_qpc/ports/freertos/qf_port.c ****     }
 1806              		.loc 1 637 34 is_stmt 0 view .LVU498
 1807 0074 FFF7FEFF 		bl	ulSetInterruptMaskFromISR
 1808              	.LVL215:
 1809 0078 0600     		movs	r6, r0
 1810              	.LVL216:
 637:Middlewares/Third_Party/QuantumLeaps_RTEF_qpc/ports/freertos/qf_port.c ****     }
 1811              		.loc 1 637 34 view .LVU499
 1812              	.LBE40:
 586:Middlewares/Third_Party/QuantumLeaps_RTEF_qpc/ports/freertos/qf_port.c ****         Q_ASSERT_INCRIT(610, prev != (QTimeEvt *)0); // sanity check
 1813              		.loc 1 586 11 is_stmt 1 view .LVU500
 1814              	.L131:
 586:Middlewares/Third_Party/QuantumLeaps_RTEF_qpc/ports/freertos/qf_port.c ****         Q_ASSERT_INCRIT(610, prev != (QTimeEvt *)0); // sanity check
 1815              		.loc 1 586 5 view .LVU501
 1816              	.LBB42:
 587:Middlewares/Third_Party/QuantumLeaps_RTEF_qpc/ports/freertos/qf_port.c **** 
 1817              		.loc 1 587 9 view .LVU502
 1818 007a 002D     		cmp	r5, #0
 1819 007c D7D0     		beq	.L133
 589:Middlewares/Third_Party/QuantumLeaps_RTEF_qpc/ports/freertos/qf_port.c **** 
 1820              		.loc 1 589 9 view .LVU503
 589:Middlewares/Third_Party/QuantumLeaps_RTEF_qpc/ports/freertos/qf_port.c **** 
 1821              		.loc 1 589 19 is_stmt 0 view .LVU504
 1822 007e 6C68     		ldr	r4, [r5, #4]
 1823              	.LVL217:
 591:Middlewares/Third_Party/QuantumLeaps_RTEF_qpc/ports/freertos/qf_port.c ****             // NO any new time events armed since the last QTimeEvt_tick_()?
 1824              		.loc 1 591 9 is_stmt 1 view .LVU505
 591:Middlewares/Third_Party/QuantumLeaps_RTEF_qpc/ports/freertos/qf_port.c ****             // NO any new time events armed since the last QTimeEvt_tick_()?
 1825              		.loc 1 591 12 is_stmt 0 view .LVU506
 1826 0080 002C     		cmp	r4, #0
 1827 0082 D8D0     		beq	.L134
 1828              	.L125:
 604:Middlewares/Third_Party/QuantumLeaps_RTEF_qpc/ports/freertos/qf_port.c **** 
 1829              		.loc 1 604 9 is_stmt 1 view .LVU507
 1830 0084 002C     		cmp	r4, #0
 1831 0086 E7D0     		beq	.L135
 606:Middlewares/Third_Party/QuantumLeaps_RTEF_qpc/ports/freertos/qf_port.c **** 
 1832              		.loc 1 606 9 view .LVU508
 606:Middlewares/Third_Party/QuantumLeaps_RTEF_qpc/ports/freertos/qf_port.c **** 
 1833              		.loc 1 606 21 is_stmt 0 view .LVU509
 1834 0088 E268     		ldr	r2, [r4, #12]
 1835              	.LVL218:
 608:Middlewares/Third_Party/QuantumLeaps_RTEF_qpc/ports/freertos/qf_port.c ****             prev->next = te->next;
 1836              		.loc 1 608 9 is_stmt 1 view .LVU510
 608:Middlewares/Third_Party/QuantumLeaps_RTEF_qpc/ports/freertos/qf_port.c ****             prev->next = te->next;
 1837              		.loc 1 608 12 is_stmt 0 view .LVU511
 1838 008a 002A     		cmp	r2, #0
 1839 008c E9D0     		beq	.L136
 618:Middlewares/Third_Party/QuantumLeaps_RTEF_qpc/ports/freertos/qf_port.c ****             QActive * const act = (QActive *)te->act;
 1840              		.loc 1 618 14 is_stmt 1 view .LVU512
 618:Middlewares/Third_Party/QuantumLeaps_RTEF_qpc/ports/freertos/qf_port.c ****             QActive * const act = (QActive *)te->act;
 1841              		.loc 1 618 17 is_stmt 0 view .LVU513
 1842 008e 012A     		cmp	r2, #1
ARM GAS  C:\Users\main\AppData\Local\Temp\ccGWoVmJ.s 			page 54


 1843 0090 06D0     		beq	.L137
 630:Middlewares/Third_Party/QuantumLeaps_RTEF_qpc/ports/freertos/qf_port.c ****             te->ctr = ctr; // update the original
 1844              		.loc 1 630 13 is_stmt 1 view .LVU514
 1845 0092 013A     		subs	r2, r2, #1
 1846              	.LVL219:
 631:Middlewares/Third_Party/QuantumLeaps_RTEF_qpc/ports/freertos/qf_port.c ****             prev = te; // advance to this time event
 1847              		.loc 1 631 13 view .LVU515
 631:Middlewares/Third_Party/QuantumLeaps_RTEF_qpc/ports/freertos/qf_port.c ****             prev = te; // advance to this time event
 1848              		.loc 1 631 21 is_stmt 0 view .LVU516
 1849 0094 E260     		str	r2, [r4, #12]
 632:Middlewares/Third_Party/QuantumLeaps_RTEF_qpc/ports/freertos/qf_port.c **** 
 1850              		.loc 1 632 13 is_stmt 1 view .LVU517
 1851              	.LVL220:
 634:Middlewares/Third_Party/QuantumLeaps_RTEF_qpc/ports/freertos/qf_port.c ****         }
 1852              		.loc 1 634 13 view .LVU518
 1853 0096 3000     		movs	r0, r6
 1854 0098 FFF7FEFF 		bl	vClearInterruptMaskFromISR
 1855              	.LVL221:
 632:Middlewares/Third_Party/QuantumLeaps_RTEF_qpc/ports/freertos/qf_port.c **** 
 1856              		.loc 1 632 18 is_stmt 0 view .LVU519
 1857 009c 2500     		movs	r5, r4
 1858 009e E9E7     		b	.L129
 1859              	.LVL222:
 1860              	.L137:
 1861              	.LBB41:
 619:Middlewares/Third_Party/QuantumLeaps_RTEF_qpc/ports/freertos/qf_port.c ****             prev = QTimeEvt_expire_(te, prev, act, tickRate);
 1862              		.loc 1 619 13 is_stmt 1 view .LVU520
 619:Middlewares/Third_Party/QuantumLeaps_RTEF_qpc/ports/freertos/qf_port.c ****             prev = QTimeEvt_expire_(te, prev, act, tickRate);
 1863              		.loc 1 619 29 is_stmt 0 view .LVU521
 1864 00a0 A368     		ldr	r3, [r4, #8]
 1865 00a2 9946     		mov	r9, r3
 1866              	.LVL223:
 620:Middlewares/Third_Party/QuantumLeaps_RTEF_qpc/ports/freertos/qf_port.c **** 
 1867              		.loc 1 620 13 is_stmt 1 view .LVU522
 620:Middlewares/Third_Party/QuantumLeaps_RTEF_qpc/ports/freertos/qf_port.c **** 
 1868              		.loc 1 620 20 is_stmt 0 view .LVU523
 1869 00a4 3B00     		movs	r3, r7
 1870              	.LVL224:
 620:Middlewares/Third_Party/QuantumLeaps_RTEF_qpc/ports/freertos/qf_port.c **** 
 1871              		.loc 1 620 20 view .LVU524
 1872 00a6 4A46     		mov	r2, r9
 1873              	.LVL225:
 620:Middlewares/Third_Party/QuantumLeaps_RTEF_qpc/ports/freertos/qf_port.c **** 
 1874              		.loc 1 620 20 view .LVU525
 1875 00a8 2900     		movs	r1, r5
 1876 00aa 2000     		movs	r0, r4
 1877 00ac FFF7FEFF 		bl	QTimeEvt_expire_
 1878              	.LVL226:
 1879 00b0 0500     		movs	r5, r0
 1880              	.LVL227:
 622:Middlewares/Third_Party/QuantumLeaps_RTEF_qpc/ports/freertos/qf_port.c **** 
 1881              		.loc 1 622 13 is_stmt 1 view .LVU526
 1882 00b2 3000     		movs	r0, r6
 1883              	.LVL228:
 622:Middlewares/Third_Party/QuantumLeaps_RTEF_qpc/ports/freertos/qf_port.c **** 
 1884              		.loc 1 622 13 is_stmt 0 view .LVU527
 1885 00b4 FFF7FEFF 		bl	vClearInterruptMaskFromISR
ARM GAS  C:\Users\main\AppData\Local\Temp\ccGWoVmJ.s 			page 55


 1886              	.LVL229:
 625:Middlewares/Third_Party/QuantumLeaps_RTEF_qpc/ports/freertos/qf_port.c ****                                   pxHigherPriorityTaskWoken,
 1887              		.loc 1 625 13 is_stmt 1 view .LVU528
 1888 00b8 0023     		movs	r3, #0
 1889 00ba 0093     		str	r3, [sp]
 1890 00bc 4346     		mov	r3, r8
 1891 00be 0A4A     		ldr	r2, .L138+12
 1892 00c0 2100     		movs	r1, r4
 1893 00c2 4846     		mov	r0, r9
 1894 00c4 FFF7FEFF 		bl	QActive_postFromISR_
 1895              	.LVL230:
 1896              	.LBE41:
 1897 00c8 D4E7     		b	.L129
 1898              	.LVL231:
 1899              	.L126:
 625:Middlewares/Third_Party/QuantumLeaps_RTEF_qpc/ports/freertos/qf_port.c ****                                   pxHigherPriorityTaskWoken,
 1900              		.loc 1 625 13 is_stmt 0 view .LVU529
 1901              	.LBE42:
 640:Middlewares/Third_Party/QuantumLeaps_RTEF_qpc/ports/freertos/qf_port.c **** }
 1902              		.loc 1 640 5 is_stmt 1 view .LVU530
 1903 00ca 3000     		movs	r0, r6
 1904 00cc FFF7FEFF 		bl	vClearInterruptMaskFromISR
 1905              	.LVL232:
 641:Middlewares/Third_Party/QuantumLeaps_RTEF_qpc/ports/freertos/qf_port.c **** 
 1906              		.loc 1 641 1 is_stmt 0 view .LVU531
 1907 00d0 03B0     		add	sp, sp, #12
 1908              		@ sp needed
 1909              	.LVL233:
 1910              	.LVL234:
 1911              	.LVL235:
 1912              	.LVL236:
 1913              	.LVL237:
 641:Middlewares/Third_Party/QuantumLeaps_RTEF_qpc/ports/freertos/qf_port.c **** 
 1914              		.loc 1 641 1 view .LVU532
 1915 00d2 C0BC     		pop	{r6, r7}
 1916 00d4 B946     		mov	r9, r7
 1917 00d6 B046     		mov	r8, r6
 1918 00d8 F0BD     		pop	{r4, r5, r6, r7, pc}
 1919              	.L139:
 1920 00da C046     		.align	2
 1921              	.L138:
 1922 00dc 00000000 		.word	QTimeEvt_timeEvtHead_
 1923 00e0 00000000 		.word	.LANCHOR0
 1924 00e4 62020000 		.word	610
 1925 00e8 FFFF0000 		.word	65535
 1926              		.cfi_endproc
 1927              	.LFE29:
 1929              		.section	.text.QActive_publishFromISR_,"ax",%progbits
 1930              		.align	1
 1931              		.global	QActive_publishFromISR_
 1932              		.syntax unified
 1933              		.code	16
 1934              		.thumb_func
 1936              	QActive_publishFromISR_:
 1937              	.LVL238:
 1938              	.LFB28:
 478:Middlewares/Third_Party/QuantumLeaps_RTEF_qpc/ports/freertos/qf_port.c ****     Q_REQUIRE_INCRIT(500, e != (QEvt *)0);
ARM GAS  C:\Users\main\AppData\Local\Temp\ccGWoVmJ.s 			page 56


 1939              		.loc 1 478 1 is_stmt 1 view -0
 1940              		.cfi_startproc
 1941              		@ args = 0, pretend = 0, frame = 0
 1942              		@ frame_needed = 0, uses_anonymous_args = 0
 478:Middlewares/Third_Party/QuantumLeaps_RTEF_qpc/ports/freertos/qf_port.c ****     Q_REQUIRE_INCRIT(500, e != (QEvt *)0);
 1943              		.loc 1 478 1 is_stmt 0 view .LVU534
 1944 0000 F0B5     		push	{r4, r5, r6, r7, lr}
 1945              	.LCFI22:
 1946              		.cfi_def_cfa_offset 20
 1947              		.cfi_offset 4, -20
 1948              		.cfi_offset 5, -16
 1949              		.cfi_offset 6, -12
 1950              		.cfi_offset 7, -8
 1951              		.cfi_offset 14, -4
 1952 0002 C646     		mov	lr, r8
 1953 0004 00B5     		push	{lr}
 1954              	.LCFI23:
 1955              		.cfi_def_cfa_offset 24
 1956              		.cfi_offset 8, -24
 1957 0006 82B0     		sub	sp, sp, #8
 1958              	.LCFI24:
 1959              		.cfi_def_cfa_offset 32
 1960 0008 061E     		subs	r6, r0, #0
 1961 000a 8846     		mov	r8, r1
 479:Middlewares/Third_Party/QuantumLeaps_RTEF_qpc/ports/freertos/qf_port.c **** 
 1962              		.loc 1 479 5 is_stmt 1 view .LVU535
 1963 000c 51D0     		beq	.L151
 481:Middlewares/Third_Party/QuantumLeaps_RTEF_qpc/ports/freertos/qf_port.c **** 
 1964              		.loc 1 481 5 view .LVU536
 481:Middlewares/Third_Party/QuantumLeaps_RTEF_qpc/ports/freertos/qf_port.c **** 
 1965              		.loc 1 481 19 is_stmt 0 view .LVU537
 1966 000e 0488     		ldrh	r4, [r0]
 1967              	.LVL239:
 483:Middlewares/Third_Party/QuantumLeaps_RTEF_qpc/ports/freertos/qf_port.c **** 
 1968              		.loc 1 483 5 is_stmt 1 view .LVU538
 483:Middlewares/Third_Party/QuantumLeaps_RTEF_qpc/ports/freertos/qf_port.c **** 
 1969              		.loc 1 483 42 is_stmt 0 view .LVU539
 1970 0010 FFF7FEFF 		bl	ulSetInterruptMaskFromISR
 1971              	.LVL240:
 486:Middlewares/Third_Party/QuantumLeaps_RTEF_qpc/ports/freertos/qf_port.c **** 
 1972              		.loc 1 486 5 is_stmt 1 view .LVU540
 1973 0014 344B     		ldr	r3, .L157
 1974 0016 1B88     		ldrh	r3, [r3]
 1975 0018 A342     		cmp	r3, r4
 1976 001a 4FD9     		bls	.L152
 488:Middlewares/Third_Party/QuantumLeaps_RTEF_qpc/ports/freertos/qf_port.c ****         QS_TIME_PRE();          // the timestamp
 1977              		.loc 1 488 5 view .LVU541
 489:Middlewares/Third_Party/QuantumLeaps_RTEF_qpc/ports/freertos/qf_port.c ****         QS_OBJ_PRE(sender);     // the sender object
 1978              		.loc 1 489 9 view .LVU542
 490:Middlewares/Third_Party/QuantumLeaps_RTEF_qpc/ports/freertos/qf_port.c ****         QS_SIG_PRE(sig);        // the signal of the event
 1979              		.loc 1 490 9 view .LVU543
 491:Middlewares/Third_Party/QuantumLeaps_RTEF_qpc/ports/freertos/qf_port.c ****         QS_2U8_PRE(e->poolNum_, e->refCtr_);
 1980              		.loc 1 491 9 view .LVU544
 492:Middlewares/Third_Party/QuantumLeaps_RTEF_qpc/ports/freertos/qf_port.c ****     QS_END_PRE()
 1981              		.loc 1 492 9 view .LVU545
 496:Middlewares/Third_Party/QuantumLeaps_RTEF_qpc/ports/freertos/qf_port.c ****         // NOTE: The reference counter of a mutable event is incremented to
 1982              		.loc 1 496 5 view .LVU546
ARM GAS  C:\Users\main\AppData\Local\Temp\ccGWoVmJ.s 			page 57


 496:Middlewares/Third_Party/QuantumLeaps_RTEF_qpc/ports/freertos/qf_port.c ****         // NOTE: The reference counter of a mutable event is incremented to
 1983              		.loc 1 496 10 is_stmt 0 view .LVU547
 1984 001c B378     		ldrb	r3, [r6, #2]
 496:Middlewares/Third_Party/QuantumLeaps_RTEF_qpc/ports/freertos/qf_port.c ****         // NOTE: The reference counter of a mutable event is incremented to
 1985              		.loc 1 496 8 view .LVU548
 1986 001e 002B     		cmp	r3, #0
 1987 0020 07D0     		beq	.L143
 503:Middlewares/Third_Party/QuantumLeaps_RTEF_qpc/ports/freertos/qf_port.c ****         QEvt_refCtr_inc_(e);
 1988              		.loc 1 503 9 is_stmt 1 view .LVU549
 1989 0022 F378     		ldrb	r3, [r6, #3]
 1990 0024 DBB2     		uxtb	r3, r3
 1991 0026 3F2B     		cmp	r3, #63
 1992 0028 4DD8     		bhi	.L153
 504:Middlewares/Third_Party/QuantumLeaps_RTEF_qpc/ports/freertos/qf_port.c ****     }
 1993              		.loc 1 504 9 view .LVU550
 1994              	.LVL241:
 1995              	.LBB43:
 1996              	.LBI43:
  61:Middlewares/Third_Party/QuantumLeaps_RTEF_qpc/include/qp_pkg.h ****     // NOTE: this function must be called inside a critical section
 1997              		.loc 2 61 20 view .LVU551
 1998              	.LBB44:
  63:Middlewares/Third_Party/QuantumLeaps_RTEF_qpc/include/qp_pkg.h ****     ((QEvt *)me)->refCtr_ = rc; // cast away 'const'
 1999              		.loc 2 63 5 view .LVU552
  63:Middlewares/Third_Party/QuantumLeaps_RTEF_qpc/include/qp_pkg.h ****     ((QEvt *)me)->refCtr_ = rc; // cast away 'const'
 2000              		.loc 2 63 26 is_stmt 0 view .LVU553
 2001 002a F378     		ldrb	r3, [r6, #3]
  63:Middlewares/Third_Party/QuantumLeaps_RTEF_qpc/include/qp_pkg.h ****     ((QEvt *)me)->refCtr_ = rc; // cast away 'const'
 2002              		.loc 2 63 19 view .LVU554
 2003 002c 0133     		adds	r3, r3, #1
 2004 002e DBB2     		uxtb	r3, r3
 2005              	.LVL242:
  64:Middlewares/Third_Party/QuantumLeaps_RTEF_qpc/include/qp_pkg.h **** }
 2006              		.loc 2 64 5 is_stmt 1 view .LVU555
  64:Middlewares/Third_Party/QuantumLeaps_RTEF_qpc/include/qp_pkg.h **** }
 2007              		.loc 2 64 27 is_stmt 0 view .LVU556
 2008 0030 F370     		strb	r3, [r6, #3]
 2009              	.LVL243:
 2010              	.L143:
  64:Middlewares/Third_Party/QuantumLeaps_RTEF_qpc/include/qp_pkg.h **** }
 2011              		.loc 2 64 27 view .LVU557
 2012              	.LBE44:
 2013              	.LBE43:
 508:Middlewares/Third_Party/QuantumLeaps_RTEF_qpc/ports/freertos/qf_port.c **** 
 2014              		.loc 1 508 5 is_stmt 1 view .LVU558
 508:Middlewares/Third_Party/QuantumLeaps_RTEF_qpc/ports/freertos/qf_port.c **** 
 2015              		.loc 1 508 42 is_stmt 0 view .LVU559
 2016 0032 A400     		lsls	r4, r4, #2
 2017              	.LVL244:
 508:Middlewares/Third_Party/QuantumLeaps_RTEF_qpc/ports/freertos/qf_port.c **** 
 2018              		.loc 1 508 42 view .LVU560
 2019 0034 2D4B     		ldr	r3, .L157+4
 2020 0036 1B68     		ldr	r3, [r3]
 508:Middlewares/Third_Party/QuantumLeaps_RTEF_qpc/ports/freertos/qf_port.c **** 
 2021              		.loc 1 508 11 view .LVU561
 2022 0038 1D59     		ldr	r5, [r3, r4]
 2023              	.LVL245:
 510:Middlewares/Third_Party/QuantumLeaps_RTEF_qpc/ports/freertos/qf_port.c **** 
ARM GAS  C:\Users\main\AppData\Local\Temp\ccGWoVmJ.s 			page 58


 2024              		.loc 1 510 5 is_stmt 1 view .LVU562
 2025 003a FFF7FEFF 		bl	vClearInterruptMaskFromISR
 2026              	.LVL246:
 512:Middlewares/Third_Party/QuantumLeaps_RTEF_qpc/ports/freertos/qf_port.c ****         // the highest-prio subscriber
 2027              		.loc 1 512 5 view .LVU563
 2028              	.LBB45:
 2029              	.LBI45:
 2030              		.file 3 "Middlewares/Third_Party/QuantumLeaps_RTEF_qpc/include/qp.h"
   1:Middlewares/Third_Party/QuantumLeaps_RTEF_qpc/include/qp.h **** //============================================================================
   2:Middlewares/Third_Party/QuantumLeaps_RTEF_qpc/include/qp.h **** // QP/C Real-Time Embedded Framework (RTEF)
   3:Middlewares/Third_Party/QuantumLeaps_RTEF_qpc/include/qp.h **** // Version 8.0.2
   4:Middlewares/Third_Party/QuantumLeaps_RTEF_qpc/include/qp.h **** //
   5:Middlewares/Third_Party/QuantumLeaps_RTEF_qpc/include/qp.h **** // Copyright (C) 2005 Quantum Leaps, LLC. All rights reserved.
   6:Middlewares/Third_Party/QuantumLeaps_RTEF_qpc/include/qp.h **** //
   7:Middlewares/Third_Party/QuantumLeaps_RTEF_qpc/include/qp.h **** //                    Q u a n t u m  L e a P s
   8:Middlewares/Third_Party/QuantumLeaps_RTEF_qpc/include/qp.h **** //                    ------------------------
   9:Middlewares/Third_Party/QuantumLeaps_RTEF_qpc/include/qp.h **** //                    Modern Embedded Software
  10:Middlewares/Third_Party/QuantumLeaps_RTEF_qpc/include/qp.h **** //
  11:Middlewares/Third_Party/QuantumLeaps_RTEF_qpc/include/qp.h **** // SPDX-License-Identifier: GPL-3.0-or-later OR LicenseRef-QL-commercial
  12:Middlewares/Third_Party/QuantumLeaps_RTEF_qpc/include/qp.h **** //
  13:Middlewares/Third_Party/QuantumLeaps_RTEF_qpc/include/qp.h **** // This software is dual-licensed under the terms of the open-source GNU
  14:Middlewares/Third_Party/QuantumLeaps_RTEF_qpc/include/qp.h **** // General Public License (GPL) or under the terms of one of the closed-
  15:Middlewares/Third_Party/QuantumLeaps_RTEF_qpc/include/qp.h **** // source Quantum Leaps commercial licenses.
  16:Middlewares/Third_Party/QuantumLeaps_RTEF_qpc/include/qp.h **** //
  17:Middlewares/Third_Party/QuantumLeaps_RTEF_qpc/include/qp.h **** // Redistributions in source code must retain this top-level comment block.
  18:Middlewares/Third_Party/QuantumLeaps_RTEF_qpc/include/qp.h **** // Plagiarizing this software to sidestep the license obligations is illegal.
  19:Middlewares/Third_Party/QuantumLeaps_RTEF_qpc/include/qp.h **** //
  20:Middlewares/Third_Party/QuantumLeaps_RTEF_qpc/include/qp.h **** // NOTE:
  21:Middlewares/Third_Party/QuantumLeaps_RTEF_qpc/include/qp.h **** // The GPL does NOT permit the incorporation of this code into proprietary
  22:Middlewares/Third_Party/QuantumLeaps_RTEF_qpc/include/qp.h **** // programs. Please contact Quantum Leaps for commercial licensing options,
  23:Middlewares/Third_Party/QuantumLeaps_RTEF_qpc/include/qp.h **** // which expressly supersede the GPL and are designed explicitly for
  24:Middlewares/Third_Party/QuantumLeaps_RTEF_qpc/include/qp.h **** // closed-source distribution.
  25:Middlewares/Third_Party/QuantumLeaps_RTEF_qpc/include/qp.h **** //
  26:Middlewares/Third_Party/QuantumLeaps_RTEF_qpc/include/qp.h **** // Quantum Leaps contact information:
  27:Middlewares/Third_Party/QuantumLeaps_RTEF_qpc/include/qp.h **** // <www.state-machine.com/licensing>
  28:Middlewares/Third_Party/QuantumLeaps_RTEF_qpc/include/qp.h **** // <info@state-machine.com>
  29:Middlewares/Third_Party/QuantumLeaps_RTEF_qpc/include/qp.h **** //============================================================================
  30:Middlewares/Third_Party/QuantumLeaps_RTEF_qpc/include/qp.h **** #ifndef QP_H_
  31:Middlewares/Third_Party/QuantumLeaps_RTEF_qpc/include/qp.h **** #define QP_H_
  32:Middlewares/Third_Party/QuantumLeaps_RTEF_qpc/include/qp.h **** 
  33:Middlewares/Third_Party/QuantumLeaps_RTEF_qpc/include/qp.h **** //============================================================================
  34:Middlewares/Third_Party/QuantumLeaps_RTEF_qpc/include/qp.h **** #define QP_VERSION_STR "8.0.2"
  35:Middlewares/Third_Party/QuantumLeaps_RTEF_qpc/include/qp.h **** #define QP_VERSION     802U
  36:Middlewares/Third_Party/QuantumLeaps_RTEF_qpc/include/qp.h **** // <VER>=802 <DATE>=250120
  37:Middlewares/Third_Party/QuantumLeaps_RTEF_qpc/include/qp.h **** #define QP_RELEASE     0x6AEAB45DU
  38:Middlewares/Third_Party/QuantumLeaps_RTEF_qpc/include/qp.h **** 
  39:Middlewares/Third_Party/QuantumLeaps_RTEF_qpc/include/qp.h **** //============================================================================
  40:Middlewares/Third_Party/QuantumLeaps_RTEF_qpc/include/qp.h **** // default configuration settings
  41:Middlewares/Third_Party/QuantumLeaps_RTEF_qpc/include/qp.h **** //! @cond INTERNAL
  42:Middlewares/Third_Party/QuantumLeaps_RTEF_qpc/include/qp.h **** 
  43:Middlewares/Third_Party/QuantumLeaps_RTEF_qpc/include/qp.h **** #ifndef Q_SIGNAL_SIZE
  44:Middlewares/Third_Party/QuantumLeaps_RTEF_qpc/include/qp.h **** #define Q_SIGNAL_SIZE 2U
  45:Middlewares/Third_Party/QuantumLeaps_RTEF_qpc/include/qp.h **** #endif
  46:Middlewares/Third_Party/QuantumLeaps_RTEF_qpc/include/qp.h **** 
  47:Middlewares/Third_Party/QuantumLeaps_RTEF_qpc/include/qp.h **** #ifndef QF_MAX_ACTIVE
  48:Middlewares/Third_Party/QuantumLeaps_RTEF_qpc/include/qp.h **** #define QF_MAX_ACTIVE 32U
  49:Middlewares/Third_Party/QuantumLeaps_RTEF_qpc/include/qp.h **** #endif
ARM GAS  C:\Users\main\AppData\Local\Temp\ccGWoVmJ.s 			page 59


  50:Middlewares/Third_Party/QuantumLeaps_RTEF_qpc/include/qp.h **** 
  51:Middlewares/Third_Party/QuantumLeaps_RTEF_qpc/include/qp.h **** #if (QF_MAX_ACTIVE > 64U)
  52:Middlewares/Third_Party/QuantumLeaps_RTEF_qpc/include/qp.h **** #error QF_MAX_ACTIVE exceeds the maximum of 64U;
  53:Middlewares/Third_Party/QuantumLeaps_RTEF_qpc/include/qp.h **** #endif
  54:Middlewares/Third_Party/QuantumLeaps_RTEF_qpc/include/qp.h **** 
  55:Middlewares/Third_Party/QuantumLeaps_RTEF_qpc/include/qp.h **** #ifndef QF_MAX_TICK_RATE
  56:Middlewares/Third_Party/QuantumLeaps_RTEF_qpc/include/qp.h **** #define QF_MAX_TICK_RATE 1U
  57:Middlewares/Third_Party/QuantumLeaps_RTEF_qpc/include/qp.h **** #endif
  58:Middlewares/Third_Party/QuantumLeaps_RTEF_qpc/include/qp.h **** 
  59:Middlewares/Third_Party/QuantumLeaps_RTEF_qpc/include/qp.h **** #if (QF_MAX_TICK_RATE > 15U)
  60:Middlewares/Third_Party/QuantumLeaps_RTEF_qpc/include/qp.h **** #error QF_MAX_TICK_RATE exceeds the maximum of 15U;
  61:Middlewares/Third_Party/QuantumLeaps_RTEF_qpc/include/qp.h **** #endif
  62:Middlewares/Third_Party/QuantumLeaps_RTEF_qpc/include/qp.h **** 
  63:Middlewares/Third_Party/QuantumLeaps_RTEF_qpc/include/qp.h **** #ifndef QF_MAX_EPOOL
  64:Middlewares/Third_Party/QuantumLeaps_RTEF_qpc/include/qp.h **** #define QF_MAX_EPOOL 3U
  65:Middlewares/Third_Party/QuantumLeaps_RTEF_qpc/include/qp.h **** #endif
  66:Middlewares/Third_Party/QuantumLeaps_RTEF_qpc/include/qp.h **** 
  67:Middlewares/Third_Party/QuantumLeaps_RTEF_qpc/include/qp.h **** #if (QF_MAX_EPOOL > 15U)
  68:Middlewares/Third_Party/QuantumLeaps_RTEF_qpc/include/qp.h **** #error QF_MAX_EPOOL exceeds the maximum of 15U;
  69:Middlewares/Third_Party/QuantumLeaps_RTEF_qpc/include/qp.h **** #endif
  70:Middlewares/Third_Party/QuantumLeaps_RTEF_qpc/include/qp.h **** 
  71:Middlewares/Third_Party/QuantumLeaps_RTEF_qpc/include/qp.h **** #ifndef QF_TIMEEVT_CTR_SIZE
  72:Middlewares/Third_Party/QuantumLeaps_RTEF_qpc/include/qp.h **** #define QF_TIMEEVT_CTR_SIZE 4U
  73:Middlewares/Third_Party/QuantumLeaps_RTEF_qpc/include/qp.h **** #endif
  74:Middlewares/Third_Party/QuantumLeaps_RTEF_qpc/include/qp.h **** 
  75:Middlewares/Third_Party/QuantumLeaps_RTEF_qpc/include/qp.h **** #if (QF_TIMEEVT_CTR_SIZE > 4U)
  76:Middlewares/Third_Party/QuantumLeaps_RTEF_qpc/include/qp.h **** #error QF_TIMEEVT_CTR_SIZE defined incorrectly, expected 1U, 2U, or 4U;
  77:Middlewares/Third_Party/QuantumLeaps_RTEF_qpc/include/qp.h **** #endif
  78:Middlewares/Third_Party/QuantumLeaps_RTEF_qpc/include/qp.h **** 
  79:Middlewares/Third_Party/QuantumLeaps_RTEF_qpc/include/qp.h **** #ifndef QF_EVENT_SIZ_SIZE
  80:Middlewares/Third_Party/QuantumLeaps_RTEF_qpc/include/qp.h **** #define QF_EVENT_SIZ_SIZE 2U
  81:Middlewares/Third_Party/QuantumLeaps_RTEF_qpc/include/qp.h **** #endif
  82:Middlewares/Third_Party/QuantumLeaps_RTEF_qpc/include/qp.h **** 
  83:Middlewares/Third_Party/QuantumLeaps_RTEF_qpc/include/qp.h **** #if (QF_EVENT_SIZ_SIZE > 4U)
  84:Middlewares/Third_Party/QuantumLeaps_RTEF_qpc/include/qp.h **** #error QF_EVENT_SIZ_SIZE defined incorrectly, expected 1U, 2U, or 4U;
  85:Middlewares/Third_Party/QuantumLeaps_RTEF_qpc/include/qp.h **** #endif
  86:Middlewares/Third_Party/QuantumLeaps_RTEF_qpc/include/qp.h **** 
  87:Middlewares/Third_Party/QuantumLeaps_RTEF_qpc/include/qp.h **** //! @endcond
  88:Middlewares/Third_Party/QuantumLeaps_RTEF_qpc/include/qp.h **** 
  89:Middlewares/Third_Party/QuantumLeaps_RTEF_qpc/include/qp.h **** //============================================================================
  90:Middlewares/Third_Party/QuantumLeaps_RTEF_qpc/include/qp.h **** // global types/utilities
  91:Middlewares/Third_Party/QuantumLeaps_RTEF_qpc/include/qp.h **** 
  92:Middlewares/Third_Party/QuantumLeaps_RTEF_qpc/include/qp.h **** typedef int    int_t;
  93:Middlewares/Third_Party/QuantumLeaps_RTEF_qpc/include/qp.h **** typedef int    enum_t;
  94:Middlewares/Third_Party/QuantumLeaps_RTEF_qpc/include/qp.h **** typedef float  float32_t;
  95:Middlewares/Third_Party/QuantumLeaps_RTEF_qpc/include/qp.h **** typedef double float64_t;
  96:Middlewares/Third_Party/QuantumLeaps_RTEF_qpc/include/qp.h **** 
  97:Middlewares/Third_Party/QuantumLeaps_RTEF_qpc/include/qp.h **** #define Q_UNUSED_PAR(par_)  ((void)(par_))
  98:Middlewares/Third_Party/QuantumLeaps_RTEF_qpc/include/qp.h **** #define Q_DIM(array_)       (sizeof(array_) / sizeof((array_)[0U]))
  99:Middlewares/Third_Party/QuantumLeaps_RTEF_qpc/include/qp.h **** #define Q_UINT2PTR_CAST(type_, uint_) ((type_ *)(uint_))
 100:Middlewares/Third_Party/QuantumLeaps_RTEF_qpc/include/qp.h **** 
 101:Middlewares/Third_Party/QuantumLeaps_RTEF_qpc/include/qp.h **** //============================================================================
 102:Middlewares/Third_Party/QuantumLeaps_RTEF_qpc/include/qp.h **** extern char const QP_versionStr[24];
 103:Middlewares/Third_Party/QuantumLeaps_RTEF_qpc/include/qp.h **** 
 104:Middlewares/Third_Party/QuantumLeaps_RTEF_qpc/include/qp.h **** // QSignal type
 105:Middlewares/Third_Party/QuantumLeaps_RTEF_qpc/include/qp.h **** #if (Q_SIGNAL_SIZE == 1U)
 106:Middlewares/Third_Party/QuantumLeaps_RTEF_qpc/include/qp.h ****     typedef uint8_t QSignal;
ARM GAS  C:\Users\main\AppData\Local\Temp\ccGWoVmJ.s 			page 60


 107:Middlewares/Third_Party/QuantumLeaps_RTEF_qpc/include/qp.h **** #elif (Q_SIGNAL_SIZE == 2U)
 108:Middlewares/Third_Party/QuantumLeaps_RTEF_qpc/include/qp.h ****     typedef uint16_t QSignal;
 109:Middlewares/Third_Party/QuantumLeaps_RTEF_qpc/include/qp.h **** #elif (Q_SIGNAL_SIZE == 4U)
 110:Middlewares/Third_Party/QuantumLeaps_RTEF_qpc/include/qp.h ****     typedef uint32_t QSignal;
 111:Middlewares/Third_Party/QuantumLeaps_RTEF_qpc/include/qp.h **** #endif
 112:Middlewares/Third_Party/QuantumLeaps_RTEF_qpc/include/qp.h **** 
 113:Middlewares/Third_Party/QuantumLeaps_RTEF_qpc/include/qp.h **** //============================================================================
 114:Middlewares/Third_Party/QuantumLeaps_RTEF_qpc/include/qp.h **** //! @class QEvt
 115:Middlewares/Third_Party/QuantumLeaps_RTEF_qpc/include/qp.h **** typedef struct QEvt {
 116:Middlewares/Third_Party/QuantumLeaps_RTEF_qpc/include/qp.h ****     QSignal sig;              //!< @public @memberof QEvt
 117:Middlewares/Third_Party/QuantumLeaps_RTEF_qpc/include/qp.h ****     uint8_t poolNum_;         //!< @private @memberof QEvt
 118:Middlewares/Third_Party/QuantumLeaps_RTEF_qpc/include/qp.h ****     uint8_t volatile refCtr_; //!< @private @memberof QEvt
 119:Middlewares/Third_Party/QuantumLeaps_RTEF_qpc/include/qp.h **** } QEvt;
 120:Middlewares/Third_Party/QuantumLeaps_RTEF_qpc/include/qp.h **** 
 121:Middlewares/Third_Party/QuantumLeaps_RTEF_qpc/include/qp.h **** #define QEVT_INITIALIZER(sig_) { (QSignal)(sig_), 0x00U, 0xE0U }
 122:Middlewares/Third_Party/QuantumLeaps_RTEF_qpc/include/qp.h **** //! @public @memberof QEvt
 123:Middlewares/Third_Party/QuantumLeaps_RTEF_qpc/include/qp.h **** static inline void QEvt_ctor(QEvt * const me,
 124:Middlewares/Third_Party/QuantumLeaps_RTEF_qpc/include/qp.h ****     enum_t const sig)
 125:Middlewares/Third_Party/QuantumLeaps_RTEF_qpc/include/qp.h **** {
 126:Middlewares/Third_Party/QuantumLeaps_RTEF_qpc/include/qp.h ****     me->sig      = (QSignal)sig;
 127:Middlewares/Third_Party/QuantumLeaps_RTEF_qpc/include/qp.h ****     me->poolNum_ = 0x00U;
 128:Middlewares/Third_Party/QuantumLeaps_RTEF_qpc/include/qp.h ****     me->refCtr_  = 0xE0U;
 129:Middlewares/Third_Party/QuantumLeaps_RTEF_qpc/include/qp.h **** }
 130:Middlewares/Third_Party/QuantumLeaps_RTEF_qpc/include/qp.h **** 
 131:Middlewares/Third_Party/QuantumLeaps_RTEF_qpc/include/qp.h **** //! @public @memberof QEvt
 132:Middlewares/Third_Party/QuantumLeaps_RTEF_qpc/include/qp.h **** static inline QEvt * QEvt_init(QEvt * const me,
 133:Middlewares/Third_Party/QuantumLeaps_RTEF_qpc/include/qp.h ****     uint8_t const dummy)
 134:Middlewares/Third_Party/QuantumLeaps_RTEF_qpc/include/qp.h **** {
 135:Middlewares/Third_Party/QuantumLeaps_RTEF_qpc/include/qp.h ****     Q_UNUSED_PAR(dummy);
 136:Middlewares/Third_Party/QuantumLeaps_RTEF_qpc/include/qp.h ****     return me;
 137:Middlewares/Third_Party/QuantumLeaps_RTEF_qpc/include/qp.h **** }
 138:Middlewares/Third_Party/QuantumLeaps_RTEF_qpc/include/qp.h **** 
 139:Middlewares/Third_Party/QuantumLeaps_RTEF_qpc/include/qp.h **** typedef QEvt const * QEvtPtr;
 140:Middlewares/Third_Party/QuantumLeaps_RTEF_qpc/include/qp.h **** 
 141:Middlewares/Third_Party/QuantumLeaps_RTEF_qpc/include/qp.h **** #define QEVT_DYNAMIC           ((uint8_t)0)
 142:Middlewares/Third_Party/QuantumLeaps_RTEF_qpc/include/qp.h **** #define Q_EVT_CAST(class_)     ((class_ const *)(e))
 143:Middlewares/Third_Party/QuantumLeaps_RTEF_qpc/include/qp.h **** 
 144:Middlewares/Third_Party/QuantumLeaps_RTEF_qpc/include/qp.h **** //============================================================================
 145:Middlewares/Third_Party/QuantumLeaps_RTEF_qpc/include/qp.h **** // QEP (hierarchical event processor) types
 146:Middlewares/Third_Party/QuantumLeaps_RTEF_qpc/include/qp.h **** 
 147:Middlewares/Third_Party/QuantumLeaps_RTEF_qpc/include/qp.h **** typedef uint_fast8_t QState;
 148:Middlewares/Third_Party/QuantumLeaps_RTEF_qpc/include/qp.h **** typedef QState (*QStateHandler)(void * const me, QEvt const * const e);
 149:Middlewares/Third_Party/QuantumLeaps_RTEF_qpc/include/qp.h **** typedef QState (*QActionHandler)(void * const me);
 150:Middlewares/Third_Party/QuantumLeaps_RTEF_qpc/include/qp.h **** 
 151:Middlewares/Third_Party/QuantumLeaps_RTEF_qpc/include/qp.h **** struct QXThread; // forward declarsation
 152:Middlewares/Third_Party/QuantumLeaps_RTEF_qpc/include/qp.h **** typedef void (* QXThreadHandler )(struct QXThread * const me);
 153:Middlewares/Third_Party/QuantumLeaps_RTEF_qpc/include/qp.h **** 
 154:Middlewares/Third_Party/QuantumLeaps_RTEF_qpc/include/qp.h **** typedef struct QMState {
 155:Middlewares/Third_Party/QuantumLeaps_RTEF_qpc/include/qp.h ****     struct QMState const *superstate; //!< @private @memberof QMState
 156:Middlewares/Third_Party/QuantumLeaps_RTEF_qpc/include/qp.h ****     QStateHandler const stateHandler; //!< @private @memberof QMState
 157:Middlewares/Third_Party/QuantumLeaps_RTEF_qpc/include/qp.h ****     QActionHandler const entryAction; //!< @private @memberof QMState
 158:Middlewares/Third_Party/QuantumLeaps_RTEF_qpc/include/qp.h ****     QActionHandler const exitAction;  //!< @private @memberof QMState
 159:Middlewares/Third_Party/QuantumLeaps_RTEF_qpc/include/qp.h ****     QActionHandler const initAction;  //!< @private @memberof QMState
 160:Middlewares/Third_Party/QuantumLeaps_RTEF_qpc/include/qp.h **** } QMState;
 161:Middlewares/Third_Party/QuantumLeaps_RTEF_qpc/include/qp.h **** 
 162:Middlewares/Third_Party/QuantumLeaps_RTEF_qpc/include/qp.h **** typedef struct QMTranActTable {
 163:Middlewares/Third_Party/QuantumLeaps_RTEF_qpc/include/qp.h ****     QMState const *target;        //!< @private @memberof QMTranActTable
ARM GAS  C:\Users\main\AppData\Local\Temp\ccGWoVmJ.s 			page 61


 164:Middlewares/Third_Party/QuantumLeaps_RTEF_qpc/include/qp.h ****     QActionHandler const act[1];  //!< @private @memberof QMTranActTable
 165:Middlewares/Third_Party/QuantumLeaps_RTEF_qpc/include/qp.h **** } QMTranActTable;
 166:Middlewares/Third_Party/QuantumLeaps_RTEF_qpc/include/qp.h **** 
 167:Middlewares/Third_Party/QuantumLeaps_RTEF_qpc/include/qp.h **** union QAsmAttr {
 168:Middlewares/Third_Party/QuantumLeaps_RTEF_qpc/include/qp.h ****     QStateHandler   fun;          //!< @private @memberof QAsmAttr
 169:Middlewares/Third_Party/QuantumLeaps_RTEF_qpc/include/qp.h ****     QActionHandler  act;          //!< @private @memberof QAsmAttr
 170:Middlewares/Third_Party/QuantumLeaps_RTEF_qpc/include/qp.h ****     QXThreadHandler thr;          //!< @private @memberof QAsmAttr
 171:Middlewares/Third_Party/QuantumLeaps_RTEF_qpc/include/qp.h ****     QMTranActTable  const *tatbl; //!< @private @memberof QAsmAttr
 172:Middlewares/Third_Party/QuantumLeaps_RTEF_qpc/include/qp.h ****     struct QMState  const *obj;   //!< @private @memberof QAsmAttr
 173:Middlewares/Third_Party/QuantumLeaps_RTEF_qpc/include/qp.h **** };
 174:Middlewares/Third_Party/QuantumLeaps_RTEF_qpc/include/qp.h **** 
 175:Middlewares/Third_Party/QuantumLeaps_RTEF_qpc/include/qp.h **** #define Q_STATE_CAST(handler_) ((QStateHandler)(handler_))
 176:Middlewares/Third_Party/QuantumLeaps_RTEF_qpc/include/qp.h **** #define Q_ACTION_CAST(action_) ((QActionHandler)(action_))
 177:Middlewares/Third_Party/QuantumLeaps_RTEF_qpc/include/qp.h **** #define Q_ACTION_NULL          ((QActionHandler)0)
 178:Middlewares/Third_Party/QuantumLeaps_RTEF_qpc/include/qp.h **** 
 179:Middlewares/Third_Party/QuantumLeaps_RTEF_qpc/include/qp.h **** //============================================================================
 180:Middlewares/Third_Party/QuantumLeaps_RTEF_qpc/include/qp.h **** //! @class QAsm
 181:Middlewares/Third_Party/QuantumLeaps_RTEF_qpc/include/qp.h **** typedef struct {
 182:Middlewares/Third_Party/QuantumLeaps_RTEF_qpc/include/qp.h ****     struct QAsmVtable const * vptr; //!< @protected @memberof QAsm
 183:Middlewares/Third_Party/QuantumLeaps_RTEF_qpc/include/qp.h ****     union QAsmAttr state;           //!< @protected @memberof QAsm
 184:Middlewares/Third_Party/QuantumLeaps_RTEF_qpc/include/qp.h ****     union QAsmAttr temp;            //!< @protected @memberof QAsm
 185:Middlewares/Third_Party/QuantumLeaps_RTEF_qpc/include/qp.h **** } QAsm;
 186:Middlewares/Third_Party/QuantumLeaps_RTEF_qpc/include/qp.h **** 
 187:Middlewares/Third_Party/QuantumLeaps_RTEF_qpc/include/qp.h **** // All possible values returned from state/action handlers
 188:Middlewares/Third_Party/QuantumLeaps_RTEF_qpc/include/qp.h **** // NOTE: The ordering is important for algorithmic correctness.
 189:Middlewares/Third_Party/QuantumLeaps_RTEF_qpc/include/qp.h **** #define Q_RET_SUPER     ((QState)0U)
 190:Middlewares/Third_Party/QuantumLeaps_RTEF_qpc/include/qp.h **** #define Q_RET_UNHANDLED ((QState)1U)
 191:Middlewares/Third_Party/QuantumLeaps_RTEF_qpc/include/qp.h **** 
 192:Middlewares/Third_Party/QuantumLeaps_RTEF_qpc/include/qp.h **** // handled and do not need to "bubble up"
 193:Middlewares/Third_Party/QuantumLeaps_RTEF_qpc/include/qp.h **** #define Q_RET_HANDLED   ((QState)2U)
 194:Middlewares/Third_Party/QuantumLeaps_RTEF_qpc/include/qp.h **** #define Q_RET_IGNORED   ((QState)3U)
 195:Middlewares/Third_Party/QuantumLeaps_RTEF_qpc/include/qp.h **** 
 196:Middlewares/Third_Party/QuantumLeaps_RTEF_qpc/include/qp.h **** // entry/exit
 197:Middlewares/Third_Party/QuantumLeaps_RTEF_qpc/include/qp.h **** #define Q_RET_ENTRY     ((QState)4U)
 198:Middlewares/Third_Party/QuantumLeaps_RTEF_qpc/include/qp.h **** #define Q_RET_EXIT      ((QState)5U)
