ARM GAS  C:\Users\main\AppData\Local\Temp\ccdsVh5e.s 			page 1


   1              		.cpu cortex-m0plus
   2              		.arch armv6s-m
   3              		.fpu softvfp
   4              		.eabi_attribute 20, 1
   5              		.eabi_attribute 21, 1
   6              		.eabi_attribute 23, 3
   7              		.eabi_attribute 24, 1
   8              		.eabi_attribute 25, 1
   9              		.eabi_attribute 26, 1
  10              		.eabi_attribute 30, 1
  11              		.eabi_attribute 34, 0
  12              		.eabi_attribute 18, 4
  13              		.file	"stm32c0xx_nucleo.c"
  14              		.text
  15              	.Ltext0:
  16              		.cfi_sections	.debug_frame
  17              		.section	.text.COM1_MspInit,"ax",%progbits
  18              		.align	1
  19              		.syntax unified
  20              		.code	16
  21              		.thumb_func
  23              	COM1_MspInit:
  24              	.LVL0:
  25              	.LFB365:
  26              		.file 1 "Drivers/BSP/STM32C0xx_Nucleo/stm32c0xx_nucleo.c"
   1:Drivers/BSP/STM32C0xx_Nucleo/stm32c0xx_nucleo.c **** /**
   2:Drivers/BSP/STM32C0xx_Nucleo/stm32c0xx_nucleo.c ****   ******************************************************************************
   3:Drivers/BSP/STM32C0xx_Nucleo/stm32c0xx_nucleo.c ****   * @file    stm32c0xx_nucleo.c
   4:Drivers/BSP/STM32C0xx_Nucleo/stm32c0xx_nucleo.c ****   * @author  MCD Application Team
   5:Drivers/BSP/STM32C0xx_Nucleo/stm32c0xx_nucleo.c ****   * @brief   This file provides set of firmware functions to manage:
   6:Drivers/BSP/STM32C0xx_Nucleo/stm32c0xx_nucleo.c ****   *          - LEDs and push-button available on STM32C0xx-Nucleo Kit
   7:Drivers/BSP/STM32C0xx_Nucleo/stm32c0xx_nucleo.c ****   *            from STMicroelectronics
   8:Drivers/BSP/STM32C0xx_Nucleo/stm32c0xx_nucleo.c ****   ******************************************************************************
   9:Drivers/BSP/STM32C0xx_Nucleo/stm32c0xx_nucleo.c ****   * @attention
  10:Drivers/BSP/STM32C0xx_Nucleo/stm32c0xx_nucleo.c ****   *
  11:Drivers/BSP/STM32C0xx_Nucleo/stm32c0xx_nucleo.c ****   * Copyright (c) 2022 STMicroelectronics.
  12:Drivers/BSP/STM32C0xx_Nucleo/stm32c0xx_nucleo.c ****   * All rights reserved.
  13:Drivers/BSP/STM32C0xx_Nucleo/stm32c0xx_nucleo.c ****   *
  14:Drivers/BSP/STM32C0xx_Nucleo/stm32c0xx_nucleo.c ****   * This software is licensed under terms that can be found in the LICENSE file
  15:Drivers/BSP/STM32C0xx_Nucleo/stm32c0xx_nucleo.c ****   * in the root directory of this software component.
  16:Drivers/BSP/STM32C0xx_Nucleo/stm32c0xx_nucleo.c ****   * If no LICENSE file comes with this software, it is provided AS-IS.
  17:Drivers/BSP/STM32C0xx_Nucleo/stm32c0xx_nucleo.c ****   *
  18:Drivers/BSP/STM32C0xx_Nucleo/stm32c0xx_nucleo.c ****   ******************************************************************************
  19:Drivers/BSP/STM32C0xx_Nucleo/stm32c0xx_nucleo.c ****   */
  20:Drivers/BSP/STM32C0xx_Nucleo/stm32c0xx_nucleo.c **** 
  21:Drivers/BSP/STM32C0xx_Nucleo/stm32c0xx_nucleo.c **** /* Includes ------------------------------------------------------------------*/
  22:Drivers/BSP/STM32C0xx_Nucleo/stm32c0xx_nucleo.c **** #include "stm32c0xx_nucleo.h"
  23:Drivers/BSP/STM32C0xx_Nucleo/stm32c0xx_nucleo.c **** #if defined(__ICCARM__)
  24:Drivers/BSP/STM32C0xx_Nucleo/stm32c0xx_nucleo.c **** #include <LowLevelIOInterface.h>
  25:Drivers/BSP/STM32C0xx_Nucleo/stm32c0xx_nucleo.c **** #endif /* __ICCARM__ */
  26:Drivers/BSP/STM32C0xx_Nucleo/stm32c0xx_nucleo.c **** /** @addtogroup BSP
  27:Drivers/BSP/STM32C0xx_Nucleo/stm32c0xx_nucleo.c ****   * @{
  28:Drivers/BSP/STM32C0xx_Nucleo/stm32c0xx_nucleo.c ****   */
  29:Drivers/BSP/STM32C0xx_Nucleo/stm32c0xx_nucleo.c **** 
  30:Drivers/BSP/STM32C0xx_Nucleo/stm32c0xx_nucleo.c **** /** @addtogroup STM32C0XX_NUCLEO
  31:Drivers/BSP/STM32C0xx_Nucleo/stm32c0xx_nucleo.c ****   * @{
  32:Drivers/BSP/STM32C0xx_Nucleo/stm32c0xx_nucleo.c ****   */
ARM GAS  C:\Users\main\AppData\Local\Temp\ccdsVh5e.s 			page 2


  33:Drivers/BSP/STM32C0xx_Nucleo/stm32c0xx_nucleo.c **** 
  34:Drivers/BSP/STM32C0xx_Nucleo/stm32c0xx_nucleo.c **** /** @addtogroup STM32C0XX_NUCLEO_LOW_LEVEL
  35:Drivers/BSP/STM32C0xx_Nucleo/stm32c0xx_nucleo.c ****   * @brief This file provides set of firmware functions to manage Leds and push-button
  36:Drivers/BSP/STM32C0xx_Nucleo/stm32c0xx_nucleo.c ****   *        available on STM32C0xx-Nucleo Kit from STMicroelectronics.
  37:Drivers/BSP/STM32C0xx_Nucleo/stm32c0xx_nucleo.c ****   * @{
  38:Drivers/BSP/STM32C0xx_Nucleo/stm32c0xx_nucleo.c ****   */
  39:Drivers/BSP/STM32C0xx_Nucleo/stm32c0xx_nucleo.c **** 
  40:Drivers/BSP/STM32C0xx_Nucleo/stm32c0xx_nucleo.c **** /** @defgroup STM32C0XX_NUCLEO_LOW_LEVEL_Private_Defines LOW LEVEL Private Defines
  41:Drivers/BSP/STM32C0xx_Nucleo/stm32c0xx_nucleo.c ****   * @{
  42:Drivers/BSP/STM32C0xx_Nucleo/stm32c0xx_nucleo.c ****   */
  43:Drivers/BSP/STM32C0xx_Nucleo/stm32c0xx_nucleo.c **** 
  44:Drivers/BSP/STM32C0xx_Nucleo/stm32c0xx_nucleo.c **** /**
  45:Drivers/BSP/STM32C0xx_Nucleo/stm32c0xx_nucleo.c ****   * @}
  46:Drivers/BSP/STM32C0xx_Nucleo/stm32c0xx_nucleo.c ****   */
  47:Drivers/BSP/STM32C0xx_Nucleo/stm32c0xx_nucleo.c **** 
  48:Drivers/BSP/STM32C0xx_Nucleo/stm32c0xx_nucleo.c **** /** @defgroup STM32C0XX_NUCLEO_LOW_LEVEL_Private_TypesDefinitions LOW LEVEL Private Typedef
  49:Drivers/BSP/STM32C0xx_Nucleo/stm32c0xx_nucleo.c ****   * @{
  50:Drivers/BSP/STM32C0xx_Nucleo/stm32c0xx_nucleo.c ****   */
  51:Drivers/BSP/STM32C0xx_Nucleo/stm32c0xx_nucleo.c **** typedef void (* BSP_EXTI_LineCallback)(void);
  52:Drivers/BSP/STM32C0xx_Nucleo/stm32c0xx_nucleo.c **** /**
  53:Drivers/BSP/STM32C0xx_Nucleo/stm32c0xx_nucleo.c ****   * @}
  54:Drivers/BSP/STM32C0xx_Nucleo/stm32c0xx_nucleo.c ****   */
  55:Drivers/BSP/STM32C0xx_Nucleo/stm32c0xx_nucleo.c **** 
  56:Drivers/BSP/STM32C0xx_Nucleo/stm32c0xx_nucleo.c **** /** @defgroup STM32C0XX_NUCLEO_LOW_LEVEL_Exported_Variables LOW LEVEL Exported Variables
  57:Drivers/BSP/STM32C0xx_Nucleo/stm32c0xx_nucleo.c ****   * @{
  58:Drivers/BSP/STM32C0xx_Nucleo/stm32c0xx_nucleo.c ****   */
  59:Drivers/BSP/STM32C0xx_Nucleo/stm32c0xx_nucleo.c **** EXTI_HandleTypeDef hpb_exti[BUTTONn];
  60:Drivers/BSP/STM32C0xx_Nucleo/stm32c0xx_nucleo.c **** #if (USE_BSP_COM_FEATURE > 0)
  61:Drivers/BSP/STM32C0xx_Nucleo/stm32c0xx_nucleo.c **** UART_HandleTypeDef hcom_uart[COMn];
  62:Drivers/BSP/STM32C0xx_Nucleo/stm32c0xx_nucleo.c **** USART_TypeDef *COM_USART[COMn]   = {COM1_UART};
  63:Drivers/BSP/STM32C0xx_Nucleo/stm32c0xx_nucleo.c **** #endif /* USE_BSP_COM_FEATURE */
  64:Drivers/BSP/STM32C0xx_Nucleo/stm32c0xx_nucleo.c **** /**
  65:Drivers/BSP/STM32C0xx_Nucleo/stm32c0xx_nucleo.c ****   * @}
  66:Drivers/BSP/STM32C0xx_Nucleo/stm32c0xx_nucleo.c ****   */
  67:Drivers/BSP/STM32C0xx_Nucleo/stm32c0xx_nucleo.c **** /** @defgroup STM32C0XX_NUCLEO_LOW_LEVEL_Private_Variables LOW LEVEL Private Variables
  68:Drivers/BSP/STM32C0xx_Nucleo/stm32c0xx_nucleo.c ****   * @{
  69:Drivers/BSP/STM32C0xx_Nucleo/stm32c0xx_nucleo.c ****   */
  70:Drivers/BSP/STM32C0xx_Nucleo/stm32c0xx_nucleo.c **** static GPIO_TypeDef *LED_PORT[LEDn] =
  71:Drivers/BSP/STM32C0xx_Nucleo/stm32c0xx_nucleo.c **** {
  72:Drivers/BSP/STM32C0xx_Nucleo/stm32c0xx_nucleo.c **** #if defined (USE_NUCLEO_64)
  73:Drivers/BSP/STM32C0xx_Nucleo/stm32c0xx_nucleo.c ****   LED1_GPIO_PORT,
  74:Drivers/BSP/STM32C0xx_Nucleo/stm32c0xx_nucleo.c ****   LED2_GPIO_PORT
  75:Drivers/BSP/STM32C0xx_Nucleo/stm32c0xx_nucleo.c **** #else
  76:Drivers/BSP/STM32C0xx_Nucleo/stm32c0xx_nucleo.c ****   LED4_GPIO_PORT
  77:Drivers/BSP/STM32C0xx_Nucleo/stm32c0xx_nucleo.c **** #endif /* USE_NUCLEO_64 */
  78:Drivers/BSP/STM32C0xx_Nucleo/stm32c0xx_nucleo.c **** };
  79:Drivers/BSP/STM32C0xx_Nucleo/stm32c0xx_nucleo.c **** static const uint16_t LED_PIN[LEDn] =
  80:Drivers/BSP/STM32C0xx_Nucleo/stm32c0xx_nucleo.c **** {
  81:Drivers/BSP/STM32C0xx_Nucleo/stm32c0xx_nucleo.c **** #if defined (USE_NUCLEO_64)
  82:Drivers/BSP/STM32C0xx_Nucleo/stm32c0xx_nucleo.c ****   LED1_PIN,
  83:Drivers/BSP/STM32C0xx_Nucleo/stm32c0xx_nucleo.c ****   LED2_PIN
  84:Drivers/BSP/STM32C0xx_Nucleo/stm32c0xx_nucleo.c **** #else
  85:Drivers/BSP/STM32C0xx_Nucleo/stm32c0xx_nucleo.c ****   LED4_PIN
  86:Drivers/BSP/STM32C0xx_Nucleo/stm32c0xx_nucleo.c **** #endif
  87:Drivers/BSP/STM32C0xx_Nucleo/stm32c0xx_nucleo.c **** };
  88:Drivers/BSP/STM32C0xx_Nucleo/stm32c0xx_nucleo.c **** 
  89:Drivers/BSP/STM32C0xx_Nucleo/stm32c0xx_nucleo.c **** static GPIO_TypeDef *BUTTON_PORT[BUTTONn]   = {BUTTON_USER_GPIO_PORT};
ARM GAS  C:\Users\main\AppData\Local\Temp\ccdsVh5e.s 			page 3


  90:Drivers/BSP/STM32C0xx_Nucleo/stm32c0xx_nucleo.c **** static const uint16_t BUTTON_PIN[BUTTONn]   = {BUTTON_USER_PIN};
  91:Drivers/BSP/STM32C0xx_Nucleo/stm32c0xx_nucleo.c **** static const IRQn_Type BUTTON_IRQn[BUTTONn] = {BUTTON_USER_EXTI_IRQn};
  92:Drivers/BSP/STM32C0xx_Nucleo/stm32c0xx_nucleo.c **** 
  93:Drivers/BSP/STM32C0xx_Nucleo/stm32c0xx_nucleo.c **** #if (USE_BSP_COM_FEATURE > 0)
  94:Drivers/BSP/STM32C0xx_Nucleo/stm32c0xx_nucleo.c **** #if (USE_COM_LOG > 0)
  95:Drivers/BSP/STM32C0xx_Nucleo/stm32c0xx_nucleo.c **** static COM_TypeDef COM_ActiveLogPort = COM1;
  96:Drivers/BSP/STM32C0xx_Nucleo/stm32c0xx_nucleo.c **** #endif /* USE_COM_LOG */
  97:Drivers/BSP/STM32C0xx_Nucleo/stm32c0xx_nucleo.c **** #if (USE_HAL_UART_REGISTER_CALLBACKS == 1)
  98:Drivers/BSP/STM32C0xx_Nucleo/stm32c0xx_nucleo.c **** static uint32_t IsComMspCbValid[COMn] = {0};
  99:Drivers/BSP/STM32C0xx_Nucleo/stm32c0xx_nucleo.c **** #endif /* (USE_HAL_UART_REGISTER_CALLBACKS == 1) */
 100:Drivers/BSP/STM32C0xx_Nucleo/stm32c0xx_nucleo.c **** #endif /* USE_BSP_COM_FEATURE) */
 101:Drivers/BSP/STM32C0xx_Nucleo/stm32c0xx_nucleo.c **** 
 102:Drivers/BSP/STM32C0xx_Nucleo/stm32c0xx_nucleo.c **** #if defined(__ICCARM__)
 103:Drivers/BSP/STM32C0xx_Nucleo/stm32c0xx_nucleo.c **** /* New definition from EWARM V9, compatible with EWARM8 */
 104:Drivers/BSP/STM32C0xx_Nucleo/stm32c0xx_nucleo.c **** int iar_fputc(int ch);
 105:Drivers/BSP/STM32C0xx_Nucleo/stm32c0xx_nucleo.c **** #define PUTCHAR_PROTOTYPE int iar_fputc(int ch)
 106:Drivers/BSP/STM32C0xx_Nucleo/stm32c0xx_nucleo.c **** 
 107:Drivers/BSP/STM32C0xx_Nucleo/stm32c0xx_nucleo.c **** #elif defined (__CC_ARM) || defined(__ARMCC_VERSION)
 108:Drivers/BSP/STM32C0xx_Nucleo/stm32c0xx_nucleo.c **** /* ARM Compiler 5/6 */
 109:Drivers/BSP/STM32C0xx_Nucleo/stm32c0xx_nucleo.c **** #define PUTCHAR_PROTOTYPE int fputc(int ch, FILE *f)
 110:Drivers/BSP/STM32C0xx_Nucleo/stm32c0xx_nucleo.c **** 
 111:Drivers/BSP/STM32C0xx_Nucleo/stm32c0xx_nucleo.c **** #elif defined(__GNUC__)
 112:Drivers/BSP/STM32C0xx_Nucleo/stm32c0xx_nucleo.c **** #define PUTCHAR_PROTOTYPE int __io_putchar(int ch)
 113:Drivers/BSP/STM32C0xx_Nucleo/stm32c0xx_nucleo.c **** #endif /* __ICCARM__ */
 114:Drivers/BSP/STM32C0xx_Nucleo/stm32c0xx_nucleo.c **** 
 115:Drivers/BSP/STM32C0xx_Nucleo/stm32c0xx_nucleo.c **** /**
 116:Drivers/BSP/STM32C0xx_Nucleo/stm32c0xx_nucleo.c ****   * @}
 117:Drivers/BSP/STM32C0xx_Nucleo/stm32c0xx_nucleo.c ****   */
 118:Drivers/BSP/STM32C0xx_Nucleo/stm32c0xx_nucleo.c **** 
 119:Drivers/BSP/STM32C0xx_Nucleo/stm32c0xx_nucleo.c **** /** @defgroup STM32C0XX_NUCLEO_LOW_LEVEL_Private_FunctionPrototypes LOW LEVEL Private functions Pro
 120:Drivers/BSP/STM32C0xx_Nucleo/stm32c0xx_nucleo.c ****   * @{
 121:Drivers/BSP/STM32C0xx_Nucleo/stm32c0xx_nucleo.c ****   */
 122:Drivers/BSP/STM32C0xx_Nucleo/stm32c0xx_nucleo.c **** static void BUTTON_USER_EXTI_Callback(void);
 123:Drivers/BSP/STM32C0xx_Nucleo/stm32c0xx_nucleo.c **** #if (USE_BSP_COM_FEATURE > 0)
 124:Drivers/BSP/STM32C0xx_Nucleo/stm32c0xx_nucleo.c **** static void COM1_MspInit(UART_HandleTypeDef *huart);
 125:Drivers/BSP/STM32C0xx_Nucleo/stm32c0xx_nucleo.c **** static void COM1_MspDeInit(UART_HandleTypeDef *huart);
 126:Drivers/BSP/STM32C0xx_Nucleo/stm32c0xx_nucleo.c **** #endif /* USE_BSP_COM_FEATURE */
 127:Drivers/BSP/STM32C0xx_Nucleo/stm32c0xx_nucleo.c **** /**
 128:Drivers/BSP/STM32C0xx_Nucleo/stm32c0xx_nucleo.c ****   * @}
 129:Drivers/BSP/STM32C0xx_Nucleo/stm32c0xx_nucleo.c ****   */
 130:Drivers/BSP/STM32C0xx_Nucleo/stm32c0xx_nucleo.c **** 
 131:Drivers/BSP/STM32C0xx_Nucleo/stm32c0xx_nucleo.c **** /** @defgroup STM32C0XX_NUCLEO_LOW_LEVEL_Exported_Functions LOW LEVEL Exported Functions
 132:Drivers/BSP/STM32C0xx_Nucleo/stm32c0xx_nucleo.c ****   * @{
 133:Drivers/BSP/STM32C0xx_Nucleo/stm32c0xx_nucleo.c ****   */
 134:Drivers/BSP/STM32C0xx_Nucleo/stm32c0xx_nucleo.c **** 
 135:Drivers/BSP/STM32C0xx_Nucleo/stm32c0xx_nucleo.c **** /**
 136:Drivers/BSP/STM32C0xx_Nucleo/stm32c0xx_nucleo.c ****   * @brief  This method returns the STM32C0XX NUCLEO BSP Driver revision
 137:Drivers/BSP/STM32C0xx_Nucleo/stm32c0xx_nucleo.c ****   * @retval version: 0xXYZR (8bits for each decimal, R for RC)
 138:Drivers/BSP/STM32C0xx_Nucleo/stm32c0xx_nucleo.c ****   */
 139:Drivers/BSP/STM32C0xx_Nucleo/stm32c0xx_nucleo.c **** int32_t BSP_GetVersion(void)
 140:Drivers/BSP/STM32C0xx_Nucleo/stm32c0xx_nucleo.c **** {
 141:Drivers/BSP/STM32C0xx_Nucleo/stm32c0xx_nucleo.c ****   return (int32_t)STM32C0XX_NUCLEO_BSP_VERSION;
 142:Drivers/BSP/STM32C0xx_Nucleo/stm32c0xx_nucleo.c **** }
 143:Drivers/BSP/STM32C0xx_Nucleo/stm32c0xx_nucleo.c **** 
 144:Drivers/BSP/STM32C0xx_Nucleo/stm32c0xx_nucleo.c **** /**
 145:Drivers/BSP/STM32C0xx_Nucleo/stm32c0xx_nucleo.c ****   * @brief  This method returns the board name
 146:Drivers/BSP/STM32C0xx_Nucleo/stm32c0xx_nucleo.c ****   * @retval pointer to the board name string
ARM GAS  C:\Users\main\AppData\Local\Temp\ccdsVh5e.s 			page 4


 147:Drivers/BSP/STM32C0xx_Nucleo/stm32c0xx_nucleo.c ****   */
 148:Drivers/BSP/STM32C0xx_Nucleo/stm32c0xx_nucleo.c **** const uint8_t *BSP_GetBoardName(void)
 149:Drivers/BSP/STM32C0xx_Nucleo/stm32c0xx_nucleo.c **** {
 150:Drivers/BSP/STM32C0xx_Nucleo/stm32c0xx_nucleo.c ****   return (uint8_t *)STM32C0XX_NUCLEO_BSP_BOARD_NAME;
 151:Drivers/BSP/STM32C0xx_Nucleo/stm32c0xx_nucleo.c **** }
 152:Drivers/BSP/STM32C0xx_Nucleo/stm32c0xx_nucleo.c **** 
 153:Drivers/BSP/STM32C0xx_Nucleo/stm32c0xx_nucleo.c **** /**
 154:Drivers/BSP/STM32C0xx_Nucleo/stm32c0xx_nucleo.c ****   * @brief  This method returns the board ID
 155:Drivers/BSP/STM32C0xx_Nucleo/stm32c0xx_nucleo.c ****   * @retval pointer to the board name string
 156:Drivers/BSP/STM32C0xx_Nucleo/stm32c0xx_nucleo.c ****   */
 157:Drivers/BSP/STM32C0xx_Nucleo/stm32c0xx_nucleo.c **** const uint8_t *BSP_GetBoardID(void)
 158:Drivers/BSP/STM32C0xx_Nucleo/stm32c0xx_nucleo.c **** {
 159:Drivers/BSP/STM32C0xx_Nucleo/stm32c0xx_nucleo.c ****   return (uint8_t *)STM32C0XX_NUCLEO_BSP_BOARD_ID;
 160:Drivers/BSP/STM32C0xx_Nucleo/stm32c0xx_nucleo.c **** }
 161:Drivers/BSP/STM32C0xx_Nucleo/stm32c0xx_nucleo.c **** 
 162:Drivers/BSP/STM32C0xx_Nucleo/stm32c0xx_nucleo.c **** /**
 163:Drivers/BSP/STM32C0xx_Nucleo/stm32c0xx_nucleo.c ****   * @brief  Configures LED GPIO.
 164:Drivers/BSP/STM32C0xx_Nucleo/stm32c0xx_nucleo.c ****   * @param  Led Specifies the Led to be configured.
 165:Drivers/BSP/STM32C0xx_Nucleo/stm32c0xx_nucleo.c ****   *   This parameter can be one of following parameters:
 166:Drivers/BSP/STM32C0xx_Nucleo/stm32c0xx_nucleo.c ****   *     @arg  LED1
 167:Drivers/BSP/STM32C0xx_Nucleo/stm32c0xx_nucleo.c ****   *     @arg  LED2
 168:Drivers/BSP/STM32C0xx_Nucleo/stm32c0xx_nucleo.c ****   *     @arg  LED4
 169:Drivers/BSP/STM32C0xx_Nucleo/stm32c0xx_nucleo.c ****   * @retval BSP status
 170:Drivers/BSP/STM32C0xx_Nucleo/stm32c0xx_nucleo.c ****   */
 171:Drivers/BSP/STM32C0xx_Nucleo/stm32c0xx_nucleo.c **** int32_t BSP_LED_Init(Led_TypeDef Led)
 172:Drivers/BSP/STM32C0xx_Nucleo/stm32c0xx_nucleo.c **** {
 173:Drivers/BSP/STM32C0xx_Nucleo/stm32c0xx_nucleo.c ****   int32_t ret = BSP_ERROR_NONE;
 174:Drivers/BSP/STM32C0xx_Nucleo/stm32c0xx_nucleo.c ****   GPIO_InitTypeDef  gpio_init_structure;
 175:Drivers/BSP/STM32C0xx_Nucleo/stm32c0xx_nucleo.c **** 
 176:Drivers/BSP/STM32C0xx_Nucleo/stm32c0xx_nucleo.c **** #if defined (USE_NUCLEO_64)
 177:Drivers/BSP/STM32C0xx_Nucleo/stm32c0xx_nucleo.c ****   if ((Led != LED1)
 178:Drivers/BSP/STM32C0xx_Nucleo/stm32c0xx_nucleo.c ****       && (Led != LED2))
 179:Drivers/BSP/STM32C0xx_Nucleo/stm32c0xx_nucleo.c **** #else
 180:Drivers/BSP/STM32C0xx_Nucleo/stm32c0xx_nucleo.c ****   if (Led != LED4)
 181:Drivers/BSP/STM32C0xx_Nucleo/stm32c0xx_nucleo.c **** #endif /* defined (USE_NUCLEO_64) */
 182:Drivers/BSP/STM32C0xx_Nucleo/stm32c0xx_nucleo.c ****   {
 183:Drivers/BSP/STM32C0xx_Nucleo/stm32c0xx_nucleo.c ****     ret = BSP_ERROR_WRONG_PARAM;
 184:Drivers/BSP/STM32C0xx_Nucleo/stm32c0xx_nucleo.c ****   }
 185:Drivers/BSP/STM32C0xx_Nucleo/stm32c0xx_nucleo.c ****   else
 186:Drivers/BSP/STM32C0xx_Nucleo/stm32c0xx_nucleo.c ****   {
 187:Drivers/BSP/STM32C0xx_Nucleo/stm32c0xx_nucleo.c ****     /* Enable the GPIO LED Clock */
 188:Drivers/BSP/STM32C0xx_Nucleo/stm32c0xx_nucleo.c **** #if defined (USE_NUCLEO_64)
 189:Drivers/BSP/STM32C0xx_Nucleo/stm32c0xx_nucleo.c ****     if (Led == LED1)
 190:Drivers/BSP/STM32C0xx_Nucleo/stm32c0xx_nucleo.c ****     {
 191:Drivers/BSP/STM32C0xx_Nucleo/stm32c0xx_nucleo.c ****       LED1_GPIO_CLK_ENABLE();
 192:Drivers/BSP/STM32C0xx_Nucleo/stm32c0xx_nucleo.c ****     }
 193:Drivers/BSP/STM32C0xx_Nucleo/stm32c0xx_nucleo.c ****     else
 194:Drivers/BSP/STM32C0xx_Nucleo/stm32c0xx_nucleo.c ****     {
 195:Drivers/BSP/STM32C0xx_Nucleo/stm32c0xx_nucleo.c ****       LED2_GPIO_CLK_ENABLE();
 196:Drivers/BSP/STM32C0xx_Nucleo/stm32c0xx_nucleo.c ****     }
 197:Drivers/BSP/STM32C0xx_Nucleo/stm32c0xx_nucleo.c **** #else
 198:Drivers/BSP/STM32C0xx_Nucleo/stm32c0xx_nucleo.c ****     if (Led == LED4)
 199:Drivers/BSP/STM32C0xx_Nucleo/stm32c0xx_nucleo.c ****     {
 200:Drivers/BSP/STM32C0xx_Nucleo/stm32c0xx_nucleo.c ****       LED4_GPIO_CLK_ENABLE();
 201:Drivers/BSP/STM32C0xx_Nucleo/stm32c0xx_nucleo.c ****     }
 202:Drivers/BSP/STM32C0xx_Nucleo/stm32c0xx_nucleo.c **** #endif /* defined (USE_NUCLEO_64) */
 203:Drivers/BSP/STM32C0xx_Nucleo/stm32c0xx_nucleo.c **** 
ARM GAS  C:\Users\main\AppData\Local\Temp\ccdsVh5e.s 			page 5


 204:Drivers/BSP/STM32C0xx_Nucleo/stm32c0xx_nucleo.c ****     /* Configure the GPIO_LED pin */
 205:Drivers/BSP/STM32C0xx_Nucleo/stm32c0xx_nucleo.c ****     gpio_init_structure.Pin   = LED_PIN[Led];
 206:Drivers/BSP/STM32C0xx_Nucleo/stm32c0xx_nucleo.c ****     gpio_init_structure.Mode  = GPIO_MODE_OUTPUT_PP;
 207:Drivers/BSP/STM32C0xx_Nucleo/stm32c0xx_nucleo.c ****     gpio_init_structure.Pull  = GPIO_NOPULL;
 208:Drivers/BSP/STM32C0xx_Nucleo/stm32c0xx_nucleo.c ****     gpio_init_structure.Speed = GPIO_SPEED_FREQ_VERY_HIGH;
 209:Drivers/BSP/STM32C0xx_Nucleo/stm32c0xx_nucleo.c **** 
 210:Drivers/BSP/STM32C0xx_Nucleo/stm32c0xx_nucleo.c ****     HAL_GPIO_Init(LED_PORT[Led], &gpio_init_structure);
 211:Drivers/BSP/STM32C0xx_Nucleo/stm32c0xx_nucleo.c **** #if defined (USE_NUCLEO_64)
 212:Drivers/BSP/STM32C0xx_Nucleo/stm32c0xx_nucleo.c ****     if (Led == LED2)
 213:Drivers/BSP/STM32C0xx_Nucleo/stm32c0xx_nucleo.c ****     {
 214:Drivers/BSP/STM32C0xx_Nucleo/stm32c0xx_nucleo.c ****      HAL_GPIO_WritePin(LED_PORT [Led], (uint16_t)LED_PIN[Led], GPIO_PIN_SET);
 215:Drivers/BSP/STM32C0xx_Nucleo/stm32c0xx_nucleo.c ****     }
 216:Drivers/BSP/STM32C0xx_Nucleo/stm32c0xx_nucleo.c **** #endif
 217:Drivers/BSP/STM32C0xx_Nucleo/stm32c0xx_nucleo.c ****   }
 218:Drivers/BSP/STM32C0xx_Nucleo/stm32c0xx_nucleo.c ****   return ret;
 219:Drivers/BSP/STM32C0xx_Nucleo/stm32c0xx_nucleo.c **** }
 220:Drivers/BSP/STM32C0xx_Nucleo/stm32c0xx_nucleo.c **** 
 221:Drivers/BSP/STM32C0xx_Nucleo/stm32c0xx_nucleo.c **** /**
 222:Drivers/BSP/STM32C0xx_Nucleo/stm32c0xx_nucleo.c ****   * @brief  DeInit LEDs.
 223:Drivers/BSP/STM32C0xx_Nucleo/stm32c0xx_nucleo.c ****   * @param  Led LED to be de-init.
 224:Drivers/BSP/STM32C0xx_Nucleo/stm32c0xx_nucleo.c ****   *   This parameter can be one of the following values:
 225:Drivers/BSP/STM32C0xx_Nucleo/stm32c0xx_nucleo.c ****   *     @arg  LED1
 226:Drivers/BSP/STM32C0xx_Nucleo/stm32c0xx_nucleo.c ****   *     @arg  LED2
 227:Drivers/BSP/STM32C0xx_Nucleo/stm32c0xx_nucleo.c ****   *     @arg  LED4
 228:Drivers/BSP/STM32C0xx_Nucleo/stm32c0xx_nucleo.c ****   * @retval BSP status
 229:Drivers/BSP/STM32C0xx_Nucleo/stm32c0xx_nucleo.c ****   */
 230:Drivers/BSP/STM32C0xx_Nucleo/stm32c0xx_nucleo.c **** int32_t BSP_LED_DeInit(Led_TypeDef Led)
 231:Drivers/BSP/STM32C0xx_Nucleo/stm32c0xx_nucleo.c **** {
 232:Drivers/BSP/STM32C0xx_Nucleo/stm32c0xx_nucleo.c ****   int32_t ret = BSP_ERROR_NONE;
 233:Drivers/BSP/STM32C0xx_Nucleo/stm32c0xx_nucleo.c ****   GPIO_InitTypeDef  gpio_init_structure;
 234:Drivers/BSP/STM32C0xx_Nucleo/stm32c0xx_nucleo.c **** 
 235:Drivers/BSP/STM32C0xx_Nucleo/stm32c0xx_nucleo.c **** #if defined (USE_NUCLEO_64)
 236:Drivers/BSP/STM32C0xx_Nucleo/stm32c0xx_nucleo.c ****   if ((Led != LED1)
 237:Drivers/BSP/STM32C0xx_Nucleo/stm32c0xx_nucleo.c ****       && (Led != LED2))
 238:Drivers/BSP/STM32C0xx_Nucleo/stm32c0xx_nucleo.c **** #else
 239:Drivers/BSP/STM32C0xx_Nucleo/stm32c0xx_nucleo.c ****   if (Led != LED4)
 240:Drivers/BSP/STM32C0xx_Nucleo/stm32c0xx_nucleo.c **** #endif /* defined (USE_NUCLEO_64) */
 241:Drivers/BSP/STM32C0xx_Nucleo/stm32c0xx_nucleo.c ****   {
 242:Drivers/BSP/STM32C0xx_Nucleo/stm32c0xx_nucleo.c ****     ret = BSP_ERROR_WRONG_PARAM;
 243:Drivers/BSP/STM32C0xx_Nucleo/stm32c0xx_nucleo.c ****   }
 244:Drivers/BSP/STM32C0xx_Nucleo/stm32c0xx_nucleo.c ****   else
 245:Drivers/BSP/STM32C0xx_Nucleo/stm32c0xx_nucleo.c ****   {
 246:Drivers/BSP/STM32C0xx_Nucleo/stm32c0xx_nucleo.c ****     /* Turn off LED */
 247:Drivers/BSP/STM32C0xx_Nucleo/stm32c0xx_nucleo.c ****     HAL_GPIO_WritePin(LED_PORT[Led], LED_PIN[Led], GPIO_PIN_RESET);
 248:Drivers/BSP/STM32C0xx_Nucleo/stm32c0xx_nucleo.c **** #if defined (USE_NUCLEO_64)
 249:Drivers/BSP/STM32C0xx_Nucleo/stm32c0xx_nucleo.c ****     if (Led == LED2)
 250:Drivers/BSP/STM32C0xx_Nucleo/stm32c0xx_nucleo.c ****     {
 251:Drivers/BSP/STM32C0xx_Nucleo/stm32c0xx_nucleo.c ****      HAL_GPIO_WritePin(LED_PORT [Led], (uint16_t)LED_PIN[Led], GPIO_PIN_SET);
 252:Drivers/BSP/STM32C0xx_Nucleo/stm32c0xx_nucleo.c ****     }
 253:Drivers/BSP/STM32C0xx_Nucleo/stm32c0xx_nucleo.c **** #endif
 254:Drivers/BSP/STM32C0xx_Nucleo/stm32c0xx_nucleo.c ****     /* DeInit the GPIO_LED pin */
 255:Drivers/BSP/STM32C0xx_Nucleo/stm32c0xx_nucleo.c ****     gpio_init_structure.Pin = LED_PIN[Led];
 256:Drivers/BSP/STM32C0xx_Nucleo/stm32c0xx_nucleo.c ****     HAL_GPIO_DeInit(LED_PORT[Led], gpio_init_structure.Pin);
 257:Drivers/BSP/STM32C0xx_Nucleo/stm32c0xx_nucleo.c ****   }
 258:Drivers/BSP/STM32C0xx_Nucleo/stm32c0xx_nucleo.c **** 
 259:Drivers/BSP/STM32C0xx_Nucleo/stm32c0xx_nucleo.c ****   return ret;
 260:Drivers/BSP/STM32C0xx_Nucleo/stm32c0xx_nucleo.c **** }
ARM GAS  C:\Users\main\AppData\Local\Temp\ccdsVh5e.s 			page 6


 261:Drivers/BSP/STM32C0xx_Nucleo/stm32c0xx_nucleo.c **** 
 262:Drivers/BSP/STM32C0xx_Nucleo/stm32c0xx_nucleo.c **** /**
 263:Drivers/BSP/STM32C0xx_Nucleo/stm32c0xx_nucleo.c ****   * @brief  Turns selected LED On.
 264:Drivers/BSP/STM32C0xx_Nucleo/stm32c0xx_nucleo.c ****   * @param  Led Specifies the Led to be set on.
 265:Drivers/BSP/STM32C0xx_Nucleo/stm32c0xx_nucleo.c ****   *   This parameter can be one of following parameters:
 266:Drivers/BSP/STM32C0xx_Nucleo/stm32c0xx_nucleo.c ****   *     @arg  LED1
 267:Drivers/BSP/STM32C0xx_Nucleo/stm32c0xx_nucleo.c ****   *     @arg  LED2
 268:Drivers/BSP/STM32C0xx_Nucleo/stm32c0xx_nucleo.c ****   *     @arg  LED4
 269:Drivers/BSP/STM32C0xx_Nucleo/stm32c0xx_nucleo.c ****   * @retval BSP status
 270:Drivers/BSP/STM32C0xx_Nucleo/stm32c0xx_nucleo.c ****   */
 271:Drivers/BSP/STM32C0xx_Nucleo/stm32c0xx_nucleo.c **** int32_t BSP_LED_On(Led_TypeDef Led)
 272:Drivers/BSP/STM32C0xx_Nucleo/stm32c0xx_nucleo.c **** {
 273:Drivers/BSP/STM32C0xx_Nucleo/stm32c0xx_nucleo.c ****   int32_t ret = BSP_ERROR_NONE;
 274:Drivers/BSP/STM32C0xx_Nucleo/stm32c0xx_nucleo.c **** 
 275:Drivers/BSP/STM32C0xx_Nucleo/stm32c0xx_nucleo.c **** #if defined (USE_NUCLEO_64)
 276:Drivers/BSP/STM32C0xx_Nucleo/stm32c0xx_nucleo.c ****   if ((Led != LED1)
 277:Drivers/BSP/STM32C0xx_Nucleo/stm32c0xx_nucleo.c ****       && (Led != LED2))
 278:Drivers/BSP/STM32C0xx_Nucleo/stm32c0xx_nucleo.c **** #else
 279:Drivers/BSP/STM32C0xx_Nucleo/stm32c0xx_nucleo.c ****   if (Led != LED4)
 280:Drivers/BSP/STM32C0xx_Nucleo/stm32c0xx_nucleo.c **** #endif /* defined (USE_NUCLEO_64) */
 281:Drivers/BSP/STM32C0xx_Nucleo/stm32c0xx_nucleo.c ****   {
 282:Drivers/BSP/STM32C0xx_Nucleo/stm32c0xx_nucleo.c ****     ret = BSP_ERROR_WRONG_PARAM;
 283:Drivers/BSP/STM32C0xx_Nucleo/stm32c0xx_nucleo.c ****   }
 284:Drivers/BSP/STM32C0xx_Nucleo/stm32c0xx_nucleo.c ****   else
 285:Drivers/BSP/STM32C0xx_Nucleo/stm32c0xx_nucleo.c ****   {
 286:Drivers/BSP/STM32C0xx_Nucleo/stm32c0xx_nucleo.c **** #if defined (USE_NUCLEO_64)
 287:Drivers/BSP/STM32C0xx_Nucleo/stm32c0xx_nucleo.c ****     if (Led == LED1)
 288:Drivers/BSP/STM32C0xx_Nucleo/stm32c0xx_nucleo.c ****     {
 289:Drivers/BSP/STM32C0xx_Nucleo/stm32c0xx_nucleo.c ****       HAL_GPIO_WritePin(LED_PORT[Led], LED_PIN[Led], GPIO_PIN_SET);
 290:Drivers/BSP/STM32C0xx_Nucleo/stm32c0xx_nucleo.c ****     }
 291:Drivers/BSP/STM32C0xx_Nucleo/stm32c0xx_nucleo.c ****     else
 292:Drivers/BSP/STM32C0xx_Nucleo/stm32c0xx_nucleo.c ****     {
 293:Drivers/BSP/STM32C0xx_Nucleo/stm32c0xx_nucleo.c ****       HAL_GPIO_WritePin(LED_PORT[Led], LED_PIN[Led], GPIO_PIN_RESET);
 294:Drivers/BSP/STM32C0xx_Nucleo/stm32c0xx_nucleo.c ****     }
 295:Drivers/BSP/STM32C0xx_Nucleo/stm32c0xx_nucleo.c **** #else
 296:Drivers/BSP/STM32C0xx_Nucleo/stm32c0xx_nucleo.c **** 
 297:Drivers/BSP/STM32C0xx_Nucleo/stm32c0xx_nucleo.c ****      HAL_GPIO_WritePin(LED_PORT[Led], LED_PIN[Led], GPIO_PIN_SET);
 298:Drivers/BSP/STM32C0xx_Nucleo/stm32c0xx_nucleo.c **** #endif
 299:Drivers/BSP/STM32C0xx_Nucleo/stm32c0xx_nucleo.c ****   }
 300:Drivers/BSP/STM32C0xx_Nucleo/stm32c0xx_nucleo.c **** 
 301:Drivers/BSP/STM32C0xx_Nucleo/stm32c0xx_nucleo.c ****   return ret;
 302:Drivers/BSP/STM32C0xx_Nucleo/stm32c0xx_nucleo.c **** }
 303:Drivers/BSP/STM32C0xx_Nucleo/stm32c0xx_nucleo.c **** 
 304:Drivers/BSP/STM32C0xx_Nucleo/stm32c0xx_nucleo.c **** /**
 305:Drivers/BSP/STM32C0xx_Nucleo/stm32c0xx_nucleo.c ****   * @brief  Turns selected LED Off.
 306:Drivers/BSP/STM32C0xx_Nucleo/stm32c0xx_nucleo.c ****   * @param  Led: Specifies the Led to be set off.
 307:Drivers/BSP/STM32C0xx_Nucleo/stm32c0xx_nucleo.c ****   *   This parameter can be one of following parameters:
 308:Drivers/BSP/STM32C0xx_Nucleo/stm32c0xx_nucleo.c ****   *     @arg  LED1
 309:Drivers/BSP/STM32C0xx_Nucleo/stm32c0xx_nucleo.c ****   *     @arg  LED2
 310:Drivers/BSP/STM32C0xx_Nucleo/stm32c0xx_nucleo.c ****   *     @arg  LED4
 311:Drivers/BSP/STM32C0xx_Nucleo/stm32c0xx_nucleo.c ****   * @retval BSP status
 312:Drivers/BSP/STM32C0xx_Nucleo/stm32c0xx_nucleo.c ****   */
 313:Drivers/BSP/STM32C0xx_Nucleo/stm32c0xx_nucleo.c **** int32_t BSP_LED_Off(Led_TypeDef Led)
 314:Drivers/BSP/STM32C0xx_Nucleo/stm32c0xx_nucleo.c **** {
 315:Drivers/BSP/STM32C0xx_Nucleo/stm32c0xx_nucleo.c ****   int32_t ret = BSP_ERROR_NONE;
 316:Drivers/BSP/STM32C0xx_Nucleo/stm32c0xx_nucleo.c **** 
 317:Drivers/BSP/STM32C0xx_Nucleo/stm32c0xx_nucleo.c **** #if defined (USE_NUCLEO_64)
ARM GAS  C:\Users\main\AppData\Local\Temp\ccdsVh5e.s 			page 7


 318:Drivers/BSP/STM32C0xx_Nucleo/stm32c0xx_nucleo.c ****   if ((Led != LED1)
 319:Drivers/BSP/STM32C0xx_Nucleo/stm32c0xx_nucleo.c ****       && (Led != LED2))
 320:Drivers/BSP/STM32C0xx_Nucleo/stm32c0xx_nucleo.c **** #else
 321:Drivers/BSP/STM32C0xx_Nucleo/stm32c0xx_nucleo.c ****   if (Led != LED4)
 322:Drivers/BSP/STM32C0xx_Nucleo/stm32c0xx_nucleo.c **** #endif /* defined (USE_NUCLEO_64) */
 323:Drivers/BSP/STM32C0xx_Nucleo/stm32c0xx_nucleo.c ****   {
 324:Drivers/BSP/STM32C0xx_Nucleo/stm32c0xx_nucleo.c ****     ret = BSP_ERROR_WRONG_PARAM;
 325:Drivers/BSP/STM32C0xx_Nucleo/stm32c0xx_nucleo.c ****   }
 326:Drivers/BSP/STM32C0xx_Nucleo/stm32c0xx_nucleo.c ****   else
 327:Drivers/BSP/STM32C0xx_Nucleo/stm32c0xx_nucleo.c ****   {
 328:Drivers/BSP/STM32C0xx_Nucleo/stm32c0xx_nucleo.c **** #if defined (USE_NUCLEO_64)
 329:Drivers/BSP/STM32C0xx_Nucleo/stm32c0xx_nucleo.c ****     if (Led == LED1)
 330:Drivers/BSP/STM32C0xx_Nucleo/stm32c0xx_nucleo.c ****     {
 331:Drivers/BSP/STM32C0xx_Nucleo/stm32c0xx_nucleo.c ****       HAL_GPIO_WritePin(LED_PORT[Led], LED_PIN[Led], GPIO_PIN_RESET);
 332:Drivers/BSP/STM32C0xx_Nucleo/stm32c0xx_nucleo.c ****     }
 333:Drivers/BSP/STM32C0xx_Nucleo/stm32c0xx_nucleo.c ****     else
 334:Drivers/BSP/STM32C0xx_Nucleo/stm32c0xx_nucleo.c ****     {
 335:Drivers/BSP/STM32C0xx_Nucleo/stm32c0xx_nucleo.c ****       HAL_GPIO_WritePin(LED_PORT[Led], LED_PIN[Led], GPIO_PIN_SET);
 336:Drivers/BSP/STM32C0xx_Nucleo/stm32c0xx_nucleo.c ****     }
 337:Drivers/BSP/STM32C0xx_Nucleo/stm32c0xx_nucleo.c **** #else
 338:Drivers/BSP/STM32C0xx_Nucleo/stm32c0xx_nucleo.c **** 
 339:Drivers/BSP/STM32C0xx_Nucleo/stm32c0xx_nucleo.c ****      HAL_GPIO_WritePin(LED_PORT[Led], LED_PIN[Led], GPIO_PIN_RESET);
 340:Drivers/BSP/STM32C0xx_Nucleo/stm32c0xx_nucleo.c **** #endif
 341:Drivers/BSP/STM32C0xx_Nucleo/stm32c0xx_nucleo.c ****   }
 342:Drivers/BSP/STM32C0xx_Nucleo/stm32c0xx_nucleo.c **** 
 343:Drivers/BSP/STM32C0xx_Nucleo/stm32c0xx_nucleo.c ****   return ret;
 344:Drivers/BSP/STM32C0xx_Nucleo/stm32c0xx_nucleo.c **** }
 345:Drivers/BSP/STM32C0xx_Nucleo/stm32c0xx_nucleo.c **** 
 346:Drivers/BSP/STM32C0xx_Nucleo/stm32c0xx_nucleo.c **** /**
 347:Drivers/BSP/STM32C0xx_Nucleo/stm32c0xx_nucleo.c ****   * @brief  Toggles the selected LED.
 348:Drivers/BSP/STM32C0xx_Nucleo/stm32c0xx_nucleo.c ****   * @param  Led Specifies the Led to be toggled.
 349:Drivers/BSP/STM32C0xx_Nucleo/stm32c0xx_nucleo.c ****   *   This parameter can be one of following parameters:
 350:Drivers/BSP/STM32C0xx_Nucleo/stm32c0xx_nucleo.c ****   *     @arg  LED1
 351:Drivers/BSP/STM32C0xx_Nucleo/stm32c0xx_nucleo.c ****   *     @arg  LED2
 352:Drivers/BSP/STM32C0xx_Nucleo/stm32c0xx_nucleo.c ****   *     @arg  LED4
 353:Drivers/BSP/STM32C0xx_Nucleo/stm32c0xx_nucleo.c ****   * @retval BSP status
 354:Drivers/BSP/STM32C0xx_Nucleo/stm32c0xx_nucleo.c ****   */
 355:Drivers/BSP/STM32C0xx_Nucleo/stm32c0xx_nucleo.c **** int32_t BSP_LED_Toggle(Led_TypeDef Led)
 356:Drivers/BSP/STM32C0xx_Nucleo/stm32c0xx_nucleo.c **** {
 357:Drivers/BSP/STM32C0xx_Nucleo/stm32c0xx_nucleo.c ****   int32_t ret = BSP_ERROR_NONE;
 358:Drivers/BSP/STM32C0xx_Nucleo/stm32c0xx_nucleo.c **** 
 359:Drivers/BSP/STM32C0xx_Nucleo/stm32c0xx_nucleo.c **** #if defined (USE_NUCLEO_64)
 360:Drivers/BSP/STM32C0xx_Nucleo/stm32c0xx_nucleo.c ****   if ((Led != LED1)
 361:Drivers/BSP/STM32C0xx_Nucleo/stm32c0xx_nucleo.c ****       && (Led != LED2))
 362:Drivers/BSP/STM32C0xx_Nucleo/stm32c0xx_nucleo.c **** #else
 363:Drivers/BSP/STM32C0xx_Nucleo/stm32c0xx_nucleo.c ****   if (Led != LED4)
 364:Drivers/BSP/STM32C0xx_Nucleo/stm32c0xx_nucleo.c **** #endif /* defined (USE_NUCLEO_64) */
 365:Drivers/BSP/STM32C0xx_Nucleo/stm32c0xx_nucleo.c ****   {
 366:Drivers/BSP/STM32C0xx_Nucleo/stm32c0xx_nucleo.c ****     ret = BSP_ERROR_WRONG_PARAM;
 367:Drivers/BSP/STM32C0xx_Nucleo/stm32c0xx_nucleo.c ****   }
 368:Drivers/BSP/STM32C0xx_Nucleo/stm32c0xx_nucleo.c ****   else
 369:Drivers/BSP/STM32C0xx_Nucleo/stm32c0xx_nucleo.c ****   {
 370:Drivers/BSP/STM32C0xx_Nucleo/stm32c0xx_nucleo.c ****     HAL_GPIO_TogglePin(LED_PORT[Led], LED_PIN[Led]);
 371:Drivers/BSP/STM32C0xx_Nucleo/stm32c0xx_nucleo.c ****   }
 372:Drivers/BSP/STM32C0xx_Nucleo/stm32c0xx_nucleo.c **** 
 373:Drivers/BSP/STM32C0xx_Nucleo/stm32c0xx_nucleo.c ****   return ret;
 374:Drivers/BSP/STM32C0xx_Nucleo/stm32c0xx_nucleo.c **** }
ARM GAS  C:\Users\main\AppData\Local\Temp\ccdsVh5e.s 			page 8


 375:Drivers/BSP/STM32C0xx_Nucleo/stm32c0xx_nucleo.c **** 
 376:Drivers/BSP/STM32C0xx_Nucleo/stm32c0xx_nucleo.c **** /**
 377:Drivers/BSP/STM32C0xx_Nucleo/stm32c0xx_nucleo.c ****   * @brief  Get the state of the selected LED.
 378:Drivers/BSP/STM32C0xx_Nucleo/stm32c0xx_nucleo.c ****   * @param  Led LED to get its state
 379:Drivers/BSP/STM32C0xx_Nucleo/stm32c0xx_nucleo.c ****   *   This parameter can be one of following parameters:
 380:Drivers/BSP/STM32C0xx_Nucleo/stm32c0xx_nucleo.c ****   *     @arg  LED1
 381:Drivers/BSP/STM32C0xx_Nucleo/stm32c0xx_nucleo.c ****   *     @arg  LED2
 382:Drivers/BSP/STM32C0xx_Nucleo/stm32c0xx_nucleo.c ****   *     @arg  LED4
 383:Drivers/BSP/STM32C0xx_Nucleo/stm32c0xx_nucleo.c ****   * @retval LED status
 384:Drivers/BSP/STM32C0xx_Nucleo/stm32c0xx_nucleo.c ****   */
 385:Drivers/BSP/STM32C0xx_Nucleo/stm32c0xx_nucleo.c **** int32_t BSP_LED_GetState(Led_TypeDef Led)
 386:Drivers/BSP/STM32C0xx_Nucleo/stm32c0xx_nucleo.c **** {
 387:Drivers/BSP/STM32C0xx_Nucleo/stm32c0xx_nucleo.c ****   int32_t ret;
 388:Drivers/BSP/STM32C0xx_Nucleo/stm32c0xx_nucleo.c **** 
 389:Drivers/BSP/STM32C0xx_Nucleo/stm32c0xx_nucleo.c **** #if defined (USE_NUCLEO_64)
 390:Drivers/BSP/STM32C0xx_Nucleo/stm32c0xx_nucleo.c ****   if ((Led != LED1)
 391:Drivers/BSP/STM32C0xx_Nucleo/stm32c0xx_nucleo.c ****       && (Led != LED2))
 392:Drivers/BSP/STM32C0xx_Nucleo/stm32c0xx_nucleo.c **** #else
 393:Drivers/BSP/STM32C0xx_Nucleo/stm32c0xx_nucleo.c ****   if (Led != LED4)
 394:Drivers/BSP/STM32C0xx_Nucleo/stm32c0xx_nucleo.c **** #endif /* defined (USE_NUCLEO_64) */
 395:Drivers/BSP/STM32C0xx_Nucleo/stm32c0xx_nucleo.c ****   {
 396:Drivers/BSP/STM32C0xx_Nucleo/stm32c0xx_nucleo.c ****     ret = BSP_ERROR_WRONG_PARAM;
 397:Drivers/BSP/STM32C0xx_Nucleo/stm32c0xx_nucleo.c ****   }
 398:Drivers/BSP/STM32C0xx_Nucleo/stm32c0xx_nucleo.c ****   else
 399:Drivers/BSP/STM32C0xx_Nucleo/stm32c0xx_nucleo.c ****   {
 400:Drivers/BSP/STM32C0xx_Nucleo/stm32c0xx_nucleo.c ****     ret = (int32_t)HAL_GPIO_ReadPin(LED_PORT [Led], LED_PIN [Led]);
 401:Drivers/BSP/STM32C0xx_Nucleo/stm32c0xx_nucleo.c ****   }
 402:Drivers/BSP/STM32C0xx_Nucleo/stm32c0xx_nucleo.c **** 
 403:Drivers/BSP/STM32C0xx_Nucleo/stm32c0xx_nucleo.c ****   return ret;
 404:Drivers/BSP/STM32C0xx_Nucleo/stm32c0xx_nucleo.c **** }
 405:Drivers/BSP/STM32C0xx_Nucleo/stm32c0xx_nucleo.c **** 
 406:Drivers/BSP/STM32C0xx_Nucleo/stm32c0xx_nucleo.c **** /**
 407:Drivers/BSP/STM32C0xx_Nucleo/stm32c0xx_nucleo.c ****   * @brief  Configures button GPIO and EXTI Line.
 408:Drivers/BSP/STM32C0xx_Nucleo/stm32c0xx_nucleo.c ****   * @param  Button Button to be configured
 409:Drivers/BSP/STM32C0xx_Nucleo/stm32c0xx_nucleo.c ****   *          This parameter can be one of the following values:
 410:Drivers/BSP/STM32C0xx_Nucleo/stm32c0xx_nucleo.c ****   *            @arg  BUTTON_USER: Wakeup Push Button
 411:Drivers/BSP/STM32C0xx_Nucleo/stm32c0xx_nucleo.c ****   * @param  ButtonMode Button mode
 412:Drivers/BSP/STM32C0xx_Nucleo/stm32c0xx_nucleo.c ****   *          This parameter can be one of the following values:
 413:Drivers/BSP/STM32C0xx_Nucleo/stm32c0xx_nucleo.c ****   *            @arg  BUTTON_MODE_GPIO: Button will be used as simple IO
 414:Drivers/BSP/STM32C0xx_Nucleo/stm32c0xx_nucleo.c ****   *            @arg  BUTTON_MODE_EXTI: Button will be connected to EXTI line
 415:Drivers/BSP/STM32C0xx_Nucleo/stm32c0xx_nucleo.c ****   *                                    with interrupt generation capability
 416:Drivers/BSP/STM32C0xx_Nucleo/stm32c0xx_nucleo.c ****   */
 417:Drivers/BSP/STM32C0xx_Nucleo/stm32c0xx_nucleo.c **** int32_t BSP_PB_Init(Button_TypeDef Button, ButtonMode_TypeDef ButtonMode)
 418:Drivers/BSP/STM32C0xx_Nucleo/stm32c0xx_nucleo.c **** {
 419:Drivers/BSP/STM32C0xx_Nucleo/stm32c0xx_nucleo.c ****   GPIO_InitTypeDef gpio_init_structure;
 420:Drivers/BSP/STM32C0xx_Nucleo/stm32c0xx_nucleo.c ****   static BSP_EXTI_LineCallback ButtonCallback[BUTTONn] = {BUTTON_USER_EXTI_Callback};
 421:Drivers/BSP/STM32C0xx_Nucleo/stm32c0xx_nucleo.c ****   static uint32_t  BSP_BUTTON_PRIO [BUTTONn] = {BSP_BUTTON_USER_IT_PRIORITY};
 422:Drivers/BSP/STM32C0xx_Nucleo/stm32c0xx_nucleo.c ****   static const uint32_t BUTTON_EXTI_LINE[BUTTONn] = {BUTTON_USER_EXTI_LINE};
 423:Drivers/BSP/STM32C0xx_Nucleo/stm32c0xx_nucleo.c **** 
 424:Drivers/BSP/STM32C0xx_Nucleo/stm32c0xx_nucleo.c ****   /* Enable the BUTTON clock */
 425:Drivers/BSP/STM32C0xx_Nucleo/stm32c0xx_nucleo.c ****   BUTTON_USER_GPIO_CLK_ENABLE();
 426:Drivers/BSP/STM32C0xx_Nucleo/stm32c0xx_nucleo.c **** 
 427:Drivers/BSP/STM32C0xx_Nucleo/stm32c0xx_nucleo.c ****   gpio_init_structure.Pin = BUTTON_PIN [Button];
 428:Drivers/BSP/STM32C0xx_Nucleo/stm32c0xx_nucleo.c ****   gpio_init_structure.Pull = GPIO_PULLUP;
 429:Drivers/BSP/STM32C0xx_Nucleo/stm32c0xx_nucleo.c ****   gpio_init_structure.Speed = GPIO_SPEED_FREQ_HIGH;
 430:Drivers/BSP/STM32C0xx_Nucleo/stm32c0xx_nucleo.c **** 
 431:Drivers/BSP/STM32C0xx_Nucleo/stm32c0xx_nucleo.c ****   if (ButtonMode == BUTTON_MODE_GPIO)
ARM GAS  C:\Users\main\AppData\Local\Temp\ccdsVh5e.s 			page 9


 432:Drivers/BSP/STM32C0xx_Nucleo/stm32c0xx_nucleo.c ****   {
 433:Drivers/BSP/STM32C0xx_Nucleo/stm32c0xx_nucleo.c ****     /* Configure Button pin as input */
 434:Drivers/BSP/STM32C0xx_Nucleo/stm32c0xx_nucleo.c ****     gpio_init_structure.Mode = GPIO_MODE_INPUT;
 435:Drivers/BSP/STM32C0xx_Nucleo/stm32c0xx_nucleo.c ****     HAL_GPIO_Init(BUTTON_PORT [Button], &gpio_init_structure);
 436:Drivers/BSP/STM32C0xx_Nucleo/stm32c0xx_nucleo.c ****   }
 437:Drivers/BSP/STM32C0xx_Nucleo/stm32c0xx_nucleo.c ****   else /* (ButtonMode == BUTTON_MODE_EXTI) */
 438:Drivers/BSP/STM32C0xx_Nucleo/stm32c0xx_nucleo.c ****   {
 439:Drivers/BSP/STM32C0xx_Nucleo/stm32c0xx_nucleo.c ****     /* Configure Button pin as input with External interrupt */
 440:Drivers/BSP/STM32C0xx_Nucleo/stm32c0xx_nucleo.c ****     gpio_init_structure.Mode = GPIO_MODE_IT_FALLING;
 441:Drivers/BSP/STM32C0xx_Nucleo/stm32c0xx_nucleo.c **** 
 442:Drivers/BSP/STM32C0xx_Nucleo/stm32c0xx_nucleo.c ****     HAL_GPIO_Init(BUTTON_PORT[Button], &gpio_init_structure);
 443:Drivers/BSP/STM32C0xx_Nucleo/stm32c0xx_nucleo.c **** 
 444:Drivers/BSP/STM32C0xx_Nucleo/stm32c0xx_nucleo.c ****     (void)HAL_EXTI_GetHandle(&hpb_exti[Button], BUTTON_EXTI_LINE[Button]);
 445:Drivers/BSP/STM32C0xx_Nucleo/stm32c0xx_nucleo.c ****     (void)HAL_EXTI_RegisterCallback(&hpb_exti[Button],  HAL_EXTI_COMMON_CB_ID, ButtonCallback[Butto
 446:Drivers/BSP/STM32C0xx_Nucleo/stm32c0xx_nucleo.c **** 
 447:Drivers/BSP/STM32C0xx_Nucleo/stm32c0xx_nucleo.c ****     /* Enable and set Button EXTI Interrupt to the lowest priority */
 448:Drivers/BSP/STM32C0xx_Nucleo/stm32c0xx_nucleo.c ****     HAL_NVIC_SetPriority((BUTTON_IRQn[Button]), BSP_BUTTON_PRIO[Button], 0x00);
 449:Drivers/BSP/STM32C0xx_Nucleo/stm32c0xx_nucleo.c ****     HAL_NVIC_EnableIRQ((BUTTON_IRQn[Button]));
 450:Drivers/BSP/STM32C0xx_Nucleo/stm32c0xx_nucleo.c ****   }
 451:Drivers/BSP/STM32C0xx_Nucleo/stm32c0xx_nucleo.c **** 
 452:Drivers/BSP/STM32C0xx_Nucleo/stm32c0xx_nucleo.c ****   return BSP_ERROR_NONE;
 453:Drivers/BSP/STM32C0xx_Nucleo/stm32c0xx_nucleo.c **** }
 454:Drivers/BSP/STM32C0xx_Nucleo/stm32c0xx_nucleo.c **** 
 455:Drivers/BSP/STM32C0xx_Nucleo/stm32c0xx_nucleo.c **** /**
 456:Drivers/BSP/STM32C0xx_Nucleo/stm32c0xx_nucleo.c ****   * @brief  Push Button DeInit.
 457:Drivers/BSP/STM32C0xx_Nucleo/stm32c0xx_nucleo.c ****   * @param  Button Button to be configured
 458:Drivers/BSP/STM32C0xx_Nucleo/stm32c0xx_nucleo.c ****   *          This parameter can be one of the following values:
 459:Drivers/BSP/STM32C0xx_Nucleo/stm32c0xx_nucleo.c ****   *            @arg  BUTTON_USER: Wakeup Push Button
 460:Drivers/BSP/STM32C0xx_Nucleo/stm32c0xx_nucleo.c ****   * @note PB DeInit does not disable the GPIO clock
 461:Drivers/BSP/STM32C0xx_Nucleo/stm32c0xx_nucleo.c ****   */
 462:Drivers/BSP/STM32C0xx_Nucleo/stm32c0xx_nucleo.c **** int32_t BSP_PB_DeInit(Button_TypeDef Button)
 463:Drivers/BSP/STM32C0xx_Nucleo/stm32c0xx_nucleo.c **** {
 464:Drivers/BSP/STM32C0xx_Nucleo/stm32c0xx_nucleo.c ****   GPIO_InitTypeDef gpio_init_structure;
 465:Drivers/BSP/STM32C0xx_Nucleo/stm32c0xx_nucleo.c **** 
 466:Drivers/BSP/STM32C0xx_Nucleo/stm32c0xx_nucleo.c ****   gpio_init_structure.Pin = BUTTON_PIN[Button];
 467:Drivers/BSP/STM32C0xx_Nucleo/stm32c0xx_nucleo.c ****   HAL_NVIC_DisableIRQ((IRQn_Type)(BUTTON_IRQn[Button]));
 468:Drivers/BSP/STM32C0xx_Nucleo/stm32c0xx_nucleo.c ****   HAL_GPIO_DeInit(BUTTON_PORT[Button], gpio_init_structure.Pin);
 469:Drivers/BSP/STM32C0xx_Nucleo/stm32c0xx_nucleo.c **** 
 470:Drivers/BSP/STM32C0xx_Nucleo/stm32c0xx_nucleo.c ****   return BSP_ERROR_NONE;
 471:Drivers/BSP/STM32C0xx_Nucleo/stm32c0xx_nucleo.c **** }
 472:Drivers/BSP/STM32C0xx_Nucleo/stm32c0xx_nucleo.c **** 
 473:Drivers/BSP/STM32C0xx_Nucleo/stm32c0xx_nucleo.c **** /**
 474:Drivers/BSP/STM32C0xx_Nucleo/stm32c0xx_nucleo.c ****   * @brief  Returns the selected button state.
 475:Drivers/BSP/STM32C0xx_Nucleo/stm32c0xx_nucleo.c ****   * @param  Button Button to be checked
 476:Drivers/BSP/STM32C0xx_Nucleo/stm32c0xx_nucleo.c ****   *          This parameter can be one of the following values:
 477:Drivers/BSP/STM32C0xx_Nucleo/stm32c0xx_nucleo.c ****   *            @arg  BUTTON_USER: Wakeup Push Button
 478:Drivers/BSP/STM32C0xx_Nucleo/stm32c0xx_nucleo.c ****   * @retval The Button GPIO pin value (GPIO_PIN_RESET = button pressed)
 479:Drivers/BSP/STM32C0xx_Nucleo/stm32c0xx_nucleo.c ****   */
 480:Drivers/BSP/STM32C0xx_Nucleo/stm32c0xx_nucleo.c **** int32_t BSP_PB_GetState(Button_TypeDef Button)
 481:Drivers/BSP/STM32C0xx_Nucleo/stm32c0xx_nucleo.c **** {
 482:Drivers/BSP/STM32C0xx_Nucleo/stm32c0xx_nucleo.c ****   return (int32_t)HAL_GPIO_ReadPin(BUTTON_PORT[Button], BUTTON_PIN[Button]);
 483:Drivers/BSP/STM32C0xx_Nucleo/stm32c0xx_nucleo.c **** }
 484:Drivers/BSP/STM32C0xx_Nucleo/stm32c0xx_nucleo.c **** 
 485:Drivers/BSP/STM32C0xx_Nucleo/stm32c0xx_nucleo.c **** /**
 486:Drivers/BSP/STM32C0xx_Nucleo/stm32c0xx_nucleo.c ****   * @brief  BSP Button IRQ handler
 487:Drivers/BSP/STM32C0xx_Nucleo/stm32c0xx_nucleo.c ****   * @param  Button Can only be BUTTON_USER
 488:Drivers/BSP/STM32C0xx_Nucleo/stm32c0xx_nucleo.c ****   * @retval None
ARM GAS  C:\Users\main\AppData\Local\Temp\ccdsVh5e.s 			page 10


 489:Drivers/BSP/STM32C0xx_Nucleo/stm32c0xx_nucleo.c ****   */
 490:Drivers/BSP/STM32C0xx_Nucleo/stm32c0xx_nucleo.c **** void BSP_PB_IRQHandler(Button_TypeDef Button)
 491:Drivers/BSP/STM32C0xx_Nucleo/stm32c0xx_nucleo.c **** {
 492:Drivers/BSP/STM32C0xx_Nucleo/stm32c0xx_nucleo.c ****   HAL_EXTI_IRQHandler(&hpb_exti[Button]);
 493:Drivers/BSP/STM32C0xx_Nucleo/stm32c0xx_nucleo.c **** }
 494:Drivers/BSP/STM32C0xx_Nucleo/stm32c0xx_nucleo.c **** 
 495:Drivers/BSP/STM32C0xx_Nucleo/stm32c0xx_nucleo.c **** /**
 496:Drivers/BSP/STM32C0xx_Nucleo/stm32c0xx_nucleo.c ****   * @brief  BSP Push Button callback
 497:Drivers/BSP/STM32C0xx_Nucleo/stm32c0xx_nucleo.c ****   * @param  Button Specifies the pin connected EXTI line
 498:Drivers/BSP/STM32C0xx_Nucleo/stm32c0xx_nucleo.c ****   * @retval None
 499:Drivers/BSP/STM32C0xx_Nucleo/stm32c0xx_nucleo.c ****   */
 500:Drivers/BSP/STM32C0xx_Nucleo/stm32c0xx_nucleo.c **** __weak void BSP_PB_Callback(Button_TypeDef Button)
 501:Drivers/BSP/STM32C0xx_Nucleo/stm32c0xx_nucleo.c **** {
 502:Drivers/BSP/STM32C0xx_Nucleo/stm32c0xx_nucleo.c ****   /* Prevent unused argument(s) compilation warning */
 503:Drivers/BSP/STM32C0xx_Nucleo/stm32c0xx_nucleo.c ****   UNUSED(Button);
 504:Drivers/BSP/STM32C0xx_Nucleo/stm32c0xx_nucleo.c **** 
 505:Drivers/BSP/STM32C0xx_Nucleo/stm32c0xx_nucleo.c ****   /* This function should be implemented by the user application.
 506:Drivers/BSP/STM32C0xx_Nucleo/stm32c0xx_nucleo.c ****      It is called into this driver when an event on Button is triggered. */
 507:Drivers/BSP/STM32C0xx_Nucleo/stm32c0xx_nucleo.c **** }
 508:Drivers/BSP/STM32C0xx_Nucleo/stm32c0xx_nucleo.c **** 
 509:Drivers/BSP/STM32C0xx_Nucleo/stm32c0xx_nucleo.c **** #if (USE_BSP_COM_FEATURE > 0)
 510:Drivers/BSP/STM32C0xx_Nucleo/stm32c0xx_nucleo.c **** /**
 511:Drivers/BSP/STM32C0xx_Nucleo/stm32c0xx_nucleo.c ****   * @brief  Configures COM port.
 512:Drivers/BSP/STM32C0xx_Nucleo/stm32c0xx_nucleo.c ****   * @param  COM COM port to be configured.
 513:Drivers/BSP/STM32C0xx_Nucleo/stm32c0xx_nucleo.c ****   *          This parameter can be COM1
 514:Drivers/BSP/STM32C0xx_Nucleo/stm32c0xx_nucleo.c ****   * @param  COM_Init Pointer to a UART_HandleTypeDef structure that contains the
 515:Drivers/BSP/STM32C0xx_Nucleo/stm32c0xx_nucleo.c ****   *                  configuration information for the specified USART peripheral.
 516:Drivers/BSP/STM32C0xx_Nucleo/stm32c0xx_nucleo.c ****   * @retval BSP error code
 517:Drivers/BSP/STM32C0xx_Nucleo/stm32c0xx_nucleo.c ****   */
 518:Drivers/BSP/STM32C0xx_Nucleo/stm32c0xx_nucleo.c **** int32_t BSP_COM_Init(COM_TypeDef COM, COM_InitTypeDef *COM_Init)
 519:Drivers/BSP/STM32C0xx_Nucleo/stm32c0xx_nucleo.c **** {
 520:Drivers/BSP/STM32C0xx_Nucleo/stm32c0xx_nucleo.c ****   int32_t ret = BSP_ERROR_NONE;
 521:Drivers/BSP/STM32C0xx_Nucleo/stm32c0xx_nucleo.c **** 
 522:Drivers/BSP/STM32C0xx_Nucleo/stm32c0xx_nucleo.c ****   if (COM >= COMn)
 523:Drivers/BSP/STM32C0xx_Nucleo/stm32c0xx_nucleo.c ****   {
 524:Drivers/BSP/STM32C0xx_Nucleo/stm32c0xx_nucleo.c ****     ret = BSP_ERROR_WRONG_PARAM;
 525:Drivers/BSP/STM32C0xx_Nucleo/stm32c0xx_nucleo.c ****   }
 526:Drivers/BSP/STM32C0xx_Nucleo/stm32c0xx_nucleo.c ****   else
 527:Drivers/BSP/STM32C0xx_Nucleo/stm32c0xx_nucleo.c ****   {
 528:Drivers/BSP/STM32C0xx_Nucleo/stm32c0xx_nucleo.c **** #if (USE_HAL_UART_REGISTER_CALLBACKS == 0)
 529:Drivers/BSP/STM32C0xx_Nucleo/stm32c0xx_nucleo.c ****     /* Init the UART Msp */
 530:Drivers/BSP/STM32C0xx_Nucleo/stm32c0xx_nucleo.c ****     COM1_MspInit(&hcom_uart[COM]);
 531:Drivers/BSP/STM32C0xx_Nucleo/stm32c0xx_nucleo.c **** #else
 532:Drivers/BSP/STM32C0xx_Nucleo/stm32c0xx_nucleo.c ****     if (IsComMspCbValid[COM] == 0U)
 533:Drivers/BSP/STM32C0xx_Nucleo/stm32c0xx_nucleo.c ****     {
 534:Drivers/BSP/STM32C0xx_Nucleo/stm32c0xx_nucleo.c ****       if (BSP_COM_RegisterDefaultMspCallbacks(COM) != BSP_ERROR_NONE)
 535:Drivers/BSP/STM32C0xx_Nucleo/stm32c0xx_nucleo.c ****       {
 536:Drivers/BSP/STM32C0xx_Nucleo/stm32c0xx_nucleo.c ****         return BSP_ERROR_MSP_FAILURE;
 537:Drivers/BSP/STM32C0xx_Nucleo/stm32c0xx_nucleo.c ****       }
 538:Drivers/BSP/STM32C0xx_Nucleo/stm32c0xx_nucleo.c ****     }
 539:Drivers/BSP/STM32C0xx_Nucleo/stm32c0xx_nucleo.c **** #endif /* (USE_HAL_UART_REGISTER_CALLBACKS == 0) */
 540:Drivers/BSP/STM32C0xx_Nucleo/stm32c0xx_nucleo.c **** 
 541:Drivers/BSP/STM32C0xx_Nucleo/stm32c0xx_nucleo.c ****     if (MX_USART2_Init(&hcom_uart[COM], COM_Init) != HAL_OK)
 542:Drivers/BSP/STM32C0xx_Nucleo/stm32c0xx_nucleo.c ****     {
 543:Drivers/BSP/STM32C0xx_Nucleo/stm32c0xx_nucleo.c ****       ret = BSP_ERROR_PERIPH_FAILURE;
 544:Drivers/BSP/STM32C0xx_Nucleo/stm32c0xx_nucleo.c ****     }
 545:Drivers/BSP/STM32C0xx_Nucleo/stm32c0xx_nucleo.c ****   }
ARM GAS  C:\Users\main\AppData\Local\Temp\ccdsVh5e.s 			page 11


 546:Drivers/BSP/STM32C0xx_Nucleo/stm32c0xx_nucleo.c **** 
 547:Drivers/BSP/STM32C0xx_Nucleo/stm32c0xx_nucleo.c ****   return ret;
 548:Drivers/BSP/STM32C0xx_Nucleo/stm32c0xx_nucleo.c **** }
 549:Drivers/BSP/STM32C0xx_Nucleo/stm32c0xx_nucleo.c **** 
 550:Drivers/BSP/STM32C0xx_Nucleo/stm32c0xx_nucleo.c **** /**
 551:Drivers/BSP/STM32C0xx_Nucleo/stm32c0xx_nucleo.c ****   * @brief  DeInit COM port.
 552:Drivers/BSP/STM32C0xx_Nucleo/stm32c0xx_nucleo.c ****   * @param  COM COM port to be configured.
 553:Drivers/BSP/STM32C0xx_Nucleo/stm32c0xx_nucleo.c ****   *          This parameter can be COM1
 554:Drivers/BSP/STM32C0xx_Nucleo/stm32c0xx_nucleo.c ****   * @retval BSP status
 555:Drivers/BSP/STM32C0xx_Nucleo/stm32c0xx_nucleo.c ****   */
 556:Drivers/BSP/STM32C0xx_Nucleo/stm32c0xx_nucleo.c **** int32_t BSP_COM_DeInit(COM_TypeDef COM)
 557:Drivers/BSP/STM32C0xx_Nucleo/stm32c0xx_nucleo.c **** {
 558:Drivers/BSP/STM32C0xx_Nucleo/stm32c0xx_nucleo.c ****   int32_t ret = BSP_ERROR_NONE;
 559:Drivers/BSP/STM32C0xx_Nucleo/stm32c0xx_nucleo.c **** 
 560:Drivers/BSP/STM32C0xx_Nucleo/stm32c0xx_nucleo.c ****   if (COM >= COMn)
 561:Drivers/BSP/STM32C0xx_Nucleo/stm32c0xx_nucleo.c ****   {
 562:Drivers/BSP/STM32C0xx_Nucleo/stm32c0xx_nucleo.c ****     ret = BSP_ERROR_WRONG_PARAM;
 563:Drivers/BSP/STM32C0xx_Nucleo/stm32c0xx_nucleo.c ****   }
 564:Drivers/BSP/STM32C0xx_Nucleo/stm32c0xx_nucleo.c ****   else
 565:Drivers/BSP/STM32C0xx_Nucleo/stm32c0xx_nucleo.c ****   {
 566:Drivers/BSP/STM32C0xx_Nucleo/stm32c0xx_nucleo.c ****     /* USART configuration */
 567:Drivers/BSP/STM32C0xx_Nucleo/stm32c0xx_nucleo.c ****     hcom_uart[COM].Instance = COM_USART[COM];
 568:Drivers/BSP/STM32C0xx_Nucleo/stm32c0xx_nucleo.c **** 
 569:Drivers/BSP/STM32C0xx_Nucleo/stm32c0xx_nucleo.c **** #if (USE_HAL_UART_REGISTER_CALLBACKS == 0)
 570:Drivers/BSP/STM32C0xx_Nucleo/stm32c0xx_nucleo.c ****     COM1_MspDeInit(&hcom_uart[COM]);
 571:Drivers/BSP/STM32C0xx_Nucleo/stm32c0xx_nucleo.c **** #endif /* (USE_HAL_UART_REGISTER_CALLBACKS == 0) */
 572:Drivers/BSP/STM32C0xx_Nucleo/stm32c0xx_nucleo.c **** 
 573:Drivers/BSP/STM32C0xx_Nucleo/stm32c0xx_nucleo.c ****     if (HAL_UART_DeInit(&hcom_uart[COM]) != HAL_OK)
 574:Drivers/BSP/STM32C0xx_Nucleo/stm32c0xx_nucleo.c ****     {
 575:Drivers/BSP/STM32C0xx_Nucleo/stm32c0xx_nucleo.c ****       ret = BSP_ERROR_PERIPH_FAILURE;
 576:Drivers/BSP/STM32C0xx_Nucleo/stm32c0xx_nucleo.c ****     }
 577:Drivers/BSP/STM32C0xx_Nucleo/stm32c0xx_nucleo.c ****   }
 578:Drivers/BSP/STM32C0xx_Nucleo/stm32c0xx_nucleo.c **** 
 579:Drivers/BSP/STM32C0xx_Nucleo/stm32c0xx_nucleo.c ****   return ret;
 580:Drivers/BSP/STM32C0xx_Nucleo/stm32c0xx_nucleo.c **** }
 581:Drivers/BSP/STM32C0xx_Nucleo/stm32c0xx_nucleo.c **** 
 582:Drivers/BSP/STM32C0xx_Nucleo/stm32c0xx_nucleo.c **** /**
 583:Drivers/BSP/STM32C0xx_Nucleo/stm32c0xx_nucleo.c ****   * @brief  Configures COM port.
 584:Drivers/BSP/STM32C0xx_Nucleo/stm32c0xx_nucleo.c ****   * @param  huart USART handle
 585:Drivers/BSP/STM32C0xx_Nucleo/stm32c0xx_nucleo.c ****   * @param  COM_Init Pointer to a UART_HandleTypeDef structure that contains the
 586:Drivers/BSP/STM32C0xx_Nucleo/stm32c0xx_nucleo.c ****   *                  configuration information for the specified USART peripheral.
 587:Drivers/BSP/STM32C0xx_Nucleo/stm32c0xx_nucleo.c ****   * @retval HAL error code
 588:Drivers/BSP/STM32C0xx_Nucleo/stm32c0xx_nucleo.c ****   */
 589:Drivers/BSP/STM32C0xx_Nucleo/stm32c0xx_nucleo.c **** __weak HAL_StatusTypeDef MX_USART2_Init(UART_HandleTypeDef *huart, MX_UART_InitTypeDef *COM_Init)
 590:Drivers/BSP/STM32C0xx_Nucleo/stm32c0xx_nucleo.c **** {
 591:Drivers/BSP/STM32C0xx_Nucleo/stm32c0xx_nucleo.c ****   /* USART configuration */
 592:Drivers/BSP/STM32C0xx_Nucleo/stm32c0xx_nucleo.c ****   huart->Instance                = COM_USART[COM1];
 593:Drivers/BSP/STM32C0xx_Nucleo/stm32c0xx_nucleo.c ****   huart->Init.BaudRate           = COM_Init->BaudRate;
 594:Drivers/BSP/STM32C0xx_Nucleo/stm32c0xx_nucleo.c ****   huart->Init.Mode               = UART_MODE_TX_RX;
 595:Drivers/BSP/STM32C0xx_Nucleo/stm32c0xx_nucleo.c ****   huart->Init.Parity             = (uint32_t)COM_Init->Parity;
 596:Drivers/BSP/STM32C0xx_Nucleo/stm32c0xx_nucleo.c ****   huart->Init.WordLength         = (uint32_t)COM_Init->WordLength;
 597:Drivers/BSP/STM32C0xx_Nucleo/stm32c0xx_nucleo.c ****   huart->Init.StopBits           = (uint32_t)COM_Init->StopBits;
 598:Drivers/BSP/STM32C0xx_Nucleo/stm32c0xx_nucleo.c ****   huart->Init.HwFlowCtl          = (uint32_t)COM_Init->HwFlowCtl;
 599:Drivers/BSP/STM32C0xx_Nucleo/stm32c0xx_nucleo.c ****   huart->Init.OverSampling       = UART_OVERSAMPLING_8;
 600:Drivers/BSP/STM32C0xx_Nucleo/stm32c0xx_nucleo.c ****   huart->Init.ClockPrescaler     = UART_PRESCALER_DIV1;
 601:Drivers/BSP/STM32C0xx_Nucleo/stm32c0xx_nucleo.c ****   return HAL_UART_Init(huart);
 602:Drivers/BSP/STM32C0xx_Nucleo/stm32c0xx_nucleo.c **** }
ARM GAS  C:\Users\main\AppData\Local\Temp\ccdsVh5e.s 			page 12


 603:Drivers/BSP/STM32C0xx_Nucleo/stm32c0xx_nucleo.c **** 
 604:Drivers/BSP/STM32C0xx_Nucleo/stm32c0xx_nucleo.c **** #if (USE_HAL_UART_REGISTER_CALLBACKS == 1)
 605:Drivers/BSP/STM32C0xx_Nucleo/stm32c0xx_nucleo.c **** /**
 606:Drivers/BSP/STM32C0xx_Nucleo/stm32c0xx_nucleo.c ****   * @brief Register Default COM Msp Callbacks
 607:Drivers/BSP/STM32C0xx_Nucleo/stm32c0xx_nucleo.c ****   * @param  COM COM port to be configured.
 608:Drivers/BSP/STM32C0xx_Nucleo/stm32c0xx_nucleo.c ****   *          This parameter can be COM1
 609:Drivers/BSP/STM32C0xx_Nucleo/stm32c0xx_nucleo.c ****   * @retval BSP status
 610:Drivers/BSP/STM32C0xx_Nucleo/stm32c0xx_nucleo.c ****   */
 611:Drivers/BSP/STM32C0xx_Nucleo/stm32c0xx_nucleo.c **** int32_t BSP_COM_RegisterDefaultMspCallbacks(COM_TypeDef COM)
 612:Drivers/BSP/STM32C0xx_Nucleo/stm32c0xx_nucleo.c **** {
 613:Drivers/BSP/STM32C0xx_Nucleo/stm32c0xx_nucleo.c ****   int32_t ret = BSP_ERROR_NONE;
 614:Drivers/BSP/STM32C0xx_Nucleo/stm32c0xx_nucleo.c **** 
 615:Drivers/BSP/STM32C0xx_Nucleo/stm32c0xx_nucleo.c ****   if (COM >= COMn)
 616:Drivers/BSP/STM32C0xx_Nucleo/stm32c0xx_nucleo.c ****   {
 617:Drivers/BSP/STM32C0xx_Nucleo/stm32c0xx_nucleo.c ****     ret = BSP_ERROR_WRONG_PARAM;
 618:Drivers/BSP/STM32C0xx_Nucleo/stm32c0xx_nucleo.c ****   }
 619:Drivers/BSP/STM32C0xx_Nucleo/stm32c0xx_nucleo.c ****   else
 620:Drivers/BSP/STM32C0xx_Nucleo/stm32c0xx_nucleo.c ****   {
 621:Drivers/BSP/STM32C0xx_Nucleo/stm32c0xx_nucleo.c ****     __HAL_UART_RESET_HANDLE_STATE(&hcom_uart[COM]);
 622:Drivers/BSP/STM32C0xx_Nucleo/stm32c0xx_nucleo.c **** 
 623:Drivers/BSP/STM32C0xx_Nucleo/stm32c0xx_nucleo.c ****     /* Register default MspInit/MspDeInit Callback */
 624:Drivers/BSP/STM32C0xx_Nucleo/stm32c0xx_nucleo.c ****     if (HAL_UART_RegisterCallback(&hcom_uart[COM], HAL_UART_MSPINIT_CB_ID, COM1_MspInit) != HAL_OK)
 625:Drivers/BSP/STM32C0xx_Nucleo/stm32c0xx_nucleo.c ****     {
 626:Drivers/BSP/STM32C0xx_Nucleo/stm32c0xx_nucleo.c ****       ret = BSP_ERROR_PERIPH_FAILURE;
 627:Drivers/BSP/STM32C0xx_Nucleo/stm32c0xx_nucleo.c ****     }
 628:Drivers/BSP/STM32C0xx_Nucleo/stm32c0xx_nucleo.c ****     else if (HAL_UART_RegisterCallback(&hcom_uart[COM], HAL_UART_MSPDEINIT_CB_ID, COM1_MspDeInit) !
 629:Drivers/BSP/STM32C0xx_Nucleo/stm32c0xx_nucleo.c ****     {
 630:Drivers/BSP/STM32C0xx_Nucleo/stm32c0xx_nucleo.c ****       ret = BSP_ERROR_PERIPH_FAILURE;
 631:Drivers/BSP/STM32C0xx_Nucleo/stm32c0xx_nucleo.c ****     }
 632:Drivers/BSP/STM32C0xx_Nucleo/stm32c0xx_nucleo.c ****     else
 633:Drivers/BSP/STM32C0xx_Nucleo/stm32c0xx_nucleo.c ****     {
 634:Drivers/BSP/STM32C0xx_Nucleo/stm32c0xx_nucleo.c ****       IsComMspCbValid[COM] = 1U;
 635:Drivers/BSP/STM32C0xx_Nucleo/stm32c0xx_nucleo.c ****     }
 636:Drivers/BSP/STM32C0xx_Nucleo/stm32c0xx_nucleo.c ****   }
 637:Drivers/BSP/STM32C0xx_Nucleo/stm32c0xx_nucleo.c **** 
 638:Drivers/BSP/STM32C0xx_Nucleo/stm32c0xx_nucleo.c ****   /* BSP status */
 639:Drivers/BSP/STM32C0xx_Nucleo/stm32c0xx_nucleo.c ****   return ret;
 640:Drivers/BSP/STM32C0xx_Nucleo/stm32c0xx_nucleo.c **** }
 641:Drivers/BSP/STM32C0xx_Nucleo/stm32c0xx_nucleo.c **** 
 642:Drivers/BSP/STM32C0xx_Nucleo/stm32c0xx_nucleo.c **** /**
 643:Drivers/BSP/STM32C0xx_Nucleo/stm32c0xx_nucleo.c ****   * @brief Register COM Msp Callback registering
 644:Drivers/BSP/STM32C0xx_Nucleo/stm32c0xx_nucleo.c ****   * @param  COM COM port to be configured.
 645:Drivers/BSP/STM32C0xx_Nucleo/stm32c0xx_nucleo.c ****   *          This parameter can be COM1
 646:Drivers/BSP/STM32C0xx_Nucleo/stm32c0xx_nucleo.c ****   * @param Callbacks     pointer to COM1 MspInit/MspDeInit callback functions
 647:Drivers/BSP/STM32C0xx_Nucleo/stm32c0xx_nucleo.c ****   * @retval BSP status
 648:Drivers/BSP/STM32C0xx_Nucleo/stm32c0xx_nucleo.c ****   */
 649:Drivers/BSP/STM32C0xx_Nucleo/stm32c0xx_nucleo.c **** int32_t BSP_COM_RegisterMspCallbacks(COM_TypeDef COM, BSP_COM_Cb_t *Callback)
 650:Drivers/BSP/STM32C0xx_Nucleo/stm32c0xx_nucleo.c **** {
 651:Drivers/BSP/STM32C0xx_Nucleo/stm32c0xx_nucleo.c ****   int32_t ret = BSP_ERROR_NONE;
 652:Drivers/BSP/STM32C0xx_Nucleo/stm32c0xx_nucleo.c **** 
 653:Drivers/BSP/STM32C0xx_Nucleo/stm32c0xx_nucleo.c ****   if (COM >= COMn)
 654:Drivers/BSP/STM32C0xx_Nucleo/stm32c0xx_nucleo.c ****   {
 655:Drivers/BSP/STM32C0xx_Nucleo/stm32c0xx_nucleo.c ****     ret = BSP_ERROR_WRONG_PARAM;
 656:Drivers/BSP/STM32C0xx_Nucleo/stm32c0xx_nucleo.c ****   }
 657:Drivers/BSP/STM32C0xx_Nucleo/stm32c0xx_nucleo.c ****   else
 658:Drivers/BSP/STM32C0xx_Nucleo/stm32c0xx_nucleo.c ****   {
 659:Drivers/BSP/STM32C0xx_Nucleo/stm32c0xx_nucleo.c ****     __HAL_UART_RESET_HANDLE_STATE(&hcom_uart[COM]);
ARM GAS  C:\Users\main\AppData\Local\Temp\ccdsVh5e.s 			page 13


 660:Drivers/BSP/STM32C0xx_Nucleo/stm32c0xx_nucleo.c **** 
 661:Drivers/BSP/STM32C0xx_Nucleo/stm32c0xx_nucleo.c ****     /* Register MspInit/MspDeInit Callbacks */
 662:Drivers/BSP/STM32C0xx_Nucleo/stm32c0xx_nucleo.c ****     if (HAL_UART_RegisterCallback(&hcom_uart[COM], HAL_UART_MSPINIT_CB_ID, Callback->pMspInitCb) !=
 663:Drivers/BSP/STM32C0xx_Nucleo/stm32c0xx_nucleo.c ****     {
 664:Drivers/BSP/STM32C0xx_Nucleo/stm32c0xx_nucleo.c ****       ret = BSP_ERROR_PERIPH_FAILURE;
 665:Drivers/BSP/STM32C0xx_Nucleo/stm32c0xx_nucleo.c ****     }
 666:Drivers/BSP/STM32C0xx_Nucleo/stm32c0xx_nucleo.c ****     else if (HAL_UART_RegisterCallback(&hcom_uart[COM], HAL_UART_MSPDEINIT_CB_ID, Callback->pMspDeI
 667:Drivers/BSP/STM32C0xx_Nucleo/stm32c0xx_nucleo.c ****     {
 668:Drivers/BSP/STM32C0xx_Nucleo/stm32c0xx_nucleo.c ****       ret = BSP_ERROR_PERIPH_FAILURE;
 669:Drivers/BSP/STM32C0xx_Nucleo/stm32c0xx_nucleo.c ****     }
 670:Drivers/BSP/STM32C0xx_Nucleo/stm32c0xx_nucleo.c ****     else
 671:Drivers/BSP/STM32C0xx_Nucleo/stm32c0xx_nucleo.c ****     {
 672:Drivers/BSP/STM32C0xx_Nucleo/stm32c0xx_nucleo.c ****       IsComMspCbValid[COM] = 1U;
 673:Drivers/BSP/STM32C0xx_Nucleo/stm32c0xx_nucleo.c ****     }
 674:Drivers/BSP/STM32C0xx_Nucleo/stm32c0xx_nucleo.c ****   }
 675:Drivers/BSP/STM32C0xx_Nucleo/stm32c0xx_nucleo.c ****   /* BSP status */
 676:Drivers/BSP/STM32C0xx_Nucleo/stm32c0xx_nucleo.c ****   return ret;
 677:Drivers/BSP/STM32C0xx_Nucleo/stm32c0xx_nucleo.c **** }
 678:Drivers/BSP/STM32C0xx_Nucleo/stm32c0xx_nucleo.c **** #endif /* USE_HAL_UART_REGISTER_CALLBACKS */
 679:Drivers/BSP/STM32C0xx_Nucleo/stm32c0xx_nucleo.c **** 
 680:Drivers/BSP/STM32C0xx_Nucleo/stm32c0xx_nucleo.c **** #if (USE_COM_LOG > 0)
 681:Drivers/BSP/STM32C0xx_Nucleo/stm32c0xx_nucleo.c **** /**
 682:Drivers/BSP/STM32C0xx_Nucleo/stm32c0xx_nucleo.c ****   * @brief  Select the active COM port.
 683:Drivers/BSP/STM32C0xx_Nucleo/stm32c0xx_nucleo.c ****   * @param  COM COM port to be activated.
 684:Drivers/BSP/STM32C0xx_Nucleo/stm32c0xx_nucleo.c ****   *          This parameter can be COM1
 685:Drivers/BSP/STM32C0xx_Nucleo/stm32c0xx_nucleo.c ****   * @retval BSP status
 686:Drivers/BSP/STM32C0xx_Nucleo/stm32c0xx_nucleo.c ****   */
 687:Drivers/BSP/STM32C0xx_Nucleo/stm32c0xx_nucleo.c **** int32_t BSP_COM_SelectLogPort(COM_TypeDef COM)
 688:Drivers/BSP/STM32C0xx_Nucleo/stm32c0xx_nucleo.c **** {
 689:Drivers/BSP/STM32C0xx_Nucleo/stm32c0xx_nucleo.c ****   if (COM_ActiveLogPort != COM)
 690:Drivers/BSP/STM32C0xx_Nucleo/stm32c0xx_nucleo.c ****   {
 691:Drivers/BSP/STM32C0xx_Nucleo/stm32c0xx_nucleo.c ****     COM_ActiveLogPort = COM;
 692:Drivers/BSP/STM32C0xx_Nucleo/stm32c0xx_nucleo.c ****   }
 693:Drivers/BSP/STM32C0xx_Nucleo/stm32c0xx_nucleo.c ****   return BSP_ERROR_NONE;
 694:Drivers/BSP/STM32C0xx_Nucleo/stm32c0xx_nucleo.c **** }
 695:Drivers/BSP/STM32C0xx_Nucleo/stm32c0xx_nucleo.c **** 
 696:Drivers/BSP/STM32C0xx_Nucleo/stm32c0xx_nucleo.c **** #if defined(__ICCARM__)
 697:Drivers/BSP/STM32C0xx_Nucleo/stm32c0xx_nucleo.c **** size_t __write(int file, unsigned char const *ptr, size_t len)
 698:Drivers/BSP/STM32C0xx_Nucleo/stm32c0xx_nucleo.c **** {
 699:Drivers/BSP/STM32C0xx_Nucleo/stm32c0xx_nucleo.c ****   size_t idx;
 700:Drivers/BSP/STM32C0xx_Nucleo/stm32c0xx_nucleo.c ****   unsigned char const *pdata = ptr;
 701:Drivers/BSP/STM32C0xx_Nucleo/stm32c0xx_nucleo.c **** 
 702:Drivers/BSP/STM32C0xx_Nucleo/stm32c0xx_nucleo.c ****   for (idx = 0; idx < len; idx++)
 703:Drivers/BSP/STM32C0xx_Nucleo/stm32c0xx_nucleo.c ****   {
 704:Drivers/BSP/STM32C0xx_Nucleo/stm32c0xx_nucleo.c ****     iar_fputc((int)*pdata);
 705:Drivers/BSP/STM32C0xx_Nucleo/stm32c0xx_nucleo.c ****     pdata++;
 706:Drivers/BSP/STM32C0xx_Nucleo/stm32c0xx_nucleo.c ****   }
 707:Drivers/BSP/STM32C0xx_Nucleo/stm32c0xx_nucleo.c ****   return len;
 708:Drivers/BSP/STM32C0xx_Nucleo/stm32c0xx_nucleo.c **** }
 709:Drivers/BSP/STM32C0xx_Nucleo/stm32c0xx_nucleo.c **** #endif /* __ICCARM__ */
 710:Drivers/BSP/STM32C0xx_Nucleo/stm32c0xx_nucleo.c **** 
 711:Drivers/BSP/STM32C0xx_Nucleo/stm32c0xx_nucleo.c **** /**
 712:Drivers/BSP/STM32C0xx_Nucleo/stm32c0xx_nucleo.c ****   * @brief  Redirect console output to COM
 713:Drivers/BSP/STM32C0xx_Nucleo/stm32c0xx_nucleo.c ****   */
 714:Drivers/BSP/STM32C0xx_Nucleo/stm32c0xx_nucleo.c **** 
 715:Drivers/BSP/STM32C0xx_Nucleo/stm32c0xx_nucleo.c **** PUTCHAR_PROTOTYPE
 716:Drivers/BSP/STM32C0xx_Nucleo/stm32c0xx_nucleo.c **** {
ARM GAS  C:\Users\main\AppData\Local\Temp\ccdsVh5e.s 			page 14


 717:Drivers/BSP/STM32C0xx_Nucleo/stm32c0xx_nucleo.c ****   HAL_UART_Transmit(&hcom_uart [COM_ActiveLogPort], (uint8_t *) &ch, 1, COM_POLL_TIMEOUT);
 718:Drivers/BSP/STM32C0xx_Nucleo/stm32c0xx_nucleo.c ****   return ch;
 719:Drivers/BSP/STM32C0xx_Nucleo/stm32c0xx_nucleo.c **** }
 720:Drivers/BSP/STM32C0xx_Nucleo/stm32c0xx_nucleo.c **** 
 721:Drivers/BSP/STM32C0xx_Nucleo/stm32c0xx_nucleo.c **** #endif /* USE_COM_LOG */
 722:Drivers/BSP/STM32C0xx_Nucleo/stm32c0xx_nucleo.c **** #endif /* USE_BSP_COM_FEATURE */
 723:Drivers/BSP/STM32C0xx_Nucleo/stm32c0xx_nucleo.c **** 
 724:Drivers/BSP/STM32C0xx_Nucleo/stm32c0xx_nucleo.c **** /**
 725:Drivers/BSP/STM32C0xx_Nucleo/stm32c0xx_nucleo.c ****   * @}
 726:Drivers/BSP/STM32C0xx_Nucleo/stm32c0xx_nucleo.c ****   */
 727:Drivers/BSP/STM32C0xx_Nucleo/stm32c0xx_nucleo.c **** 
 728:Drivers/BSP/STM32C0xx_Nucleo/stm32c0xx_nucleo.c **** /** @defgroup STM32C0XX_NUCLEO_LOW_LEVEL_Private_Functions LOW LEVEL Private functions
 729:Drivers/BSP/STM32C0xx_Nucleo/stm32c0xx_nucleo.c ****   * @{
 730:Drivers/BSP/STM32C0xx_Nucleo/stm32c0xx_nucleo.c ****   */
 731:Drivers/BSP/STM32C0xx_Nucleo/stm32c0xx_nucleo.c **** /**
 732:Drivers/BSP/STM32C0xx_Nucleo/stm32c0xx_nucleo.c ****   * @brief  Key EXTI line detection callbacks.
 733:Drivers/BSP/STM32C0xx_Nucleo/stm32c0xx_nucleo.c ****   * @retval BSP status
 734:Drivers/BSP/STM32C0xx_Nucleo/stm32c0xx_nucleo.c ****   */
 735:Drivers/BSP/STM32C0xx_Nucleo/stm32c0xx_nucleo.c **** static void BUTTON_USER_EXTI_Callback(void)
 736:Drivers/BSP/STM32C0xx_Nucleo/stm32c0xx_nucleo.c **** {
 737:Drivers/BSP/STM32C0xx_Nucleo/stm32c0xx_nucleo.c ****   BSP_PB_Callback(BUTTON_USER);
 738:Drivers/BSP/STM32C0xx_Nucleo/stm32c0xx_nucleo.c **** }
 739:Drivers/BSP/STM32C0xx_Nucleo/stm32c0xx_nucleo.c **** 
 740:Drivers/BSP/STM32C0xx_Nucleo/stm32c0xx_nucleo.c **** #if (USE_BSP_COM_FEATURE > 0)
 741:Drivers/BSP/STM32C0xx_Nucleo/stm32c0xx_nucleo.c **** /**
 742:Drivers/BSP/STM32C0xx_Nucleo/stm32c0xx_nucleo.c ****   * @brief  Initializes UART MSP.
 743:Drivers/BSP/STM32C0xx_Nucleo/stm32c0xx_nucleo.c ****   * @param  huart UART handle
 744:Drivers/BSP/STM32C0xx_Nucleo/stm32c0xx_nucleo.c ****   * @retval BSP status
 745:Drivers/BSP/STM32C0xx_Nucleo/stm32c0xx_nucleo.c ****   */
 746:Drivers/BSP/STM32C0xx_Nucleo/stm32c0xx_nucleo.c **** static void COM1_MspInit(UART_HandleTypeDef *huart)
 747:Drivers/BSP/STM32C0xx_Nucleo/stm32c0xx_nucleo.c **** {
  27              		.loc 1 747 1 view -0
  28              		.cfi_startproc
  29              		@ args = 0, pretend = 0, frame = 32
  30              		@ frame_needed = 0, uses_anonymous_args = 0
  31              		.loc 1 747 1 is_stmt 0 view .LVU1
  32 0000 70B5     		push	{r4, r5, r6, lr}
  33              	.LCFI0:
  34              		.cfi_def_cfa_offset 16
  35              		.cfi_offset 4, -16
  36              		.cfi_offset 5, -12
  37              		.cfi_offset 6, -8
  38              		.cfi_offset 14, -4
  39 0002 88B0     		sub	sp, sp, #32
  40              	.LCFI1:
  41              		.cfi_def_cfa_offset 48
 748:Drivers/BSP/STM32C0xx_Nucleo/stm32c0xx_nucleo.c ****   GPIO_InitTypeDef gpio_init_structure;
  42              		.loc 1 748 3 is_stmt 1 view .LVU2
 749:Drivers/BSP/STM32C0xx_Nucleo/stm32c0xx_nucleo.c **** 
 750:Drivers/BSP/STM32C0xx_Nucleo/stm32c0xx_nucleo.c ****   /* Prevent unused argument(s) compilation warning */
 751:Drivers/BSP/STM32C0xx_Nucleo/stm32c0xx_nucleo.c ****   UNUSED(huart);
  43              		.loc 1 751 3 view .LVU3
 752:Drivers/BSP/STM32C0xx_Nucleo/stm32c0xx_nucleo.c **** 
 753:Drivers/BSP/STM32C0xx_Nucleo/stm32c0xx_nucleo.c ****   /* Enable GPIO clock */
 754:Drivers/BSP/STM32C0xx_Nucleo/stm32c0xx_nucleo.c ****   COM1_TX_GPIO_CLK_ENABLE();
  44              		.loc 1 754 3 view .LVU4
  45              	.LBB2:
ARM GAS  C:\Users\main\AppData\Local\Temp\ccdsVh5e.s 			page 15


  46              		.loc 1 754 3 view .LVU5
  47              		.loc 1 754 3 view .LVU6
  48 0004 174B     		ldr	r3, .L2
  49 0006 5A6B     		ldr	r2, [r3, #52]
  50 0008 0124     		movs	r4, #1
  51 000a 2243     		orrs	r2, r4
  52 000c 5A63     		str	r2, [r3, #52]
  53              		.loc 1 754 3 view .LVU7
  54 000e 5A6B     		ldr	r2, [r3, #52]
  55 0010 2240     		ands	r2, r4
  56 0012 0092     		str	r2, [sp]
  57              		.loc 1 754 3 view .LVU8
  58 0014 009A     		ldr	r2, [sp]
  59              	.LBE2:
  60              		.loc 1 754 3 view .LVU9
 755:Drivers/BSP/STM32C0xx_Nucleo/stm32c0xx_nucleo.c ****   COM1_RX_GPIO_CLK_ENABLE();
  61              		.loc 1 755 3 view .LVU10
  62              	.LBB3:
  63              		.loc 1 755 3 view .LVU11
  64              		.loc 1 755 3 view .LVU12
  65 0016 5A6B     		ldr	r2, [r3, #52]
  66 0018 2243     		orrs	r2, r4
  67 001a 5A63     		str	r2, [r3, #52]
  68              		.loc 1 755 3 view .LVU13
  69 001c 5A6B     		ldr	r2, [r3, #52]
  70 001e 2240     		ands	r2, r4
  71 0020 0192     		str	r2, [sp, #4]
  72              		.loc 1 755 3 view .LVU14
  73 0022 019A     		ldr	r2, [sp, #4]
  74              	.LBE3:
  75              		.loc 1 755 3 view .LVU15
 756:Drivers/BSP/STM32C0xx_Nucleo/stm32c0xx_nucleo.c **** 
 757:Drivers/BSP/STM32C0xx_Nucleo/stm32c0xx_nucleo.c ****   /* Enable USART clock */
 758:Drivers/BSP/STM32C0xx_Nucleo/stm32c0xx_nucleo.c ****   COM1_CLK_ENABLE();
  76              		.loc 1 758 3 view .LVU16
  77              	.LBB4:
  78              		.loc 1 758 3 view .LVU17
  79              		.loc 1 758 3 view .LVU18
  80 0024 DA6B     		ldr	r2, [r3, #60]
  81 0026 8021     		movs	r1, #128
  82 0028 8902     		lsls	r1, r1, #10
  83 002a 0A43     		orrs	r2, r1
  84 002c DA63     		str	r2, [r3, #60]
  85              		.loc 1 758 3 view .LVU19
  86 002e DB6B     		ldr	r3, [r3, #60]
  87 0030 0B40     		ands	r3, r1
  88 0032 0293     		str	r3, [sp, #8]
  89              		.loc 1 758 3 view .LVU20
  90 0034 029B     		ldr	r3, [sp, #8]
  91              	.LBE4:
  92              		.loc 1 758 3 view .LVU21
 759:Drivers/BSP/STM32C0xx_Nucleo/stm32c0xx_nucleo.c **** 
 760:Drivers/BSP/STM32C0xx_Nucleo/stm32c0xx_nucleo.c ****   /* Configure USART Tx as alternate function */
 761:Drivers/BSP/STM32C0xx_Nucleo/stm32c0xx_nucleo.c ****   gpio_init_structure.Pin       = COM1_TX_PIN;
  93              		.loc 1 761 3 view .LVU22
  94              		.loc 1 761 33 is_stmt 0 view .LVU23
  95 0036 0423     		movs	r3, #4
ARM GAS  C:\Users\main\AppData\Local\Temp\ccdsVh5e.s 			page 16


  96 0038 0393     		str	r3, [sp, #12]
 762:Drivers/BSP/STM32C0xx_Nucleo/stm32c0xx_nucleo.c ****   gpio_init_structure.Mode      = GPIO_MODE_AF_PP;
  97              		.loc 1 762 3 is_stmt 1 view .LVU24
  98              		.loc 1 762 33 is_stmt 0 view .LVU25
  99 003a 0225     		movs	r5, #2
 100 003c 0495     		str	r5, [sp, #16]
 763:Drivers/BSP/STM32C0xx_Nucleo/stm32c0xx_nucleo.c ****   gpio_init_structure.Speed     = GPIO_SPEED_FREQ_HIGH;
 101              		.loc 1 763 3 is_stmt 1 view .LVU26
 102              		.loc 1 763 33 is_stmt 0 view .LVU27
 103 003e 0695     		str	r5, [sp, #24]
 764:Drivers/BSP/STM32C0xx_Nucleo/stm32c0xx_nucleo.c ****   gpio_init_structure.Pull      = GPIO_PULLUP;
 104              		.loc 1 764 3 is_stmt 1 view .LVU28
 105              		.loc 1 764 33 is_stmt 0 view .LVU29
 106 0040 0594     		str	r4, [sp, #20]
 765:Drivers/BSP/STM32C0xx_Nucleo/stm32c0xx_nucleo.c ****   gpio_init_structure.Alternate = COM1_TX_AF;
 107              		.loc 1 765 3 is_stmt 1 view .LVU30
 108              		.loc 1 765 33 is_stmt 0 view .LVU31
 109 0042 0794     		str	r4, [sp, #28]
 766:Drivers/BSP/STM32C0xx_Nucleo/stm32c0xx_nucleo.c ****   HAL_GPIO_Init(COM1_TX_GPIO_PORT, &gpio_init_structure);
 110              		.loc 1 766 3 is_stmt 1 view .LVU32
 111 0044 A026     		movs	r6, #160
 112 0046 F605     		lsls	r6, r6, #23
 113 0048 03A9     		add	r1, sp, #12
 114 004a 3000     		movs	r0, r6
 115              	.LVL1:
 116              		.loc 1 766 3 is_stmt 0 view .LVU33
 117 004c FFF7FEFF 		bl	HAL_GPIO_Init
 118              	.LVL2:
 767:Drivers/BSP/STM32C0xx_Nucleo/stm32c0xx_nucleo.c **** 
 768:Drivers/BSP/STM32C0xx_Nucleo/stm32c0xx_nucleo.c ****   /* Configure USART Rx as alternate function */
 769:Drivers/BSP/STM32C0xx_Nucleo/stm32c0xx_nucleo.c ****   gpio_init_structure.Pin       = COM1_RX_PIN;
 119              		.loc 1 769 3 is_stmt 1 view .LVU34
 120              		.loc 1 769 33 is_stmt 0 view .LVU35
 121 0050 0823     		movs	r3, #8
 122 0052 0393     		str	r3, [sp, #12]
 770:Drivers/BSP/STM32C0xx_Nucleo/stm32c0xx_nucleo.c ****   gpio_init_structure.Mode      = GPIO_MODE_AF_PP;
 123              		.loc 1 770 3 is_stmt 1 view .LVU36
 124              		.loc 1 770 33 is_stmt 0 view .LVU37
 125 0054 0495     		str	r5, [sp, #16]
 771:Drivers/BSP/STM32C0xx_Nucleo/stm32c0xx_nucleo.c ****   gpio_init_structure.Alternate = COM1_RX_AF;
 126              		.loc 1 771 3 is_stmt 1 view .LVU38
 127              		.loc 1 771 33 is_stmt 0 view .LVU39
 128 0056 0794     		str	r4, [sp, #28]
 772:Drivers/BSP/STM32C0xx_Nucleo/stm32c0xx_nucleo.c ****   HAL_GPIO_Init(COM1_RX_GPIO_PORT, &gpio_init_structure);
 129              		.loc 1 772 3 is_stmt 1 view .LVU40
 130 0058 03A9     		add	r1, sp, #12
 131 005a 3000     		movs	r0, r6
 132 005c FFF7FEFF 		bl	HAL_GPIO_Init
 133              	.LVL3:
 773:Drivers/BSP/STM32C0xx_Nucleo/stm32c0xx_nucleo.c **** }
 134              		.loc 1 773 1 is_stmt 0 view .LVU41
 135 0060 08B0     		add	sp, sp, #32
 136              		@ sp needed
 137 0062 70BD     		pop	{r4, r5, r6, pc}
 138              	.L3:
 139              		.align	2
 140              	.L2:
ARM GAS  C:\Users\main\AppData\Local\Temp\ccdsVh5e.s 			page 17


 141 0064 00100240 		.word	1073876992
 142              		.cfi_endproc
 143              	.LFE365:
 145              		.section	.text.COM1_MspDeInit,"ax",%progbits
 146              		.align	1
 147              		.syntax unified
 148              		.code	16
 149              		.thumb_func
 151              	COM1_MspDeInit:
 152              	.LVL4:
 153              	.LFB366:
 774:Drivers/BSP/STM32C0xx_Nucleo/stm32c0xx_nucleo.c **** 
 775:Drivers/BSP/STM32C0xx_Nucleo/stm32c0xx_nucleo.c **** /**
 776:Drivers/BSP/STM32C0xx_Nucleo/stm32c0xx_nucleo.c ****   * @brief  Initialize USART Msp part
 777:Drivers/BSP/STM32C0xx_Nucleo/stm32c0xx_nucleo.c ****   * @param  huart UART handle
 778:Drivers/BSP/STM32C0xx_Nucleo/stm32c0xx_nucleo.c ****   * @retval BSP status
 779:Drivers/BSP/STM32C0xx_Nucleo/stm32c0xx_nucleo.c ****   */
 780:Drivers/BSP/STM32C0xx_Nucleo/stm32c0xx_nucleo.c **** static void COM1_MspDeInit(UART_HandleTypeDef *huart)
 781:Drivers/BSP/STM32C0xx_Nucleo/stm32c0xx_nucleo.c **** {
 154              		.loc 1 781 1 is_stmt 1 view -0
 155              		.cfi_startproc
 156              		@ args = 0, pretend = 0, frame = 24
 157              		@ frame_needed = 0, uses_anonymous_args = 0
 158              		.loc 1 781 1 is_stmt 0 view .LVU43
 159 0000 10B5     		push	{r4, lr}
 160              	.LCFI2:
 161              		.cfi_def_cfa_offset 8
 162              		.cfi_offset 4, -8
 163              		.cfi_offset 14, -4
 164 0002 86B0     		sub	sp, sp, #24
 165              	.LCFI3:
 166              		.cfi_def_cfa_offset 32
 782:Drivers/BSP/STM32C0xx_Nucleo/stm32c0xx_nucleo.c ****   GPIO_InitTypeDef          gpio_init_structure;
 167              		.loc 1 782 3 is_stmt 1 view .LVU44
 783:Drivers/BSP/STM32C0xx_Nucleo/stm32c0xx_nucleo.c **** 
 784:Drivers/BSP/STM32C0xx_Nucleo/stm32c0xx_nucleo.c ****   /* Prevent unused argument(s) compilation warning */
 785:Drivers/BSP/STM32C0xx_Nucleo/stm32c0xx_nucleo.c ****   UNUSED(huart);
 168              		.loc 1 785 3 view .LVU45
 786:Drivers/BSP/STM32C0xx_Nucleo/stm32c0xx_nucleo.c **** 
 787:Drivers/BSP/STM32C0xx_Nucleo/stm32c0xx_nucleo.c ****   /* COM GPIO pin configuration */
 788:Drivers/BSP/STM32C0xx_Nucleo/stm32c0xx_nucleo.c ****   gpio_init_structure.Pin  = COM1_TX_PIN;
 169              		.loc 1 788 3 view .LVU46
 170              		.loc 1 788 28 is_stmt 0 view .LVU47
 171 0004 0423     		movs	r3, #4
 172 0006 0193     		str	r3, [sp, #4]
 789:Drivers/BSP/STM32C0xx_Nucleo/stm32c0xx_nucleo.c ****   HAL_GPIO_DeInit(COM1_TX_GPIO_PORT, gpio_init_structure.Pin);
 173              		.loc 1 789 3 is_stmt 1 view .LVU48
 174 0008 A024     		movs	r4, #160
 175 000a E405     		lsls	r4, r4, #23
 176 000c 0421     		movs	r1, #4
 177 000e 2000     		movs	r0, r4
 178              	.LVL5:
 179              		.loc 1 789 3 is_stmt 0 view .LVU49
 180 0010 FFF7FEFF 		bl	HAL_GPIO_DeInit
 181              	.LVL6:
 790:Drivers/BSP/STM32C0xx_Nucleo/stm32c0xx_nucleo.c **** 
 791:Drivers/BSP/STM32C0xx_Nucleo/stm32c0xx_nucleo.c ****   gpio_init_structure.Pin  = COM1_RX_PIN;
ARM GAS  C:\Users\main\AppData\Local\Temp\ccdsVh5e.s 			page 18


 182              		.loc 1 791 3 is_stmt 1 view .LVU50
 183              		.loc 1 791 28 is_stmt 0 view .LVU51
 184 0014 0823     		movs	r3, #8
 185 0016 0193     		str	r3, [sp, #4]
 792:Drivers/BSP/STM32C0xx_Nucleo/stm32c0xx_nucleo.c ****   HAL_GPIO_DeInit(COM1_RX_GPIO_PORT, gpio_init_structure.Pin);
 186              		.loc 1 792 3 is_stmt 1 view .LVU52
 187 0018 0821     		movs	r1, #8
 188 001a 2000     		movs	r0, r4
 189 001c FFF7FEFF 		bl	HAL_GPIO_DeInit
 190              	.LVL7:
 793:Drivers/BSP/STM32C0xx_Nucleo/stm32c0xx_nucleo.c **** 
 794:Drivers/BSP/STM32C0xx_Nucleo/stm32c0xx_nucleo.c ****   /* Disable USART clock */
 795:Drivers/BSP/STM32C0xx_Nucleo/stm32c0xx_nucleo.c ****   COM1_CLK_DISABLE();
 191              		.loc 1 795 3 view .LVU53
 192 0020 034A     		ldr	r2, .L5
 193 0022 D36B     		ldr	r3, [r2, #60]
 194 0024 0349     		ldr	r1, .L5+4
 195 0026 0B40     		ands	r3, r1
 196 0028 D363     		str	r3, [r2, #60]
 796:Drivers/BSP/STM32C0xx_Nucleo/stm32c0xx_nucleo.c **** }
 197              		.loc 1 796 1 is_stmt 0 view .LVU54
 198 002a 06B0     		add	sp, sp, #24
 199              		@ sp needed
 200 002c 10BD     		pop	{r4, pc}
 201              	.L6:
 202 002e C046     		.align	2
 203              	.L5:
 204 0030 00100240 		.word	1073876992
 205 0034 FFFFFDFF 		.word	-131073
 206              		.cfi_endproc
 207              	.LFE366:
 209              		.section	.text.BSP_GetVersion,"ax",%progbits
 210              		.align	1
 211              		.global	BSP_GetVersion
 212              		.syntax unified
 213              		.code	16
 214              		.thumb_func
 216              	BSP_GetVersion:
 217              	.LFB345:
 140:Drivers/BSP/STM32C0xx_Nucleo/stm32c0xx_nucleo.c ****   return (int32_t)STM32C0XX_NUCLEO_BSP_VERSION;
 218              		.loc 1 140 1 is_stmt 1 view -0
 219              		.cfi_startproc
 220              		@ args = 0, pretend = 0, frame = 0
 221              		@ frame_needed = 0, uses_anonymous_args = 0
 222              		@ link register save eliminated.
 141:Drivers/BSP/STM32C0xx_Nucleo/stm32c0xx_nucleo.c **** }
 223              		.loc 1 141 3 view .LVU56
 142:Drivers/BSP/STM32C0xx_Nucleo/stm32c0xx_nucleo.c **** 
 224              		.loc 1 142 1 is_stmt 0 view .LVU57
 225 0000 0048     		ldr	r0, .L8
 226              		@ sp needed
 227 0002 7047     		bx	lr
 228              	.L9:
 229              		.align	2
 230              	.L8:
 231 0004 00000101 		.word	16842752
 232              		.cfi_endproc
ARM GAS  C:\Users\main\AppData\Local\Temp\ccdsVh5e.s 			page 19


 233              	.LFE345:
 235              		.section	.rodata.BSP_GetBoardName.str1.4,"aMS",%progbits,1
 236              		.align	2
 237              	.LC0:
 238 0000 4E55434C 		.ascii	"NUCLEO-C071RB\000"
 238      454F2D43 
 238      30373152 
 238      4200
 239              		.section	.text.BSP_GetBoardName,"ax",%progbits
 240              		.align	1
 241              		.global	BSP_GetBoardName
 242              		.syntax unified
 243              		.code	16
 244              		.thumb_func
 246              	BSP_GetBoardName:
 247              	.LFB346:
 149:Drivers/BSP/STM32C0xx_Nucleo/stm32c0xx_nucleo.c ****   return (uint8_t *)STM32C0XX_NUCLEO_BSP_BOARD_NAME;
 248              		.loc 1 149 1 is_stmt 1 view -0
 249              		.cfi_startproc
 250              		@ args = 0, pretend = 0, frame = 0
 251              		@ frame_needed = 0, uses_anonymous_args = 0
 252              		@ link register save eliminated.
 150:Drivers/BSP/STM32C0xx_Nucleo/stm32c0xx_nucleo.c **** }
 253              		.loc 1 150 3 view .LVU59
 150:Drivers/BSP/STM32C0xx_Nucleo/stm32c0xx_nucleo.c **** }
 254              		.loc 1 150 52 view .LVU60
 151:Drivers/BSP/STM32C0xx_Nucleo/stm32c0xx_nucleo.c **** 
 255              		.loc 1 151 1 is_stmt 0 view .LVU61
 256 0000 0048     		ldr	r0, .L11
 257              		@ sp needed
 258 0002 7047     		bx	lr
 259              	.L12:
 260              		.align	2
 261              	.L11:
 262 0004 00000000 		.word	.LC0
 263              		.cfi_endproc
 264              	.LFE346:
 266              		.section	.rodata.BSP_GetBoardID.str1.4,"aMS",%progbits,1
 267              		.align	2
 268              	.LC2:
 269 0000 4D423230 		.ascii	"MB2046B\000"
 269      34364200 
 270              		.section	.text.BSP_GetBoardID,"ax",%progbits
 271              		.align	1
 272              		.global	BSP_GetBoardID
 273              		.syntax unified
 274              		.code	16
 275              		.thumb_func
 277              	BSP_GetBoardID:
 278              	.LFB347:
 158:Drivers/BSP/STM32C0xx_Nucleo/stm32c0xx_nucleo.c ****   return (uint8_t *)STM32C0XX_NUCLEO_BSP_BOARD_ID;
 279              		.loc 1 158 1 is_stmt 1 view -0
 280              		.cfi_startproc
 281              		@ args = 0, pretend = 0, frame = 0
 282              		@ frame_needed = 0, uses_anonymous_args = 0
 283              		@ link register save eliminated.
 159:Drivers/BSP/STM32C0xx_Nucleo/stm32c0xx_nucleo.c **** }
ARM GAS  C:\Users\main\AppData\Local\Temp\ccdsVh5e.s 			page 20


 284              		.loc 1 159 3 view .LVU63
 159:Drivers/BSP/STM32C0xx_Nucleo/stm32c0xx_nucleo.c **** }
 285              		.loc 1 159 50 view .LVU64
 160:Drivers/BSP/STM32C0xx_Nucleo/stm32c0xx_nucleo.c **** 
 286              		.loc 1 160 1 is_stmt 0 view .LVU65
 287 0000 0048     		ldr	r0, .L14
 288              		@ sp needed
 289 0002 7047     		bx	lr
 290              	.L15:
 291              		.align	2
 292              	.L14:
 293 0004 00000000 		.word	.LC2
 294              		.cfi_endproc
 295              	.LFE347:
 297              		.section	.text.BSP_LED_Init,"ax",%progbits
 298              		.align	1
 299              		.global	BSP_LED_Init
 300              		.syntax unified
 301              		.code	16
 302              		.thumb_func
 304              	BSP_LED_Init:
 305              	.LVL8:
 306              	.LFB348:
 172:Drivers/BSP/STM32C0xx_Nucleo/stm32c0xx_nucleo.c ****   int32_t ret = BSP_ERROR_NONE;
 307              		.loc 1 172 1 is_stmt 1 view -0
 308              		.cfi_startproc
 309              		@ args = 0, pretend = 0, frame = 32
 310              		@ frame_needed = 0, uses_anonymous_args = 0
 172:Drivers/BSP/STM32C0xx_Nucleo/stm32c0xx_nucleo.c ****   int32_t ret = BSP_ERROR_NONE;
 311              		.loc 1 172 1 is_stmt 0 view .LVU67
 312 0000 70B5     		push	{r4, r5, r6, lr}
 313              	.LCFI4:
 314              		.cfi_def_cfa_offset 16
 315              		.cfi_offset 4, -16
 316              		.cfi_offset 5, -12
 317              		.cfi_offset 6, -8
 318              		.cfi_offset 14, -4
 319 0002 88B0     		sub	sp, sp, #32
 320              	.LCFI5:
 321              		.cfi_def_cfa_offset 48
 322 0004 0400     		movs	r4, r0
 173:Drivers/BSP/STM32C0xx_Nucleo/stm32c0xx_nucleo.c ****   GPIO_InitTypeDef  gpio_init_structure;
 323              		.loc 1 173 3 is_stmt 1 view .LVU68
 324              	.LVL9:
 174:Drivers/BSP/STM32C0xx_Nucleo/stm32c0xx_nucleo.c **** 
 325              		.loc 1 174 3 view .LVU69
 177:Drivers/BSP/STM32C0xx_Nucleo/stm32c0xx_nucleo.c ****       && (Led != LED2))
 326              		.loc 1 177 3 view .LVU70
 177:Drivers/BSP/STM32C0xx_Nucleo/stm32c0xx_nucleo.c ****       && (Led != LED2))
 327              		.loc 1 177 6 is_stmt 0 view .LVU71
 328 0006 0128     		cmp	r0, #1
 329 0008 32D8     		bhi	.L20
 189:Drivers/BSP/STM32C0xx_Nucleo/stm32c0xx_nucleo.c ****     {
 330              		.loc 1 189 5 is_stmt 1 view .LVU72
 189:Drivers/BSP/STM32C0xx_Nucleo/stm32c0xx_nucleo.c ****     {
 331              		.loc 1 189 8 is_stmt 0 view .LVU73
 332 000a 0028     		cmp	r0, #0
ARM GAS  C:\Users\main\AppData\Local\Temp\ccdsVh5e.s 			page 21


 333 000c 1DD1     		bne	.L18
 191:Drivers/BSP/STM32C0xx_Nucleo/stm32c0xx_nucleo.c ****     }
 334              		.loc 1 191 7 is_stmt 1 view .LVU74
 335              	.LBB5:
 191:Drivers/BSP/STM32C0xx_Nucleo/stm32c0xx_nucleo.c ****     }
 336              		.loc 1 191 7 view .LVU75
 191:Drivers/BSP/STM32C0xx_Nucleo/stm32c0xx_nucleo.c ****     }
 337              		.loc 1 191 7 view .LVU76
 338 000e 1A4A     		ldr	r2, .L23
 339 0010 516B     		ldr	r1, [r2, #52]
 340 0012 0123     		movs	r3, #1
 341 0014 1943     		orrs	r1, r3
 342 0016 5163     		str	r1, [r2, #52]
 191:Drivers/BSP/STM32C0xx_Nucleo/stm32c0xx_nucleo.c ****     }
 343              		.loc 1 191 7 view .LVU77
 344 0018 526B     		ldr	r2, [r2, #52]
 345 001a 1340     		ands	r3, r2
 346 001c 0193     		str	r3, [sp, #4]
 191:Drivers/BSP/STM32C0xx_Nucleo/stm32c0xx_nucleo.c ****     }
 347              		.loc 1 191 7 view .LVU78
 348 001e 019B     		ldr	r3, [sp, #4]
 349              	.LBE5:
 191:Drivers/BSP/STM32C0xx_Nucleo/stm32c0xx_nucleo.c ****     }
 350              		.loc 1 191 7 view .LVU79
 351              	.L19:
 195:Drivers/BSP/STM32C0xx_Nucleo/stm32c0xx_nucleo.c ****     }
 352              		.loc 1 195 7 discriminator 1 view .LVU80
 205:Drivers/BSP/STM32C0xx_Nucleo/stm32c0xx_nucleo.c ****     gpio_init_structure.Mode  = GPIO_MODE_OUTPUT_PP;
 353              		.loc 1 205 5 discriminator 1 view .LVU81
 205:Drivers/BSP/STM32C0xx_Nucleo/stm32c0xx_nucleo.c ****     gpio_init_structure.Mode  = GPIO_MODE_OUTPUT_PP;
 354              		.loc 1 205 40 is_stmt 0 discriminator 1 view .LVU82
 355 0020 6300     		lsls	r3, r4, #1
 356 0022 164A     		ldr	r2, .L23+4
 357 0024 9E5A     		ldrh	r6, [r3, r2]
 205:Drivers/BSP/STM32C0xx_Nucleo/stm32c0xx_nucleo.c ****     gpio_init_structure.Mode  = GPIO_MODE_OUTPUT_PP;
 358              		.loc 1 205 31 discriminator 1 view .LVU83
 359 0026 0396     		str	r6, [sp, #12]
 206:Drivers/BSP/STM32C0xx_Nucleo/stm32c0xx_nucleo.c ****     gpio_init_structure.Pull  = GPIO_NOPULL;
 360              		.loc 1 206 5 is_stmt 1 discriminator 1 view .LVU84
 206:Drivers/BSP/STM32C0xx_Nucleo/stm32c0xx_nucleo.c ****     gpio_init_structure.Pull  = GPIO_NOPULL;
 361              		.loc 1 206 31 is_stmt 0 discriminator 1 view .LVU85
 362 0028 0123     		movs	r3, #1
 363 002a 0493     		str	r3, [sp, #16]
 207:Drivers/BSP/STM32C0xx_Nucleo/stm32c0xx_nucleo.c ****     gpio_init_structure.Speed = GPIO_SPEED_FREQ_VERY_HIGH;
 364              		.loc 1 207 5 is_stmt 1 discriminator 1 view .LVU86
 207:Drivers/BSP/STM32C0xx_Nucleo/stm32c0xx_nucleo.c ****     gpio_init_structure.Speed = GPIO_SPEED_FREQ_VERY_HIGH;
 365              		.loc 1 207 31 is_stmt 0 discriminator 1 view .LVU87
 366 002c 0023     		movs	r3, #0
 367 002e 0593     		str	r3, [sp, #20]
 208:Drivers/BSP/STM32C0xx_Nucleo/stm32c0xx_nucleo.c **** 
 368              		.loc 1 208 5 is_stmt 1 discriminator 1 view .LVU88
 208:Drivers/BSP/STM32C0xx_Nucleo/stm32c0xx_nucleo.c **** 
 369              		.loc 1 208 31 is_stmt 0 discriminator 1 view .LVU89
 370 0030 0333     		adds	r3, r3, #3
 371 0032 0693     		str	r3, [sp, #24]
 210:Drivers/BSP/STM32C0xx_Nucleo/stm32c0xx_nucleo.c **** #if defined (USE_NUCLEO_64)
 372              		.loc 1 210 5 is_stmt 1 discriminator 1 view .LVU90
ARM GAS  C:\Users\main\AppData\Local\Temp\ccdsVh5e.s 			page 22


 373 0034 A300     		lsls	r3, r4, #2
 374 0036 124A     		ldr	r2, .L23+8
 375 0038 9858     		ldr	r0, [r3, r2]
 376              	.LVL10:
 210:Drivers/BSP/STM32C0xx_Nucleo/stm32c0xx_nucleo.c **** #if defined (USE_NUCLEO_64)
 377              		.loc 1 210 5 is_stmt 0 discriminator 1 view .LVU91
 378 003a 03A9     		add	r1, sp, #12
 379 003c FFF7FEFF 		bl	HAL_GPIO_Init
 380              	.LVL11:
 212:Drivers/BSP/STM32C0xx_Nucleo/stm32c0xx_nucleo.c ****     {
 381              		.loc 1 212 5 is_stmt 1 discriminator 1 view .LVU92
 212:Drivers/BSP/STM32C0xx_Nucleo/stm32c0xx_nucleo.c ****     {
 382              		.loc 1 212 8 is_stmt 0 discriminator 1 view .LVU93
 383 0040 012C     		cmp	r4, #1
 384 0042 0CD0     		beq	.L22
 173:Drivers/BSP/STM32C0xx_Nucleo/stm32c0xx_nucleo.c ****   GPIO_InitTypeDef  gpio_init_structure;
 385              		.loc 1 173 11 view .LVU94
 386 0044 0020     		movs	r0, #0
 218:Drivers/BSP/STM32C0xx_Nucleo/stm32c0xx_nucleo.c **** }
 387              		.loc 1 218 3 is_stmt 1 view .LVU95
 388              	.L16:
 219:Drivers/BSP/STM32C0xx_Nucleo/stm32c0xx_nucleo.c **** 
 389              		.loc 1 219 1 is_stmt 0 view .LVU96
 390 0046 08B0     		add	sp, sp, #32
 391              		@ sp needed
 392 0048 70BD     		pop	{r4, r5, r6, pc}
 393              	.LVL12:
 394              	.L18:
 195:Drivers/BSP/STM32C0xx_Nucleo/stm32c0xx_nucleo.c ****     }
 395              		.loc 1 195 7 is_stmt 1 view .LVU97
 396              	.LBB6:
 195:Drivers/BSP/STM32C0xx_Nucleo/stm32c0xx_nucleo.c ****     }
 397              		.loc 1 195 7 view .LVU98
 195:Drivers/BSP/STM32C0xx_Nucleo/stm32c0xx_nucleo.c ****     }
 398              		.loc 1 195 7 view .LVU99
 399 004a 0B4A     		ldr	r2, .L23
 400 004c 516B     		ldr	r1, [r2, #52]
 401 004e 0423     		movs	r3, #4
 402 0050 1943     		orrs	r1, r3
 403 0052 5163     		str	r1, [r2, #52]
 195:Drivers/BSP/STM32C0xx_Nucleo/stm32c0xx_nucleo.c ****     }
 404              		.loc 1 195 7 view .LVU100
 405 0054 526B     		ldr	r2, [r2, #52]
 406 0056 1340     		ands	r3, r2
 407 0058 0293     		str	r3, [sp, #8]
 195:Drivers/BSP/STM32C0xx_Nucleo/stm32c0xx_nucleo.c ****     }
 408              		.loc 1 195 7 view .LVU101
 409 005a 029B     		ldr	r3, [sp, #8]
 410 005c E0E7     		b	.L19
 411              	.LVL13:
 412              	.L22:
 195:Drivers/BSP/STM32C0xx_Nucleo/stm32c0xx_nucleo.c ****     }
 413              		.loc 1 195 7 is_stmt 0 view .LVU102
 414              	.LBE6:
 214:Drivers/BSP/STM32C0xx_Nucleo/stm32c0xx_nucleo.c ****     }
 415              		.loc 1 214 6 is_stmt 1 view .LVU103
 416 005e A400     		lsls	r4, r4, #2
ARM GAS  C:\Users\main\AppData\Local\Temp\ccdsVh5e.s 			page 23


 417 0060 074B     		ldr	r3, .L23+8
 418 0062 E058     		ldr	r0, [r4, r3]
 419 0064 0122     		movs	r2, #1
 420 0066 3100     		movs	r1, r6
 421 0068 FFF7FEFF 		bl	HAL_GPIO_WritePin
 422              	.LVL14:
 173:Drivers/BSP/STM32C0xx_Nucleo/stm32c0xx_nucleo.c ****   GPIO_InitTypeDef  gpio_init_structure;
 423              		.loc 1 173 11 is_stmt 0 view .LVU104
 424 006c 0020     		movs	r0, #0
 425 006e EAE7     		b	.L16
 426              	.LVL15:
 427              	.L20:
 183:Drivers/BSP/STM32C0xx_Nucleo/stm32c0xx_nucleo.c ****   }
 428              		.loc 1 183 9 view .LVU105
 429 0070 0220     		movs	r0, #2
 430              	.LVL16:
 183:Drivers/BSP/STM32C0xx_Nucleo/stm32c0xx_nucleo.c ****   }
 431              		.loc 1 183 9 view .LVU106
 432 0072 4042     		rsbs	r0, r0, #0
 433 0074 E7E7     		b	.L16
 434              	.L24:
 435 0076 C046     		.align	2
 436              	.L23:
 437 0078 00100240 		.word	1073876992
 438 007c 00000000 		.word	.LANCHOR0
 439 0080 00000000 		.word	.LANCHOR1
 440              		.cfi_endproc
 441              	.LFE348:
 443              		.section	.text.BSP_LED_DeInit,"ax",%progbits
 444              		.align	1
 445              		.global	BSP_LED_DeInit
 446              		.syntax unified
 447              		.code	16
 448              		.thumb_func
 450              	BSP_LED_DeInit:
 451              	.LVL17:
 452              	.LFB349:
 231:Drivers/BSP/STM32C0xx_Nucleo/stm32c0xx_nucleo.c ****   int32_t ret = BSP_ERROR_NONE;
 453              		.loc 1 231 1 is_stmt 1 view -0
 454              		.cfi_startproc
 455              		@ args = 0, pretend = 0, frame = 24
 456              		@ frame_needed = 0, uses_anonymous_args = 0
 231:Drivers/BSP/STM32C0xx_Nucleo/stm32c0xx_nucleo.c ****   int32_t ret = BSP_ERROR_NONE;
 457              		.loc 1 231 1 is_stmt 0 view .LVU108
 458 0000 70B5     		push	{r4, r5, r6, lr}
 459              	.LCFI6:
 460              		.cfi_def_cfa_offset 16
 461              		.cfi_offset 4, -16
 462              		.cfi_offset 5, -12
 463              		.cfi_offset 6, -8
 464              		.cfi_offset 14, -4
 465 0002 86B0     		sub	sp, sp, #24
 466              	.LCFI7:
 467              		.cfi_def_cfa_offset 40
 468 0004 0400     		movs	r4, r0
 232:Drivers/BSP/STM32C0xx_Nucleo/stm32c0xx_nucleo.c ****   GPIO_InitTypeDef  gpio_init_structure;
 469              		.loc 1 232 3 is_stmt 1 view .LVU109
ARM GAS  C:\Users\main\AppData\Local\Temp\ccdsVh5e.s 			page 24


 470              	.LVL18:
 233:Drivers/BSP/STM32C0xx_Nucleo/stm32c0xx_nucleo.c **** 
 471              		.loc 1 233 3 view .LVU110
 236:Drivers/BSP/STM32C0xx_Nucleo/stm32c0xx_nucleo.c ****       && (Led != LED2))
 472              		.loc 1 236 3 view .LVU111
 236:Drivers/BSP/STM32C0xx_Nucleo/stm32c0xx_nucleo.c ****       && (Led != LED2))
 473              		.loc 1 236 6 is_stmt 0 view .LVU112
 474 0006 0128     		cmp	r0, #1
 475 0008 1DD8     		bhi	.L28
 247:Drivers/BSP/STM32C0xx_Nucleo/stm32c0xx_nucleo.c **** #if defined (USE_NUCLEO_64)
 476              		.loc 1 247 5 is_stmt 1 view .LVU113
 477 000a 4300     		lsls	r3, r0, #1
 478 000c 0F4A     		ldr	r2, .L30
 479 000e 9E5A     		ldrh	r6, [r3, r2]
 480 0010 8300     		lsls	r3, r0, #2
 481 0012 0F4A     		ldr	r2, .L30+4
 482 0014 9858     		ldr	r0, [r3, r2]
 483              	.LVL19:
 247:Drivers/BSP/STM32C0xx_Nucleo/stm32c0xx_nucleo.c **** #if defined (USE_NUCLEO_64)
 484              		.loc 1 247 5 is_stmt 0 view .LVU114
 485 0016 0022     		movs	r2, #0
 486 0018 3100     		movs	r1, r6
 487 001a FFF7FEFF 		bl	HAL_GPIO_WritePin
 488              	.LVL20:
 249:Drivers/BSP/STM32C0xx_Nucleo/stm32c0xx_nucleo.c ****     {
 489              		.loc 1 249 5 is_stmt 1 view .LVU115
 249:Drivers/BSP/STM32C0xx_Nucleo/stm32c0xx_nucleo.c ****     {
 490              		.loc 1 249 8 is_stmt 0 view .LVU116
 491 001e 012C     		cmp	r4, #1
 492 0020 09D0     		beq	.L29
 493              	.L27:
 255:Drivers/BSP/STM32C0xx_Nucleo/stm32c0xx_nucleo.c ****     HAL_GPIO_DeInit(LED_PORT[Led], gpio_init_structure.Pin);
 494              		.loc 1 255 5 is_stmt 1 view .LVU117
 255:Drivers/BSP/STM32C0xx_Nucleo/stm32c0xx_nucleo.c ****     HAL_GPIO_DeInit(LED_PORT[Led], gpio_init_structure.Pin);
 495              		.loc 1 255 29 is_stmt 0 view .LVU118
 496 0022 0196     		str	r6, [sp, #4]
 256:Drivers/BSP/STM32C0xx_Nucleo/stm32c0xx_nucleo.c ****   }
 497              		.loc 1 256 5 is_stmt 1 view .LVU119
 498 0024 A400     		lsls	r4, r4, #2
 499 0026 0A4B     		ldr	r3, .L30+4
 500 0028 E058     		ldr	r0, [r4, r3]
 501 002a 3100     		movs	r1, r6
 502 002c FFF7FEFF 		bl	HAL_GPIO_DeInit
 503              	.LVL21:
 232:Drivers/BSP/STM32C0xx_Nucleo/stm32c0xx_nucleo.c ****   GPIO_InitTypeDef  gpio_init_structure;
 504              		.loc 1 232 11 is_stmt 0 view .LVU120
 505 0030 0020     		movs	r0, #0
 506              	.LVL22:
 507              	.L25:
 260:Drivers/BSP/STM32C0xx_Nucleo/stm32c0xx_nucleo.c **** 
 508              		.loc 1 260 1 view .LVU121
 509 0032 06B0     		add	sp, sp, #24
 510              		@ sp needed
 511 0034 70BD     		pop	{r4, r5, r6, pc}
 512              	.LVL23:
 513              	.L29:
 251:Drivers/BSP/STM32C0xx_Nucleo/stm32c0xx_nucleo.c ****     }
ARM GAS  C:\Users\main\AppData\Local\Temp\ccdsVh5e.s 			page 25


 514              		.loc 1 251 6 is_stmt 1 view .LVU122
 515 0036 A300     		lsls	r3, r4, #2
 516 0038 054A     		ldr	r2, .L30+4
 517 003a 9858     		ldr	r0, [r3, r2]
 518 003c 0122     		movs	r2, #1
 519 003e 3100     		movs	r1, r6
 520 0040 FFF7FEFF 		bl	HAL_GPIO_WritePin
 521              	.LVL24:
 522 0044 EDE7     		b	.L27
 523              	.LVL25:
 524              	.L28:
 242:Drivers/BSP/STM32C0xx_Nucleo/stm32c0xx_nucleo.c ****   }
 525              		.loc 1 242 9 is_stmt 0 view .LVU123
 526 0046 0220     		movs	r0, #2
 527              	.LVL26:
 242:Drivers/BSP/STM32C0xx_Nucleo/stm32c0xx_nucleo.c ****   }
 528              		.loc 1 242 9 view .LVU124
 529 0048 4042     		rsbs	r0, r0, #0
 530              	.LVL27:
 259:Drivers/BSP/STM32C0xx_Nucleo/stm32c0xx_nucleo.c **** }
 531              		.loc 1 259 3 is_stmt 1 view .LVU125
 259:Drivers/BSP/STM32C0xx_Nucleo/stm32c0xx_nucleo.c **** }
 532              		.loc 1 259 10 is_stmt 0 view .LVU126
 533 004a F2E7     		b	.L25
 534              	.L31:
 535              		.align	2
 536              	.L30:
 537 004c 00000000 		.word	.LANCHOR0
 538 0050 00000000 		.word	.LANCHOR1
 539              		.cfi_endproc
 540              	.LFE349:
 542              		.section	.text.BSP_LED_On,"ax",%progbits
 543              		.align	1
 544              		.global	BSP_LED_On
 545              		.syntax unified
 546              		.code	16
 547              		.thumb_func
 549              	BSP_LED_On:
 550              	.LVL28:
 551              	.LFB350:
 272:Drivers/BSP/STM32C0xx_Nucleo/stm32c0xx_nucleo.c ****   int32_t ret = BSP_ERROR_NONE;
 552              		.loc 1 272 1 is_stmt 1 view -0
 553              		.cfi_startproc
 554              		@ args = 0, pretend = 0, frame = 0
 555              		@ frame_needed = 0, uses_anonymous_args = 0
 272:Drivers/BSP/STM32C0xx_Nucleo/stm32c0xx_nucleo.c ****   int32_t ret = BSP_ERROR_NONE;
 556              		.loc 1 272 1 is_stmt 0 view .LVU128
 557 0000 10B5     		push	{r4, lr}
 558              	.LCFI8:
 559              		.cfi_def_cfa_offset 8
 560              		.cfi_offset 4, -8
 561              		.cfi_offset 14, -4
 273:Drivers/BSP/STM32C0xx_Nucleo/stm32c0xx_nucleo.c **** 
 562              		.loc 1 273 3 is_stmt 1 view .LVU129
 563              	.LVL29:
 276:Drivers/BSP/STM32C0xx_Nucleo/stm32c0xx_nucleo.c ****       && (Led != LED2))
 564              		.loc 1 276 3 view .LVU130
ARM GAS  C:\Users\main\AppData\Local\Temp\ccdsVh5e.s 			page 26


 276:Drivers/BSP/STM32C0xx_Nucleo/stm32c0xx_nucleo.c ****       && (Led != LED2))
 565              		.loc 1 276 6 is_stmt 0 view .LVU131
 566 0002 0128     		cmp	r0, #1
 567 0004 17D8     		bhi	.L35
 287:Drivers/BSP/STM32C0xx_Nucleo/stm32c0xx_nucleo.c ****     {
 568              		.loc 1 287 5 is_stmt 1 view .LVU132
 287:Drivers/BSP/STM32C0xx_Nucleo/stm32c0xx_nucleo.c ****     {
 569              		.loc 1 287 8 is_stmt 0 view .LVU133
 570 0006 0028     		cmp	r0, #0
 571 0008 0AD1     		bne	.L34
 289:Drivers/BSP/STM32C0xx_Nucleo/stm32c0xx_nucleo.c ****     }
 572              		.loc 1 289 7 is_stmt 1 view .LVU134
 573 000a 4200     		lsls	r2, r0, #1
 574 000c 0B4B     		ldr	r3, .L36
 575 000e D15A     		ldrh	r1, [r2, r3]
 576 0010 8000     		lsls	r0, r0, #2
 577              	.LVL30:
 289:Drivers/BSP/STM32C0xx_Nucleo/stm32c0xx_nucleo.c ****     }
 578              		.loc 1 289 7 is_stmt 0 view .LVU135
 579 0012 0B4B     		ldr	r3, .L36+4
 580 0014 C058     		ldr	r0, [r0, r3]
 581 0016 0122     		movs	r2, #1
 582 0018 FFF7FEFF 		bl	HAL_GPIO_WritePin
 583              	.LVL31:
 273:Drivers/BSP/STM32C0xx_Nucleo/stm32c0xx_nucleo.c **** 
 584              		.loc 1 273 11 view .LVU136
 585 001c 0020     		movs	r0, #0
 586              	.LVL32:
 587              	.L32:
 302:Drivers/BSP/STM32C0xx_Nucleo/stm32c0xx_nucleo.c **** 
 588              		.loc 1 302 1 view .LVU137
 589              		@ sp needed
 590 001e 10BD     		pop	{r4, pc}
 591              	.LVL33:
 592              	.L34:
 293:Drivers/BSP/STM32C0xx_Nucleo/stm32c0xx_nucleo.c ****     }
 593              		.loc 1 293 7 is_stmt 1 view .LVU138
 594 0020 4200     		lsls	r2, r0, #1
 595 0022 064B     		ldr	r3, .L36
 596 0024 D15A     		ldrh	r1, [r2, r3]
 597 0026 8000     		lsls	r0, r0, #2
 598              	.LVL34:
 293:Drivers/BSP/STM32C0xx_Nucleo/stm32c0xx_nucleo.c ****     }
 599              		.loc 1 293 7 is_stmt 0 view .LVU139
 600 0028 054B     		ldr	r3, .L36+4
 601 002a C058     		ldr	r0, [r0, r3]
 602 002c 0022     		movs	r2, #0
 603 002e FFF7FEFF 		bl	HAL_GPIO_WritePin
 604              	.LVL35:
 273:Drivers/BSP/STM32C0xx_Nucleo/stm32c0xx_nucleo.c **** 
 605              		.loc 1 273 11 view .LVU140
 606 0032 0020     		movs	r0, #0
 607 0034 F3E7     		b	.L32
 608              	.LVL36:
 609              	.L35:
 282:Drivers/BSP/STM32C0xx_Nucleo/stm32c0xx_nucleo.c ****   }
 610              		.loc 1 282 9 view .LVU141
ARM GAS  C:\Users\main\AppData\Local\Temp\ccdsVh5e.s 			page 27


 611 0036 0220     		movs	r0, #2
 612              	.LVL37:
 282:Drivers/BSP/STM32C0xx_Nucleo/stm32c0xx_nucleo.c ****   }
 613              		.loc 1 282 9 view .LVU142
 614 0038 4042     		rsbs	r0, r0, #0
 615              	.LVL38:
 301:Drivers/BSP/STM32C0xx_Nucleo/stm32c0xx_nucleo.c **** }
 616              		.loc 1 301 3 is_stmt 1 view .LVU143
 301:Drivers/BSP/STM32C0xx_Nucleo/stm32c0xx_nucleo.c **** }
 617              		.loc 1 301 10 is_stmt 0 view .LVU144
 618 003a F0E7     		b	.L32
 619              	.L37:
 620              		.align	2
 621              	.L36:
 622 003c 00000000 		.word	.LANCHOR0
 623 0040 00000000 		.word	.LANCHOR1
 624              		.cfi_endproc
 625              	.LFE350:
 627              		.section	.text.BSP_LED_Off,"ax",%progbits
 628              		.align	1
 629              		.global	BSP_LED_Off
 630              		.syntax unified
 631              		.code	16
 632              		.thumb_func
 634              	BSP_LED_Off:
 635              	.LVL39:
 636              	.LFB351:
 314:Drivers/BSP/STM32C0xx_Nucleo/stm32c0xx_nucleo.c ****   int32_t ret = BSP_ERROR_NONE;
 637              		.loc 1 314 1 is_stmt 1 view -0
 638              		.cfi_startproc
 639              		@ args = 0, pretend = 0, frame = 0
 640              		@ frame_needed = 0, uses_anonymous_args = 0
 314:Drivers/BSP/STM32C0xx_Nucleo/stm32c0xx_nucleo.c ****   int32_t ret = BSP_ERROR_NONE;
 641              		.loc 1 314 1 is_stmt 0 view .LVU146
 642 0000 10B5     		push	{r4, lr}
 643              	.LCFI9:
 644              		.cfi_def_cfa_offset 8
 645              		.cfi_offset 4, -8
 646              		.cfi_offset 14, -4
 315:Drivers/BSP/STM32C0xx_Nucleo/stm32c0xx_nucleo.c **** 
 647              		.loc 1 315 3 is_stmt 1 view .LVU147
 648              	.LVL40:
 318:Drivers/BSP/STM32C0xx_Nucleo/stm32c0xx_nucleo.c ****       && (Led != LED2))
 649              		.loc 1 318 3 view .LVU148
 318:Drivers/BSP/STM32C0xx_Nucleo/stm32c0xx_nucleo.c ****       && (Led != LED2))
 650              		.loc 1 318 6 is_stmt 0 view .LVU149
 651 0002 0128     		cmp	r0, #1
 652 0004 17D8     		bhi	.L41
 329:Drivers/BSP/STM32C0xx_Nucleo/stm32c0xx_nucleo.c ****     {
 653              		.loc 1 329 5 is_stmt 1 view .LVU150
 329:Drivers/BSP/STM32C0xx_Nucleo/stm32c0xx_nucleo.c ****     {
 654              		.loc 1 329 8 is_stmt 0 view .LVU151
 655 0006 0028     		cmp	r0, #0
 656 0008 0AD1     		bne	.L40
 331:Drivers/BSP/STM32C0xx_Nucleo/stm32c0xx_nucleo.c ****     }
 657              		.loc 1 331 7 is_stmt 1 view .LVU152
 658 000a 4200     		lsls	r2, r0, #1
ARM GAS  C:\Users\main\AppData\Local\Temp\ccdsVh5e.s 			page 28


 659 000c 0B4B     		ldr	r3, .L42
 660 000e D15A     		ldrh	r1, [r2, r3]
 661 0010 8000     		lsls	r0, r0, #2
 662              	.LVL41:
 331:Drivers/BSP/STM32C0xx_Nucleo/stm32c0xx_nucleo.c ****     }
 663              		.loc 1 331 7 is_stmt 0 view .LVU153
 664 0012 0B4B     		ldr	r3, .L42+4
 665 0014 C058     		ldr	r0, [r0, r3]
 666 0016 0022     		movs	r2, #0
 667 0018 FFF7FEFF 		bl	HAL_GPIO_WritePin
 668              	.LVL42:
 315:Drivers/BSP/STM32C0xx_Nucleo/stm32c0xx_nucleo.c **** 
 669              		.loc 1 315 11 view .LVU154
 670 001c 0020     		movs	r0, #0
 671              	.LVL43:
 672              	.L38:
 344:Drivers/BSP/STM32C0xx_Nucleo/stm32c0xx_nucleo.c **** 
 673              		.loc 1 344 1 view .LVU155
 674              		@ sp needed
 675 001e 10BD     		pop	{r4, pc}
 676              	.LVL44:
 677              	.L40:
 335:Drivers/BSP/STM32C0xx_Nucleo/stm32c0xx_nucleo.c ****     }
 678              		.loc 1 335 7 is_stmt 1 view .LVU156
 679 0020 4200     		lsls	r2, r0, #1
 680 0022 064B     		ldr	r3, .L42
 681 0024 D15A     		ldrh	r1, [r2, r3]
 682 0026 8000     		lsls	r0, r0, #2
 683              	.LVL45:
 335:Drivers/BSP/STM32C0xx_Nucleo/stm32c0xx_nucleo.c ****     }
 684              		.loc 1 335 7 is_stmt 0 view .LVU157
 685 0028 054B     		ldr	r3, .L42+4
 686 002a C058     		ldr	r0, [r0, r3]
 687 002c 0122     		movs	r2, #1
 688 002e FFF7FEFF 		bl	HAL_GPIO_WritePin
 689              	.LVL46:
 315:Drivers/BSP/STM32C0xx_Nucleo/stm32c0xx_nucleo.c **** 
 690              		.loc 1 315 11 view .LVU158
 691 0032 0020     		movs	r0, #0
 692 0034 F3E7     		b	.L38
 693              	.LVL47:
 694              	.L41:
 324:Drivers/BSP/STM32C0xx_Nucleo/stm32c0xx_nucleo.c ****   }
 695              		.loc 1 324 9 view .LVU159
 696 0036 0220     		movs	r0, #2
 697              	.LVL48:
 324:Drivers/BSP/STM32C0xx_Nucleo/stm32c0xx_nucleo.c ****   }
 698              		.loc 1 324 9 view .LVU160
 699 0038 4042     		rsbs	r0, r0, #0
 700              	.LVL49:
 343:Drivers/BSP/STM32C0xx_Nucleo/stm32c0xx_nucleo.c **** }
 701              		.loc 1 343 3 is_stmt 1 view .LVU161
 343:Drivers/BSP/STM32C0xx_Nucleo/stm32c0xx_nucleo.c **** }
 702              		.loc 1 343 10 is_stmt 0 view .LVU162
 703 003a F0E7     		b	.L38
 704              	.L43:
 705              		.align	2
ARM GAS  C:\Users\main\AppData\Local\Temp\ccdsVh5e.s 			page 29


 706              	.L42:
 707 003c 00000000 		.word	.LANCHOR0
 708 0040 00000000 		.word	.LANCHOR1
 709              		.cfi_endproc
 710              	.LFE351:
 712              		.section	.text.BSP_LED_Toggle,"ax",%progbits
 713              		.align	1
 714              		.global	BSP_LED_Toggle
 715              		.syntax unified
 716              		.code	16
 717              		.thumb_func
 719              	BSP_LED_Toggle:
 720              	.LVL50:
 721              	.LFB352:
 356:Drivers/BSP/STM32C0xx_Nucleo/stm32c0xx_nucleo.c ****   int32_t ret = BSP_ERROR_NONE;
 722              		.loc 1 356 1 is_stmt 1 view -0
 723              		.cfi_startproc
 724              		@ args = 0, pretend = 0, frame = 0
 725              		@ frame_needed = 0, uses_anonymous_args = 0
 356:Drivers/BSP/STM32C0xx_Nucleo/stm32c0xx_nucleo.c ****   int32_t ret = BSP_ERROR_NONE;
 726              		.loc 1 356 1 is_stmt 0 view .LVU164
 727 0000 10B5     		push	{r4, lr}
 728              	.LCFI10:
 729              		.cfi_def_cfa_offset 8
 730              		.cfi_offset 4, -8
 731              		.cfi_offset 14, -4
 357:Drivers/BSP/STM32C0xx_Nucleo/stm32c0xx_nucleo.c **** 
 732              		.loc 1 357 3 is_stmt 1 view .LVU165
 733              	.LVL51:
 360:Drivers/BSP/STM32C0xx_Nucleo/stm32c0xx_nucleo.c ****       && (Led != LED2))
 734              		.loc 1 360 3 view .LVU166
 360:Drivers/BSP/STM32C0xx_Nucleo/stm32c0xx_nucleo.c ****       && (Led != LED2))
 735              		.loc 1 360 6 is_stmt 0 view .LVU167
 736 0002 0128     		cmp	r0, #1
 737 0004 09D8     		bhi	.L46
 370:Drivers/BSP/STM32C0xx_Nucleo/stm32c0xx_nucleo.c ****   }
 738              		.loc 1 370 5 is_stmt 1 view .LVU168
 739 0006 4200     		lsls	r2, r0, #1
 740 0008 054B     		ldr	r3, .L47
 741 000a D15A     		ldrh	r1, [r2, r3]
 742 000c 8000     		lsls	r0, r0, #2
 743              	.LVL52:
 370:Drivers/BSP/STM32C0xx_Nucleo/stm32c0xx_nucleo.c ****   }
 744              		.loc 1 370 5 is_stmt 0 view .LVU169
 745 000e 054B     		ldr	r3, .L47+4
 746 0010 C058     		ldr	r0, [r0, r3]
 747 0012 FFF7FEFF 		bl	HAL_GPIO_TogglePin
 748              	.LVL53:
 357:Drivers/BSP/STM32C0xx_Nucleo/stm32c0xx_nucleo.c **** 
 749              		.loc 1 357 11 view .LVU170
 750 0016 0020     		movs	r0, #0
 751              	.LVL54:
 752              	.L44:
 374:Drivers/BSP/STM32C0xx_Nucleo/stm32c0xx_nucleo.c **** 
 753              		.loc 1 374 1 view .LVU171
 754              		@ sp needed
 755 0018 10BD     		pop	{r4, pc}
ARM GAS  C:\Users\main\AppData\Local\Temp\ccdsVh5e.s 			page 30


 756              	.LVL55:
 757              	.L46:
 366:Drivers/BSP/STM32C0xx_Nucleo/stm32c0xx_nucleo.c ****   }
 758              		.loc 1 366 9 view .LVU172
 759 001a 0220     		movs	r0, #2
 760              	.LVL56:
 366:Drivers/BSP/STM32C0xx_Nucleo/stm32c0xx_nucleo.c ****   }
 761              		.loc 1 366 9 view .LVU173
 762 001c 4042     		rsbs	r0, r0, #0
 763              	.LVL57:
 373:Drivers/BSP/STM32C0xx_Nucleo/stm32c0xx_nucleo.c **** }
 764              		.loc 1 373 3 is_stmt 1 view .LVU174
 373:Drivers/BSP/STM32C0xx_Nucleo/stm32c0xx_nucleo.c **** }
 765              		.loc 1 373 10 is_stmt 0 view .LVU175
 766 001e FBE7     		b	.L44
 767              	.L48:
 768              		.align	2
 769              	.L47:
 770 0020 00000000 		.word	.LANCHOR0
 771 0024 00000000 		.word	.LANCHOR1
 772              		.cfi_endproc
 773              	.LFE352:
 775              		.section	.text.BSP_LED_GetState,"ax",%progbits
 776              		.align	1
 777              		.global	BSP_LED_GetState
 778              		.syntax unified
 779              		.code	16
 780              		.thumb_func
 782              	BSP_LED_GetState:
 783              	.LVL58:
 784              	.LFB353:
 386:Drivers/BSP/STM32C0xx_Nucleo/stm32c0xx_nucleo.c ****   int32_t ret;
 785              		.loc 1 386 1 is_stmt 1 view -0
 786              		.cfi_startproc
 787              		@ args = 0, pretend = 0, frame = 0
 788              		@ frame_needed = 0, uses_anonymous_args = 0
 386:Drivers/BSP/STM32C0xx_Nucleo/stm32c0xx_nucleo.c ****   int32_t ret;
 789              		.loc 1 386 1 is_stmt 0 view .LVU177
 790 0000 10B5     		push	{r4, lr}
 791              	.LCFI11:
 792              		.cfi_def_cfa_offset 8
 793              		.cfi_offset 4, -8
 794              		.cfi_offset 14, -4
 795 0002 0300     		movs	r3, r0
 387:Drivers/BSP/STM32C0xx_Nucleo/stm32c0xx_nucleo.c **** 
 796              		.loc 1 387 3 is_stmt 1 view .LVU178
 390:Drivers/BSP/STM32C0xx_Nucleo/stm32c0xx_nucleo.c ****       && (Led != LED2))
 797              		.loc 1 390 3 view .LVU179
 390:Drivers/BSP/STM32C0xx_Nucleo/stm32c0xx_nucleo.c ****       && (Led != LED2))
 798              		.loc 1 390 6 is_stmt 0 view .LVU180
 799 0004 0128     		cmp	r0, #1
 800 0006 08D8     		bhi	.L51
 400:Drivers/BSP/STM32C0xx_Nucleo/stm32c0xx_nucleo.c ****   }
 801              		.loc 1 400 5 is_stmt 1 view .LVU181
 400:Drivers/BSP/STM32C0xx_Nucleo/stm32c0xx_nucleo.c ****   }
 802              		.loc 1 400 46 is_stmt 0 view .LVU182
 803 0008 8100     		lsls	r1, r0, #2
ARM GAS  C:\Users\main\AppData\Local\Temp\ccdsVh5e.s 			page 31


 804 000a 054A     		ldr	r2, .L52
 805 000c 8858     		ldr	r0, [r1, r2]
 806              	.LVL59:
 400:Drivers/BSP/STM32C0xx_Nucleo/stm32c0xx_nucleo.c ****   }
 807              		.loc 1 400 20 view .LVU183
 808 000e 5B00     		lsls	r3, r3, #1
 809 0010 044A     		ldr	r2, .L52+4
 810 0012 995A     		ldrh	r1, [r3, r2]
 811 0014 FFF7FEFF 		bl	HAL_GPIO_ReadPin
 812              	.LVL60:
 813              	.L49:
 404:Drivers/BSP/STM32C0xx_Nucleo/stm32c0xx_nucleo.c **** 
 814              		.loc 1 404 1 view .LVU184
 815              		@ sp needed
 816 0018 10BD     		pop	{r4, pc}
 817              	.LVL61:
 818              	.L51:
 396:Drivers/BSP/STM32C0xx_Nucleo/stm32c0xx_nucleo.c ****   }
 819              		.loc 1 396 9 view .LVU185
 820 001a 0220     		movs	r0, #2
 821              	.LVL62:
 396:Drivers/BSP/STM32C0xx_Nucleo/stm32c0xx_nucleo.c ****   }
 822              		.loc 1 396 9 view .LVU186
 823 001c 4042     		rsbs	r0, r0, #0
 824              	.LVL63:
 403:Drivers/BSP/STM32C0xx_Nucleo/stm32c0xx_nucleo.c **** }
 825              		.loc 1 403 3 is_stmt 1 view .LVU187
 403:Drivers/BSP/STM32C0xx_Nucleo/stm32c0xx_nucleo.c **** }
 826              		.loc 1 403 10 is_stmt 0 view .LVU188
 827 001e FBE7     		b	.L49
 828              	.L53:
 829              		.align	2
 830              	.L52:
 831 0020 00000000 		.word	.LANCHOR1
 832 0024 00000000 		.word	.LANCHOR0
 833              		.cfi_endproc
 834              	.LFE353:
 836              		.section	.text.BSP_PB_Init,"ax",%progbits
 837              		.align	1
 838              		.global	BSP_PB_Init
 839              		.syntax unified
 840              		.code	16
 841              		.thumb_func
 843              	BSP_PB_Init:
 844              	.LVL64:
 845              	.LFB354:
 418:Drivers/BSP/STM32C0xx_Nucleo/stm32c0xx_nucleo.c ****   GPIO_InitTypeDef gpio_init_structure;
 846              		.loc 1 418 1 is_stmt 1 view -0
 847              		.cfi_startproc
 848              		@ args = 0, pretend = 0, frame = 24
 849              		@ frame_needed = 0, uses_anonymous_args = 0
 418:Drivers/BSP/STM32C0xx_Nucleo/stm32c0xx_nucleo.c ****   GPIO_InitTypeDef gpio_init_structure;
 850              		.loc 1 418 1 is_stmt 0 view .LVU190
 851 0000 10B5     		push	{r4, lr}
 852              	.LCFI12:
 853              		.cfi_def_cfa_offset 8
 854              		.cfi_offset 4, -8
ARM GAS  C:\Users\main\AppData\Local\Temp\ccdsVh5e.s 			page 32


 855              		.cfi_offset 14, -4
 856 0002 86B0     		sub	sp, sp, #24
 857              	.LCFI13:
 858              		.cfi_def_cfa_offset 32
 859 0004 0400     		movs	r4, r0
 419:Drivers/BSP/STM32C0xx_Nucleo/stm32c0xx_nucleo.c ****   static BSP_EXTI_LineCallback ButtonCallback[BUTTONn] = {BUTTON_USER_EXTI_Callback};
 860              		.loc 1 419 3 is_stmt 1 view .LVU191
 420:Drivers/BSP/STM32C0xx_Nucleo/stm32c0xx_nucleo.c ****   static uint32_t  BSP_BUTTON_PRIO [BUTTONn] = {BSP_BUTTON_USER_IT_PRIORITY};
 861              		.loc 1 420 3 view .LVU192
 421:Drivers/BSP/STM32C0xx_Nucleo/stm32c0xx_nucleo.c ****   static const uint32_t BUTTON_EXTI_LINE[BUTTONn] = {BUTTON_USER_EXTI_LINE};
 862              		.loc 1 421 3 view .LVU193
 422:Drivers/BSP/STM32C0xx_Nucleo/stm32c0xx_nucleo.c **** 
 863              		.loc 1 422 3 view .LVU194
 425:Drivers/BSP/STM32C0xx_Nucleo/stm32c0xx_nucleo.c **** 
 864              		.loc 1 425 3 view .LVU195
 865              	.LBB7:
 425:Drivers/BSP/STM32C0xx_Nucleo/stm32c0xx_nucleo.c **** 
 866              		.loc 1 425 3 view .LVU196
 425:Drivers/BSP/STM32C0xx_Nucleo/stm32c0xx_nucleo.c **** 
 867              		.loc 1 425 3 view .LVU197
 868 0006 1C4A     		ldr	r2, .L57
 869 0008 506B     		ldr	r0, [r2, #52]
 870              	.LVL65:
 425:Drivers/BSP/STM32C0xx_Nucleo/stm32c0xx_nucleo.c **** 
 871              		.loc 1 425 3 is_stmt 0 view .LVU198
 872 000a 0423     		movs	r3, #4
 873 000c 1843     		orrs	r0, r3
 874 000e 5063     		str	r0, [r2, #52]
 425:Drivers/BSP/STM32C0xx_Nucleo/stm32c0xx_nucleo.c **** 
 875              		.loc 1 425 3 is_stmt 1 view .LVU199
 876 0010 526B     		ldr	r2, [r2, #52]
 877 0012 1340     		ands	r3, r2
 878 0014 0093     		str	r3, [sp]
 425:Drivers/BSP/STM32C0xx_Nucleo/stm32c0xx_nucleo.c **** 
 879              		.loc 1 425 3 view .LVU200
 880 0016 009B     		ldr	r3, [sp]
 881              	.LBE7:
 425:Drivers/BSP/STM32C0xx_Nucleo/stm32c0xx_nucleo.c **** 
 882              		.loc 1 425 3 view .LVU201
 427:Drivers/BSP/STM32C0xx_Nucleo/stm32c0xx_nucleo.c ****   gpio_init_structure.Pull = GPIO_PULLUP;
 883              		.loc 1 427 3 view .LVU202
 427:Drivers/BSP/STM32C0xx_Nucleo/stm32c0xx_nucleo.c ****   gpio_init_structure.Pull = GPIO_PULLUP;
 884              		.loc 1 427 27 is_stmt 0 view .LVU203
 885 0018 8023     		movs	r3, #128
 886 001a 9B01     		lsls	r3, r3, #6
 887 001c 0193     		str	r3, [sp, #4]
 428:Drivers/BSP/STM32C0xx_Nucleo/stm32c0xx_nucleo.c ****   gpio_init_structure.Speed = GPIO_SPEED_FREQ_HIGH;
 888              		.loc 1 428 3 is_stmt 1 view .LVU204
 428:Drivers/BSP/STM32C0xx_Nucleo/stm32c0xx_nucleo.c ****   gpio_init_structure.Speed = GPIO_SPEED_FREQ_HIGH;
 889              		.loc 1 428 28 is_stmt 0 view .LVU205
 890 001e 0123     		movs	r3, #1
 891 0020 0393     		str	r3, [sp, #12]
 429:Drivers/BSP/STM32C0xx_Nucleo/stm32c0xx_nucleo.c **** 
 892              		.loc 1 429 3 is_stmt 1 view .LVU206
 429:Drivers/BSP/STM32C0xx_Nucleo/stm32c0xx_nucleo.c **** 
 893              		.loc 1 429 29 is_stmt 0 view .LVU207
 894 0022 0133     		adds	r3, r3, #1
ARM GAS  C:\Users\main\AppData\Local\Temp\ccdsVh5e.s 			page 33


 895 0024 0493     		str	r3, [sp, #16]
 431:Drivers/BSP/STM32C0xx_Nucleo/stm32c0xx_nucleo.c ****   {
 896              		.loc 1 431 3 is_stmt 1 view .LVU208
 431:Drivers/BSP/STM32C0xx_Nucleo/stm32c0xx_nucleo.c ****   {
 897              		.loc 1 431 6 is_stmt 0 view .LVU209
 898 0026 0029     		cmp	r1, #0
 899 0028 08D1     		bne	.L55
 434:Drivers/BSP/STM32C0xx_Nucleo/stm32c0xx_nucleo.c ****     HAL_GPIO_Init(BUTTON_PORT [Button], &gpio_init_structure);
 900              		.loc 1 434 5 is_stmt 1 view .LVU210
 434:Drivers/BSP/STM32C0xx_Nucleo/stm32c0xx_nucleo.c ****     HAL_GPIO_Init(BUTTON_PORT [Button], &gpio_init_structure);
 901              		.loc 1 434 30 is_stmt 0 view .LVU211
 902 002a 0023     		movs	r3, #0
 903 002c 0293     		str	r3, [sp, #8]
 435:Drivers/BSP/STM32C0xx_Nucleo/stm32c0xx_nucleo.c ****   }
 904              		.loc 1 435 5 is_stmt 1 view .LVU212
 905 002e 01A9     		add	r1, sp, #4
 906              	.LVL66:
 435:Drivers/BSP/STM32C0xx_Nucleo/stm32c0xx_nucleo.c ****   }
 907              		.loc 1 435 5 is_stmt 0 view .LVU213
 908 0030 1248     		ldr	r0, .L57+4
 909 0032 FFF7FEFF 		bl	HAL_GPIO_Init
 910              	.LVL67:
 911              	.L56:
 452:Drivers/BSP/STM32C0xx_Nucleo/stm32c0xx_nucleo.c **** }
 912              		.loc 1 452 3 is_stmt 1 view .LVU214
 453:Drivers/BSP/STM32C0xx_Nucleo/stm32c0xx_nucleo.c **** 
 913              		.loc 1 453 1 is_stmt 0 view .LVU215
 914 0036 0020     		movs	r0, #0
 915 0038 06B0     		add	sp, sp, #24
 916              		@ sp needed
 917 003a 10BD     		pop	{r4, pc}
 918              	.LVL68:
 919              	.L55:
 440:Drivers/BSP/STM32C0xx_Nucleo/stm32c0xx_nucleo.c **** 
 920              		.loc 1 440 5 is_stmt 1 view .LVU216
 440:Drivers/BSP/STM32C0xx_Nucleo/stm32c0xx_nucleo.c **** 
 921              		.loc 1 440 30 is_stmt 0 view .LVU217
 922 003c 104B     		ldr	r3, .L57+8
 923 003e 0293     		str	r3, [sp, #8]
 442:Drivers/BSP/STM32C0xx_Nucleo/stm32c0xx_nucleo.c **** 
 924              		.loc 1 442 5 is_stmt 1 view .LVU218
 925 0040 01A9     		add	r1, sp, #4
 926              	.LVL69:
 442:Drivers/BSP/STM32C0xx_Nucleo/stm32c0xx_nucleo.c **** 
 927              		.loc 1 442 5 is_stmt 0 view .LVU219
 928 0042 0E48     		ldr	r0, .L57+4
 929 0044 FFF7FEFF 		bl	HAL_GPIO_Init
 930              	.LVL70:
 444:Drivers/BSP/STM32C0xx_Nucleo/stm32c0xx_nucleo.c ****     (void)HAL_EXTI_RegisterCallback(&hpb_exti[Button],  HAL_EXTI_COMMON_CB_ID, ButtonCallback[Butto
 931              		.loc 1 444 5 is_stmt 1 view .LVU220
 444:Drivers/BSP/STM32C0xx_Nucleo/stm32c0xx_nucleo.c ****     (void)HAL_EXTI_RegisterCallback(&hpb_exti[Button],  HAL_EXTI_COMMON_CB_ID, ButtonCallback[Butto
 932              		.loc 1 444 11 is_stmt 0 view .LVU221
 933 0048 6000     		lsls	r0, r4, #1
 934 004a 0419     		adds	r4, r0, r4
 935 004c A400     		lsls	r4, r4, #2
 936 004e 0D48     		ldr	r0, .L57+12
 937 0050 0419     		adds	r4, r0, r4
ARM GAS  C:\Users\main\AppData\Local\Temp\ccdsVh5e.s 			page 34


 938 0052 0D49     		ldr	r1, .L57+16
 939 0054 2000     		movs	r0, r4
 940 0056 FFF7FEFF 		bl	HAL_EXTI_GetHandle
 941              	.LVL71:
 445:Drivers/BSP/STM32C0xx_Nucleo/stm32c0xx_nucleo.c **** 
 942              		.loc 1 445 5 is_stmt 1 view .LVU222
 445:Drivers/BSP/STM32C0xx_Nucleo/stm32c0xx_nucleo.c **** 
 943              		.loc 1 445 11 is_stmt 0 view .LVU223
 944 005a 0C4A     		ldr	r2, .L57+20
 945 005c 0021     		movs	r1, #0
 946 005e 2000     		movs	r0, r4
 947 0060 FFF7FEFF 		bl	HAL_EXTI_RegisterCallback
 948              	.LVL72:
 448:Drivers/BSP/STM32C0xx_Nucleo/stm32c0xx_nucleo.c ****     HAL_NVIC_EnableIRQ((BUTTON_IRQn[Button]));
 949              		.loc 1 448 5 is_stmt 1 view .LVU224
 950 0064 0022     		movs	r2, #0
 951 0066 0F21     		movs	r1, #15
 952 0068 0720     		movs	r0, #7
 953 006a FFF7FEFF 		bl	HAL_NVIC_SetPriority
 954              	.LVL73:
 449:Drivers/BSP/STM32C0xx_Nucleo/stm32c0xx_nucleo.c ****   }
 955              		.loc 1 449 5 view .LVU225
 956 006e 0720     		movs	r0, #7
 957 0070 FFF7FEFF 		bl	HAL_NVIC_EnableIRQ
 958              	.LVL74:
 959 0074 DFE7     		b	.L56
 960              	.L58:
 961 0076 C046     		.align	2
 962              	.L57:
 963 0078 00100240 		.word	1073876992
 964 007c 00080050 		.word	1342179328
 965 0080 00002110 		.word	270598144
 966 0084 00000000 		.word	.LANCHOR2
 967 0088 0D000006 		.word	100663309
 968 008c 00000000 		.word	BUTTON_USER_EXTI_Callback
 969              		.cfi_endproc
 970              	.LFE354:
 972              		.section	.text.BSP_PB_DeInit,"ax",%progbits
 973              		.align	1
 974              		.global	BSP_PB_DeInit
 975              		.syntax unified
 976              		.code	16
 977              		.thumb_func
 979              	BSP_PB_DeInit:
 980              	.LVL75:
 981              	.LFB355:
 463:Drivers/BSP/STM32C0xx_Nucleo/stm32c0xx_nucleo.c ****   GPIO_InitTypeDef gpio_init_structure;
 982              		.loc 1 463 1 view -0
 983              		.cfi_startproc
 984              		@ args = 0, pretend = 0, frame = 24
 985              		@ frame_needed = 0, uses_anonymous_args = 0
 463:Drivers/BSP/STM32C0xx_Nucleo/stm32c0xx_nucleo.c ****   GPIO_InitTypeDef gpio_init_structure;
 986              		.loc 1 463 1 is_stmt 0 view .LVU227
 987 0000 10B5     		push	{r4, lr}
 988              	.LCFI14:
 989              		.cfi_def_cfa_offset 8
 990              		.cfi_offset 4, -8
ARM GAS  C:\Users\main\AppData\Local\Temp\ccdsVh5e.s 			page 35


 991              		.cfi_offset 14, -4
 992 0002 86B0     		sub	sp, sp, #24
 993              	.LCFI15:
 994              		.cfi_def_cfa_offset 32
 464:Drivers/BSP/STM32C0xx_Nucleo/stm32c0xx_nucleo.c **** 
 995              		.loc 1 464 3 is_stmt 1 view .LVU228
 466:Drivers/BSP/STM32C0xx_Nucleo/stm32c0xx_nucleo.c ****   HAL_NVIC_DisableIRQ((IRQn_Type)(BUTTON_IRQn[Button]));
 996              		.loc 1 466 3 view .LVU229
 466:Drivers/BSP/STM32C0xx_Nucleo/stm32c0xx_nucleo.c ****   HAL_NVIC_DisableIRQ((IRQn_Type)(BUTTON_IRQn[Button]));
 997              		.loc 1 466 27 is_stmt 0 view .LVU230
 998 0004 8024     		movs	r4, #128
 999 0006 A401     		lsls	r4, r4, #6
 1000 0008 0194     		str	r4, [sp, #4]
 467:Drivers/BSP/STM32C0xx_Nucleo/stm32c0xx_nucleo.c ****   HAL_GPIO_DeInit(BUTTON_PORT[Button], gpio_init_structure.Pin);
 1001              		.loc 1 467 3 is_stmt 1 view .LVU231
 1002 000a 0720     		movs	r0, #7
 1003              	.LVL76:
 467:Drivers/BSP/STM32C0xx_Nucleo/stm32c0xx_nucleo.c ****   HAL_GPIO_DeInit(BUTTON_PORT[Button], gpio_init_structure.Pin);
 1004              		.loc 1 467 3 is_stmt 0 view .LVU232
 1005 000c FFF7FEFF 		bl	HAL_NVIC_DisableIRQ
 1006              	.LVL77:
 468:Drivers/BSP/STM32C0xx_Nucleo/stm32c0xx_nucleo.c **** 
 1007              		.loc 1 468 3 is_stmt 1 view .LVU233
 1008 0010 2100     		movs	r1, r4
 1009 0012 0348     		ldr	r0, .L60
 1010 0014 FFF7FEFF 		bl	HAL_GPIO_DeInit
 1011              	.LVL78:
 470:Drivers/BSP/STM32C0xx_Nucleo/stm32c0xx_nucleo.c **** }
 1012              		.loc 1 470 3 view .LVU234
 471:Drivers/BSP/STM32C0xx_Nucleo/stm32c0xx_nucleo.c **** 
 1013              		.loc 1 471 1 is_stmt 0 view .LVU235
 1014 0018 0020     		movs	r0, #0
 1015 001a 06B0     		add	sp, sp, #24
 1016              		@ sp needed
 1017 001c 10BD     		pop	{r4, pc}
 1018              	.L61:
 1019 001e C046     		.align	2
 1020              	.L60:
 1021 0020 00080050 		.word	1342179328
 1022              		.cfi_endproc
 1023              	.LFE355:
 1025              		.section	.text.BSP_PB_GetState,"ax",%progbits
 1026              		.align	1
 1027              		.global	BSP_PB_GetState
 1028              		.syntax unified
 1029              		.code	16
 1030              		.thumb_func
 1032              	BSP_PB_GetState:
 1033              	.LVL79:
 1034              	.LFB356:
 481:Drivers/BSP/STM32C0xx_Nucleo/stm32c0xx_nucleo.c ****   return (int32_t)HAL_GPIO_ReadPin(BUTTON_PORT[Button], BUTTON_PIN[Button]);
 1035              		.loc 1 481 1 is_stmt 1 view -0
 1036              		.cfi_startproc
 1037              		@ args = 0, pretend = 0, frame = 0
 1038              		@ frame_needed = 0, uses_anonymous_args = 0
 481:Drivers/BSP/STM32C0xx_Nucleo/stm32c0xx_nucleo.c ****   return (int32_t)HAL_GPIO_ReadPin(BUTTON_PORT[Button], BUTTON_PIN[Button]);
 1039              		.loc 1 481 1 is_stmt 0 view .LVU237
ARM GAS  C:\Users\main\AppData\Local\Temp\ccdsVh5e.s 			page 36


 1040 0000 10B5     		push	{r4, lr}
 1041              	.LCFI16:
 1042              		.cfi_def_cfa_offset 8
 1043              		.cfi_offset 4, -8
 1044              		.cfi_offset 14, -4
 482:Drivers/BSP/STM32C0xx_Nucleo/stm32c0xx_nucleo.c **** }
 1045              		.loc 1 482 3 is_stmt 1 view .LVU238
 482:Drivers/BSP/STM32C0xx_Nucleo/stm32c0xx_nucleo.c **** }
 1046              		.loc 1 482 19 is_stmt 0 view .LVU239
 1047 0002 8021     		movs	r1, #128
 1048 0004 8901     		lsls	r1, r1, #6
 1049 0006 0248     		ldr	r0, .L63
 1050              	.LVL80:
 482:Drivers/BSP/STM32C0xx_Nucleo/stm32c0xx_nucleo.c **** }
 1051              		.loc 1 482 19 view .LVU240
 1052 0008 FFF7FEFF 		bl	HAL_GPIO_ReadPin
 1053              	.LVL81:
 483:Drivers/BSP/STM32C0xx_Nucleo/stm32c0xx_nucleo.c **** 
 1054              		.loc 1 483 1 view .LVU241
 1055              		@ sp needed
 1056 000c 10BD     		pop	{r4, pc}
 1057              	.L64:
 1058 000e C046     		.align	2
 1059              	.L63:
 1060 0010 00080050 		.word	1342179328
 1061              		.cfi_endproc
 1062              	.LFE356:
 1064              		.section	.text.BSP_PB_IRQHandler,"ax",%progbits
 1065              		.align	1
 1066              		.global	BSP_PB_IRQHandler
 1067              		.syntax unified
 1068              		.code	16
 1069              		.thumb_func
 1071              	BSP_PB_IRQHandler:
 1072              	.LVL82:
 1073              	.LFB357:
 491:Drivers/BSP/STM32C0xx_Nucleo/stm32c0xx_nucleo.c ****   HAL_EXTI_IRQHandler(&hpb_exti[Button]);
 1074              		.loc 1 491 1 is_stmt 1 view -0
 1075              		.cfi_startproc
 1076              		@ args = 0, pretend = 0, frame = 0
 1077              		@ frame_needed = 0, uses_anonymous_args = 0
 491:Drivers/BSP/STM32C0xx_Nucleo/stm32c0xx_nucleo.c ****   HAL_EXTI_IRQHandler(&hpb_exti[Button]);
 1078              		.loc 1 491 1 is_stmt 0 view .LVU243
 1079 0000 10B5     		push	{r4, lr}
 1080              	.LCFI17:
 1081              		.cfi_def_cfa_offset 8
 1082              		.cfi_offset 4, -8
 1083              		.cfi_offset 14, -4
 1084 0002 0300     		movs	r3, r0
 492:Drivers/BSP/STM32C0xx_Nucleo/stm32c0xx_nucleo.c **** }
 1085              		.loc 1 492 3 is_stmt 1 view .LVU244
 492:Drivers/BSP/STM32C0xx_Nucleo/stm32c0xx_nucleo.c **** }
 1086              		.loc 1 492 23 is_stmt 0 view .LVU245
 1087 0004 4000     		lsls	r0, r0, #1
 1088              	.LVL83:
 492:Drivers/BSP/STM32C0xx_Nucleo/stm32c0xx_nucleo.c **** }
 1089              		.loc 1 492 23 view .LVU246
ARM GAS  C:\Users\main\AppData\Local\Temp\ccdsVh5e.s 			page 37


 1090 0006 C018     		adds	r0, r0, r3
 1091 0008 8000     		lsls	r0, r0, #2
 1092 000a 024B     		ldr	r3, .L66
 1093 000c 1818     		adds	r0, r3, r0
 492:Drivers/BSP/STM32C0xx_Nucleo/stm32c0xx_nucleo.c **** }
 1094              		.loc 1 492 3 view .LVU247
 1095 000e FFF7FEFF 		bl	HAL_EXTI_IRQHandler
 1096              	.LVL84:
 493:Drivers/BSP/STM32C0xx_Nucleo/stm32c0xx_nucleo.c **** 
 1097              		.loc 1 493 1 view .LVU248
 1098              		@ sp needed
 1099 0012 10BD     		pop	{r4, pc}
 1100              	.L67:
 1101              		.align	2
 1102              	.L66:
 1103 0014 00000000 		.word	.LANCHOR2
 1104              		.cfi_endproc
 1105              	.LFE357:
 1107              		.section	.text.BSP_PB_Callback,"ax",%progbits
 1108              		.align	1
 1109              		.weak	BSP_PB_Callback
 1110              		.syntax unified
 1111              		.code	16
 1112              		.thumb_func
 1114              	BSP_PB_Callback:
 1115              	.LVL85:
 1116              	.LFB358:
 501:Drivers/BSP/STM32C0xx_Nucleo/stm32c0xx_nucleo.c ****   /* Prevent unused argument(s) compilation warning */
 1117              		.loc 1 501 1 is_stmt 1 view -0
 1118              		.cfi_startproc
 1119              		@ args = 0, pretend = 0, frame = 0
 1120              		@ frame_needed = 0, uses_anonymous_args = 0
 1121              		@ link register save eliminated.
 503:Drivers/BSP/STM32C0xx_Nucleo/stm32c0xx_nucleo.c **** 
 1122              		.loc 1 503 3 view .LVU250
 507:Drivers/BSP/STM32C0xx_Nucleo/stm32c0xx_nucleo.c **** 
 1123              		.loc 1 507 1 is_stmt 0 view .LVU251
 1124              		@ sp needed
 1125 0000 7047     		bx	lr
 1126              		.cfi_endproc
 1127              	.LFE358:
 1129              		.section	.text.BUTTON_USER_EXTI_Callback,"ax",%progbits
 1130              		.align	1
 1131              		.syntax unified
 1132              		.code	16
 1133              		.thumb_func
 1135              	BUTTON_USER_EXTI_Callback:
 1136              	.LFB364:
 736:Drivers/BSP/STM32C0xx_Nucleo/stm32c0xx_nucleo.c ****   BSP_PB_Callback(BUTTON_USER);
 1137              		.loc 1 736 1 is_stmt 1 view -0
 1138              		.cfi_startproc
 1139              		@ args = 0, pretend = 0, frame = 0
 1140              		@ frame_needed = 0, uses_anonymous_args = 0
 1141 0000 10B5     		push	{r4, lr}
 1142              	.LCFI18:
 1143              		.cfi_def_cfa_offset 8
 1144              		.cfi_offset 4, -8
ARM GAS  C:\Users\main\AppData\Local\Temp\ccdsVh5e.s 			page 38


 1145              		.cfi_offset 14, -4
 737:Drivers/BSP/STM32C0xx_Nucleo/stm32c0xx_nucleo.c **** }
 1146              		.loc 1 737 3 view .LVU253
 1147 0002 0020     		movs	r0, #0
 1148 0004 FFF7FEFF 		bl	BSP_PB_Callback
 1149              	.LVL86:
 738:Drivers/BSP/STM32C0xx_Nucleo/stm32c0xx_nucleo.c **** 
 1150              		.loc 1 738 1 is_stmt 0 view .LVU254
 1151              		@ sp needed
 1152 0008 10BD     		pop	{r4, pc}
 1153              		.cfi_endproc
 1154              	.LFE364:
 1156              		.section	.text.BSP_COM_DeInit,"ax",%progbits
 1157              		.align	1
 1158              		.global	BSP_COM_DeInit
 1159              		.syntax unified
 1160              		.code	16
 1161              		.thumb_func
 1163              	BSP_COM_DeInit:
 1164              	.LVL87:
 1165              	.LFB360:
 557:Drivers/BSP/STM32C0xx_Nucleo/stm32c0xx_nucleo.c ****   int32_t ret = BSP_ERROR_NONE;
 1166              		.loc 1 557 1 is_stmt 1 view -0
 1167              		.cfi_startproc
 1168              		@ args = 0, pretend = 0, frame = 0
 1169              		@ frame_needed = 0, uses_anonymous_args = 0
 557:Drivers/BSP/STM32C0xx_Nucleo/stm32c0xx_nucleo.c ****   int32_t ret = BSP_ERROR_NONE;
 1170              		.loc 1 557 1 is_stmt 0 view .LVU256
 1171 0000 10B5     		push	{r4, lr}
 1172              	.LCFI19:
 1173              		.cfi_def_cfa_offset 8
 1174              		.cfi_offset 4, -8
 1175              		.cfi_offset 14, -4
 558:Drivers/BSP/STM32C0xx_Nucleo/stm32c0xx_nucleo.c **** 
 1176              		.loc 1 558 3 is_stmt 1 view .LVU257
 1177              	.LVL88:
 560:Drivers/BSP/STM32C0xx_Nucleo/stm32c0xx_nucleo.c ****   {
 1178              		.loc 1 560 3 view .LVU258
 560:Drivers/BSP/STM32C0xx_Nucleo/stm32c0xx_nucleo.c ****   {
 1179              		.loc 1 560 6 is_stmt 0 view .LVU259
 1180 0002 0028     		cmp	r0, #0
 1181 0004 10D1     		bne	.L72
 567:Drivers/BSP/STM32C0xx_Nucleo/stm32c0xx_nucleo.c **** 
 1182              		.loc 1 567 5 is_stmt 1 view .LVU260
 567:Drivers/BSP/STM32C0xx_Nucleo/stm32c0xx_nucleo.c **** 
 1183              		.loc 1 567 40 is_stmt 0 view .LVU261
 1184 0006 8200     		lsls	r2, r0, #2
 1185 0008 0A4B     		ldr	r3, .L74
 1186 000a D258     		ldr	r2, [r2, r3]
 567:Drivers/BSP/STM32C0xx_Nucleo/stm32c0xx_nucleo.c **** 
 1187              		.loc 1 567 29 view .LVU262
 1188 000c 0A4B     		ldr	r3, .L74+4
 1189 000e 9424     		movs	r4, #148
 1190 0010 4443     		muls	r4, r0
 1191 0012 E250     		str	r2, [r4, r3]
 570:Drivers/BSP/STM32C0xx_Nucleo/stm32c0xx_nucleo.c **** #endif /* (USE_HAL_UART_REGISTER_CALLBACKS == 0) */
 1192              		.loc 1 570 5 is_stmt 1 view .LVU263
ARM GAS  C:\Users\main\AppData\Local\Temp\ccdsVh5e.s 			page 39


 1193 0014 E418     		adds	r4, r4, r3
 1194 0016 2000     		movs	r0, r4
 1195              	.LVL89:
 570:Drivers/BSP/STM32C0xx_Nucleo/stm32c0xx_nucleo.c **** #endif /* (USE_HAL_UART_REGISTER_CALLBACKS == 0) */
 1196              		.loc 1 570 5 is_stmt 0 view .LVU264
 1197 0018 FFF7FEFF 		bl	COM1_MspDeInit
 1198              	.LVL90:
 573:Drivers/BSP/STM32C0xx_Nucleo/stm32c0xx_nucleo.c ****     {
 1199              		.loc 1 573 5 is_stmt 1 view .LVU265
 573:Drivers/BSP/STM32C0xx_Nucleo/stm32c0xx_nucleo.c ****     {
 1200              		.loc 1 573 9 is_stmt 0 view .LVU266
 1201 001c 2000     		movs	r0, r4
 1202 001e FFF7FEFF 		bl	HAL_UART_DeInit
 1203              	.LVL91:
 573:Drivers/BSP/STM32C0xx_Nucleo/stm32c0xx_nucleo.c ****     {
 1204              		.loc 1 573 8 view .LVU267
 1205 0022 0028     		cmp	r0, #0
 1206 0024 03D1     		bne	.L73
 1207              	.LVL92:
 1208              	.L70:
 580:Drivers/BSP/STM32C0xx_Nucleo/stm32c0xx_nucleo.c **** 
 1209              		.loc 1 580 1 view .LVU268
 1210              		@ sp needed
 1211 0026 10BD     		pop	{r4, pc}
 1212              	.LVL93:
 1213              	.L72:
 562:Drivers/BSP/STM32C0xx_Nucleo/stm32c0xx_nucleo.c ****   }
 1214              		.loc 1 562 9 view .LVU269
 1215 0028 0220     		movs	r0, #2
 1216              	.LVL94:
 562:Drivers/BSP/STM32C0xx_Nucleo/stm32c0xx_nucleo.c ****   }
 1217              		.loc 1 562 9 view .LVU270
 1218 002a 4042     		rsbs	r0, r0, #0
 1219 002c FBE7     		b	.L70
 1220              	.L73:
 575:Drivers/BSP/STM32C0xx_Nucleo/stm32c0xx_nucleo.c ****     }
 1221              		.loc 1 575 11 view .LVU271
 1222 002e 0420     		movs	r0, #4
 1223 0030 4042     		rsbs	r0, r0, #0
 1224              	.LVL95:
 579:Drivers/BSP/STM32C0xx_Nucleo/stm32c0xx_nucleo.c **** }
 1225              		.loc 1 579 3 is_stmt 1 view .LVU272
 579:Drivers/BSP/STM32C0xx_Nucleo/stm32c0xx_nucleo.c **** }
 1226              		.loc 1 579 10 is_stmt 0 view .LVU273
 1227 0032 F8E7     		b	.L70
 1228              	.L75:
 1229              		.align	2
 1230              	.L74:
 1231 0034 00000000 		.word	.LANCHOR3
 1232 0038 00000000 		.word	hcom_uart
 1233              		.cfi_endproc
 1234              	.LFE360:
 1236              		.section	.text.MX_USART2_Init,"ax",%progbits
 1237              		.align	1
 1238              		.weak	MX_USART2_Init
 1239              		.syntax unified
 1240              		.code	16
ARM GAS  C:\Users\main\AppData\Local\Temp\ccdsVh5e.s 			page 40


 1241              		.thumb_func
 1243              	MX_USART2_Init:
 1244              	.LVL96:
 1245              	.LFB361:
 590:Drivers/BSP/STM32C0xx_Nucleo/stm32c0xx_nucleo.c ****   /* USART configuration */
 1246              		.loc 1 590 1 is_stmt 1 view -0
 1247              		.cfi_startproc
 1248              		@ args = 0, pretend = 0, frame = 0
 1249              		@ frame_needed = 0, uses_anonymous_args = 0
 590:Drivers/BSP/STM32C0xx_Nucleo/stm32c0xx_nucleo.c ****   /* USART configuration */
 1250              		.loc 1 590 1 is_stmt 0 view .LVU275
 1251 0000 10B5     		push	{r4, lr}
 1252              	.LCFI20:
 1253              		.cfi_def_cfa_offset 8
 1254              		.cfi_offset 4, -8
 1255              		.cfi_offset 14, -4
 592:Drivers/BSP/STM32C0xx_Nucleo/stm32c0xx_nucleo.c ****   huart->Init.BaudRate           = COM_Init->BaudRate;
 1256              		.loc 1 592 3 is_stmt 1 view .LVU276
 592:Drivers/BSP/STM32C0xx_Nucleo/stm32c0xx_nucleo.c ****   huart->Init.BaudRate           = COM_Init->BaudRate;
 1257              		.loc 1 592 45 is_stmt 0 view .LVU277
 1258 0002 0B4B     		ldr	r3, .L77
 1259 0004 1B68     		ldr	r3, [r3]
 1260 0006 0360     		str	r3, [r0]
 593:Drivers/BSP/STM32C0xx_Nucleo/stm32c0xx_nucleo.c ****   huart->Init.Mode               = UART_MODE_TX_RX;
 1261              		.loc 1 593 3 is_stmt 1 view .LVU278
 593:Drivers/BSP/STM32C0xx_Nucleo/stm32c0xx_nucleo.c ****   huart->Init.Mode               = UART_MODE_TX_RX;
 1262              		.loc 1 593 34 is_stmt 0 view .LVU279
 1263 0008 0B68     		ldr	r3, [r1]
 1264 000a 4360     		str	r3, [r0, #4]
 594:Drivers/BSP/STM32C0xx_Nucleo/stm32c0xx_nucleo.c ****   huart->Init.Parity             = (uint32_t)COM_Init->Parity;
 1265              		.loc 1 594 3 is_stmt 1 view .LVU280
 594:Drivers/BSP/STM32C0xx_Nucleo/stm32c0xx_nucleo.c ****   huart->Init.Parity             = (uint32_t)COM_Init->Parity;
 1266              		.loc 1 594 34 is_stmt 0 view .LVU281
 1267 000c 0C23     		movs	r3, #12
 1268 000e 4361     		str	r3, [r0, #20]
 595:Drivers/BSP/STM32C0xx_Nucleo/stm32c0xx_nucleo.c ****   huart->Init.WordLength         = (uint32_t)COM_Init->WordLength;
 1269              		.loc 1 595 3 is_stmt 1 view .LVU282
 595:Drivers/BSP/STM32C0xx_Nucleo/stm32c0xx_nucleo.c ****   huart->Init.WordLength         = (uint32_t)COM_Init->WordLength;
 1270              		.loc 1 595 54 is_stmt 0 view .LVU283
 1271 0010 4B89     		ldrh	r3, [r1, #10]
 595:Drivers/BSP/STM32C0xx_Nucleo/stm32c0xx_nucleo.c ****   huart->Init.WordLength         = (uint32_t)COM_Init->WordLength;
 1272              		.loc 1 595 34 view .LVU284
 1273 0012 0361     		str	r3, [r0, #16]
 596:Drivers/BSP/STM32C0xx_Nucleo/stm32c0xx_nucleo.c ****   huart->Init.StopBits           = (uint32_t)COM_Init->StopBits;
 1274              		.loc 1 596 3 is_stmt 1 view .LVU285
 596:Drivers/BSP/STM32C0xx_Nucleo/stm32c0xx_nucleo.c ****   huart->Init.StopBits           = (uint32_t)COM_Init->StopBits;
 1275              		.loc 1 596 34 is_stmt 0 view .LVU286
 1276 0014 4B68     		ldr	r3, [r1, #4]
 1277 0016 8360     		str	r3, [r0, #8]
 597:Drivers/BSP/STM32C0xx_Nucleo/stm32c0xx_nucleo.c ****   huart->Init.HwFlowCtl          = (uint32_t)COM_Init->HwFlowCtl;
 1278              		.loc 1 597 3 is_stmt 1 view .LVU287
 597:Drivers/BSP/STM32C0xx_Nucleo/stm32c0xx_nucleo.c ****   huart->Init.HwFlowCtl          = (uint32_t)COM_Init->HwFlowCtl;
 1279              		.loc 1 597 54 is_stmt 0 view .LVU288
 1280 0018 0B89     		ldrh	r3, [r1, #8]
 597:Drivers/BSP/STM32C0xx_Nucleo/stm32c0xx_nucleo.c ****   huart->Init.HwFlowCtl          = (uint32_t)COM_Init->HwFlowCtl;
 1281              		.loc 1 597 34 view .LVU289
 1282 001a C360     		str	r3, [r0, #12]
ARM GAS  C:\Users\main\AppData\Local\Temp\ccdsVh5e.s 			page 41


 598:Drivers/BSP/STM32C0xx_Nucleo/stm32c0xx_nucleo.c ****   huart->Init.OverSampling       = UART_OVERSAMPLING_8;
 1283              		.loc 1 598 3 is_stmt 1 view .LVU290
 598:Drivers/BSP/STM32C0xx_Nucleo/stm32c0xx_nucleo.c ****   huart->Init.OverSampling       = UART_OVERSAMPLING_8;
 1284              		.loc 1 598 54 is_stmt 0 view .LVU291
 1285 001c 8B89     		ldrh	r3, [r1, #12]
 598:Drivers/BSP/STM32C0xx_Nucleo/stm32c0xx_nucleo.c ****   huart->Init.OverSampling       = UART_OVERSAMPLING_8;
 1286              		.loc 1 598 34 view .LVU292
 1287 001e 8361     		str	r3, [r0, #24]
 599:Drivers/BSP/STM32C0xx_Nucleo/stm32c0xx_nucleo.c ****   huart->Init.ClockPrescaler     = UART_PRESCALER_DIV1;
 1288              		.loc 1 599 3 is_stmt 1 view .LVU293
 599:Drivers/BSP/STM32C0xx_Nucleo/stm32c0xx_nucleo.c ****   huart->Init.ClockPrescaler     = UART_PRESCALER_DIV1;
 1289              		.loc 1 599 34 is_stmt 0 view .LVU294
 1290 0020 8023     		movs	r3, #128
 1291 0022 1B02     		lsls	r3, r3, #8
 1292 0024 C361     		str	r3, [r0, #28]
 600:Drivers/BSP/STM32C0xx_Nucleo/stm32c0xx_nucleo.c ****   return HAL_UART_Init(huart);
 1293              		.loc 1 600 3 is_stmt 1 view .LVU295
 600:Drivers/BSP/STM32C0xx_Nucleo/stm32c0xx_nucleo.c ****   return HAL_UART_Init(huart);
 1294              		.loc 1 600 34 is_stmt 0 view .LVU296
 1295 0026 0023     		movs	r3, #0
 1296 0028 4362     		str	r3, [r0, #36]
 601:Drivers/BSP/STM32C0xx_Nucleo/stm32c0xx_nucleo.c **** }
 1297              		.loc 1 601 3 is_stmt 1 view .LVU297
 601:Drivers/BSP/STM32C0xx_Nucleo/stm32c0xx_nucleo.c **** }
 1298              		.loc 1 601 10 is_stmt 0 view .LVU298
 1299 002a FFF7FEFF 		bl	HAL_UART_Init
 1300              	.LVL97:
 602:Drivers/BSP/STM32C0xx_Nucleo/stm32c0xx_nucleo.c **** 
 1301              		.loc 1 602 1 view .LVU299
 1302              		@ sp needed
 1303 002e 10BD     		pop	{r4, pc}
 1304              	.L78:
 1305              		.align	2
 1306              	.L77:
 1307 0030 00000000 		.word	.LANCHOR3
 1308              		.cfi_endproc
 1309              	.LFE361:
 1311              		.section	.text.BSP_COM_Init,"ax",%progbits
 1312              		.align	1
 1313              		.global	BSP_COM_Init
 1314              		.syntax unified
 1315              		.code	16
 1316              		.thumb_func
 1318              	BSP_COM_Init:
 1319              	.LVL98:
 1320              	.LFB359:
 519:Drivers/BSP/STM32C0xx_Nucleo/stm32c0xx_nucleo.c ****   int32_t ret = BSP_ERROR_NONE;
 1321              		.loc 1 519 1 is_stmt 1 view -0
 1322              		.cfi_startproc
 1323              		@ args = 0, pretend = 0, frame = 0
 1324              		@ frame_needed = 0, uses_anonymous_args = 0
 519:Drivers/BSP/STM32C0xx_Nucleo/stm32c0xx_nucleo.c ****   int32_t ret = BSP_ERROR_NONE;
 1325              		.loc 1 519 1 is_stmt 0 view .LVU301
 1326 0000 70B5     		push	{r4, r5, r6, lr}
 1327              	.LCFI21:
 1328              		.cfi_def_cfa_offset 16
 1329              		.cfi_offset 4, -16
ARM GAS  C:\Users\main\AppData\Local\Temp\ccdsVh5e.s 			page 42


 1330              		.cfi_offset 5, -12
 1331              		.cfi_offset 6, -8
 1332              		.cfi_offset 14, -4
 1333 0002 0D00     		movs	r5, r1
 520:Drivers/BSP/STM32C0xx_Nucleo/stm32c0xx_nucleo.c **** 
 1334              		.loc 1 520 3 is_stmt 1 view .LVU302
 1335              	.LVL99:
 522:Drivers/BSP/STM32C0xx_Nucleo/stm32c0xx_nucleo.c ****   {
 1336              		.loc 1 522 3 view .LVU303
 522:Drivers/BSP/STM32C0xx_Nucleo/stm32c0xx_nucleo.c ****   {
 1337              		.loc 1 522 6 is_stmt 0 view .LVU304
 1338 0004 0028     		cmp	r0, #0
 1339 0006 0DD1     		bne	.L81
 530:Drivers/BSP/STM32C0xx_Nucleo/stm32c0xx_nucleo.c **** #else
 1340              		.loc 1 530 5 is_stmt 1 view .LVU305
 1341 0008 9424     		movs	r4, #148
 1342 000a 4443     		muls	r4, r0
 1343 000c 0848     		ldr	r0, .L83
 1344              	.LVL100:
 530:Drivers/BSP/STM32C0xx_Nucleo/stm32c0xx_nucleo.c **** #else
 1345              		.loc 1 530 5 is_stmt 0 view .LVU306
 1346 000e 2418     		adds	r4, r4, r0
 1347 0010 2000     		movs	r0, r4
 1348 0012 FFF7FEFF 		bl	COM1_MspInit
 1349              	.LVL101:
 541:Drivers/BSP/STM32C0xx_Nucleo/stm32c0xx_nucleo.c ****     {
 1350              		.loc 1 541 5 is_stmt 1 view .LVU307
 541:Drivers/BSP/STM32C0xx_Nucleo/stm32c0xx_nucleo.c ****     {
 1351              		.loc 1 541 9 is_stmt 0 view .LVU308
 1352 0016 2900     		movs	r1, r5
 1353 0018 2000     		movs	r0, r4
 1354 001a FFF7FEFF 		bl	MX_USART2_Init
 1355              	.LVL102:
 541:Drivers/BSP/STM32C0xx_Nucleo/stm32c0xx_nucleo.c ****     {
 1356              		.loc 1 541 8 view .LVU309
 1357 001e 0028     		cmp	r0, #0
 1358 0020 03D1     		bne	.L82
 1359              	.LVL103:
 1360              	.L79:
 548:Drivers/BSP/STM32C0xx_Nucleo/stm32c0xx_nucleo.c **** 
 1361              		.loc 1 548 1 view .LVU310
 1362              		@ sp needed
 1363              	.LVL104:
 548:Drivers/BSP/STM32C0xx_Nucleo/stm32c0xx_nucleo.c **** 
 1364              		.loc 1 548 1 view .LVU311
 1365 0022 70BD     		pop	{r4, r5, r6, pc}
 1366              	.LVL105:
 1367              	.L81:
 524:Drivers/BSP/STM32C0xx_Nucleo/stm32c0xx_nucleo.c ****   }
 1368              		.loc 1 524 9 view .LVU312
 1369 0024 0220     		movs	r0, #2
 1370              	.LVL106:
 524:Drivers/BSP/STM32C0xx_Nucleo/stm32c0xx_nucleo.c ****   }
 1371              		.loc 1 524 9 view .LVU313
 1372 0026 4042     		rsbs	r0, r0, #0
 1373 0028 FBE7     		b	.L79
 1374              	.LVL107:
ARM GAS  C:\Users\main\AppData\Local\Temp\ccdsVh5e.s 			page 43


 1375              	.L82:
 543:Drivers/BSP/STM32C0xx_Nucleo/stm32c0xx_nucleo.c ****     }
 1376              		.loc 1 543 11 view .LVU314
 1377 002a 0420     		movs	r0, #4
 1378 002c 4042     		rsbs	r0, r0, #0
 1379              	.LVL108:
 547:Drivers/BSP/STM32C0xx_Nucleo/stm32c0xx_nucleo.c **** }
 1380              		.loc 1 547 3 is_stmt 1 view .LVU315
 547:Drivers/BSP/STM32C0xx_Nucleo/stm32c0xx_nucleo.c **** }
 1381              		.loc 1 547 10 is_stmt 0 view .LVU316
 1382 002e F8E7     		b	.L79
 1383              	.L84:
 1384              		.align	2
 1385              	.L83:
 1386 0030 00000000 		.word	hcom_uart
 1387              		.cfi_endproc
 1388              	.LFE359:
 1390              		.section	.text.BSP_COM_SelectLogPort,"ax",%progbits
 1391              		.align	1
 1392              		.global	BSP_COM_SelectLogPort
 1393              		.syntax unified
 1394              		.code	16
 1395              		.thumb_func
 1397              	BSP_COM_SelectLogPort:
 1398              	.LVL109:
 1399              	.LFB362:
 688:Drivers/BSP/STM32C0xx_Nucleo/stm32c0xx_nucleo.c ****   if (COM_ActiveLogPort != COM)
 1400              		.loc 1 688 1 is_stmt 1 view -0
 1401              		.cfi_startproc
 1402              		@ args = 0, pretend = 0, frame = 0
 1403              		@ frame_needed = 0, uses_anonymous_args = 0
 1404              		@ link register save eliminated.
 689:Drivers/BSP/STM32C0xx_Nucleo/stm32c0xx_nucleo.c ****   {
 1405              		.loc 1 689 3 view .LVU318
 689:Drivers/BSP/STM32C0xx_Nucleo/stm32c0xx_nucleo.c ****   {
 1406              		.loc 1 689 25 is_stmt 0 view .LVU319
 1407 0000 034B     		ldr	r3, .L87
 1408 0002 1B78     		ldrb	r3, [r3]
 689:Drivers/BSP/STM32C0xx_Nucleo/stm32c0xx_nucleo.c ****   {
 1409              		.loc 1 689 6 view .LVU320
 1410 0004 8342     		cmp	r3, r0
 1411 0006 01D0     		beq	.L86
 691:Drivers/BSP/STM32C0xx_Nucleo/stm32c0xx_nucleo.c ****   }
 1412              		.loc 1 691 5 is_stmt 1 view .LVU321
 691:Drivers/BSP/STM32C0xx_Nucleo/stm32c0xx_nucleo.c ****   }
 1413              		.loc 1 691 23 is_stmt 0 view .LVU322
 1414 0008 014B     		ldr	r3, .L87
 1415 000a 1870     		strb	r0, [r3]
 1416              	.L86:
 693:Drivers/BSP/STM32C0xx_Nucleo/stm32c0xx_nucleo.c **** }
 1417              		.loc 1 693 3 is_stmt 1 view .LVU323
 694:Drivers/BSP/STM32C0xx_Nucleo/stm32c0xx_nucleo.c **** 
 1418              		.loc 1 694 1 is_stmt 0 view .LVU324
 1419 000c 0020     		movs	r0, #0
 1420              	.LVL110:
 694:Drivers/BSP/STM32C0xx_Nucleo/stm32c0xx_nucleo.c **** 
 1421              		.loc 1 694 1 view .LVU325
ARM GAS  C:\Users\main\AppData\Local\Temp\ccdsVh5e.s 			page 44


 1422              		@ sp needed
 1423 000e 7047     		bx	lr
 1424              	.L88:
 1425              		.align	2
 1426              	.L87:
 1427 0010 00000000 		.word	.LANCHOR4
 1428              		.cfi_endproc
 1429              	.LFE362:
 1431              		.section	.text.__io_putchar,"ax",%progbits
 1432              		.align	1
 1433              		.global	__io_putchar
 1434              		.syntax unified
 1435              		.code	16
 1436              		.thumb_func
 1438              	__io_putchar:
 1439              	.LVL111:
 1440              	.LFB363:
 716:Drivers/BSP/STM32C0xx_Nucleo/stm32c0xx_nucleo.c ****   HAL_UART_Transmit(&hcom_uart [COM_ActiveLogPort], (uint8_t *) &ch, 1, COM_POLL_TIMEOUT);
 1441              		.loc 1 716 1 is_stmt 1 view -0
 1442              		.cfi_startproc
 1443              		@ args = 0, pretend = 0, frame = 8
 1444              		@ frame_needed = 0, uses_anonymous_args = 0
 716:Drivers/BSP/STM32C0xx_Nucleo/stm32c0xx_nucleo.c ****   HAL_UART_Transmit(&hcom_uart [COM_ActiveLogPort], (uint8_t *) &ch, 1, COM_POLL_TIMEOUT);
 1445              		.loc 1 716 1 is_stmt 0 view .LVU327
 1446 0000 00B5     		push	{lr}
 1447              	.LCFI22:
 1448              		.cfi_def_cfa_offset 4
 1449              		.cfi_offset 14, -4
 1450 0002 83B0     		sub	sp, sp, #12
 1451              	.LCFI23:
 1452              		.cfi_def_cfa_offset 16
 1453 0004 0190     		str	r0, [sp, #4]
 717:Drivers/BSP/STM32C0xx_Nucleo/stm32c0xx_nucleo.c ****   return ch;
 1454              		.loc 1 717 3 is_stmt 1 view .LVU328
 717:Drivers/BSP/STM32C0xx_Nucleo/stm32c0xx_nucleo.c ****   return ch;
 1455              		.loc 1 717 32 is_stmt 0 view .LVU329
 1456 0006 074B     		ldr	r3, .L90
 1457 0008 1A78     		ldrb	r2, [r3]
 717:Drivers/BSP/STM32C0xx_Nucleo/stm32c0xx_nucleo.c ****   return ch;
 1458              		.loc 1 717 3 view .LVU330
 1459 000a FA23     		movs	r3, #250
 1460 000c 9420     		movs	r0, #148
 1461              	.LVL112:
 717:Drivers/BSP/STM32C0xx_Nucleo/stm32c0xx_nucleo.c ****   return ch;
 1462              		.loc 1 717 3 view .LVU331
 1463 000e 5043     		muls	r0, r2
 1464 0010 054A     		ldr	r2, .L90+4
 1465 0012 8018     		adds	r0, r0, r2
 1466 0014 9B00     		lsls	r3, r3, #2
 1467 0016 0122     		movs	r2, #1
 1468 0018 01A9     		add	r1, sp, #4
 1469              	.LVL113:
 717:Drivers/BSP/STM32C0xx_Nucleo/stm32c0xx_nucleo.c ****   return ch;
 1470              		.loc 1 717 3 view .LVU332
 1471 001a FFF7FEFF 		bl	HAL_UART_Transmit
 1472              	.LVL114:
 718:Drivers/BSP/STM32C0xx_Nucleo/stm32c0xx_nucleo.c **** }
ARM GAS  C:\Users\main\AppData\Local\Temp\ccdsVh5e.s 			page 45


 1473              		.loc 1 718 3 is_stmt 1 view .LVU333
 719:Drivers/BSP/STM32C0xx_Nucleo/stm32c0xx_nucleo.c **** 
 1474              		.loc 1 719 1 is_stmt 0 view .LVU334
 1475 001e 0198     		ldr	r0, [sp, #4]
 1476 0020 03B0     		add	sp, sp, #12
 1477              		@ sp needed
 1478 0022 00BD     		pop	{pc}
 1479              	.L91:
 1480              		.align	2
 1481              	.L90:
 1482 0024 00000000 		.word	.LANCHOR4
 1483 0028 00000000 		.word	hcom_uart
 1484              		.cfi_endproc
 1485              	.LFE363:
 1487              		.global	COM_USART
 1488              		.global	hcom_uart
 1489              		.global	hpb_exti
 1490              		.section	.bss.COM_ActiveLogPort,"aw",%nobits
 1491              		.set	.LANCHOR4,. + 0
 1494              	COM_ActiveLogPort:
 1495 0000 00       		.space	1
 1496              		.section	.bss.hcom_uart,"aw",%nobits
 1497              		.align	2
 1500              	hcom_uart:
 1501 0000 00000000 		.space	148
 1501      00000000 
 1501      00000000 
 1501      00000000 
 1501      00000000 
 1502              		.section	.bss.hpb_exti,"aw",%nobits
 1503              		.align	2
 1504              		.set	.LANCHOR2,. + 0
 1507              	hpb_exti:
 1508 0000 00000000 		.space	12
 1508      00000000 
 1508      00000000 
 1509              		.section	.data.COM_USART,"aw"
 1510              		.align	2
 1511              		.set	.LANCHOR3,. + 0
 1514              	COM_USART:
 1515 0000 00440040 		.word	1073759232
 1516              		.section	.rodata.LED_PIN,"a"
 1517              		.align	2
 1518              		.set	.LANCHOR0,. + 0
 1521              	LED_PIN:
 1522 0000 2000     		.short	32
 1523 0002 0002     		.short	512
 1524              		.section	.rodata.LED_PORT,"a"
 1525              		.align	2
 1526              		.set	.LANCHOR1,. + 0
 1529              	LED_PORT:
 1530 0000 00000050 		.word	1342177280
 1531 0004 00080050 		.word	1342179328
 1532              		.text
 1533              	.Letext0:
 1534              		.file 2 "Drivers/CMSIS/Device/ST/STM32C0xx/Include/stm32c031xx.h"
 1535              		.file 3 "c:\\program files (x86)\\gnu arm embedded toolchain\\10 2021.10\\arm-none-eabi\\include\\
ARM GAS  C:\Users\main\AppData\Local\Temp\ccdsVh5e.s 			page 46


 1536              		.file 4 "c:\\program files (x86)\\gnu arm embedded toolchain\\10 2021.10\\arm-none-eabi\\include\\
 1537              		.file 5 "Drivers/STM32C0xx_HAL_Driver/Inc/stm32c0xx_hal_def.h"
 1538              		.file 6 "Drivers/STM32C0xx_HAL_Driver/Inc/stm32c0xx_hal_gpio.h"
 1539              		.file 7 "Drivers/STM32C0xx_HAL_Driver/Inc/stm32c0xx_hal_dma.h"
 1540              		.file 8 "Drivers/STM32C0xx_HAL_Driver/Inc/stm32c0xx_hal_exti.h"
 1541              		.file 9 "Drivers/STM32C0xx_HAL_Driver/Inc/stm32c0xx_hal_uart.h"
 1542              		.file 10 "Drivers/BSP/STM32C0xx_Nucleo/stm32c0xx_nucleo.h"
 1543              		.file 11 "Drivers/STM32C0xx_HAL_Driver/Inc/stm32c0xx_hal_cortex.h"
ARM GAS  C:\Users\main\AppData\Local\Temp\ccdsVh5e.s 			page 47

