ARM GAS  C:\Users\main\AppData\Local\Temp\ccv5N3Ug.s 			page 1


   1              		.cpu cortex-m0plus
   2              		.arch armv6s-m
   3              		.fpu softvfp
   4              		.eabi_attribute 20, 1
   5              		.eabi_attribute 21, 1
   6              		.eabi_attribute 23, 3
   7              		.eabi_attribute 24, 1
   8              		.eabi_attribute 25, 1
   9              		.eabi_attribute 26, 1
  10              		.eabi_attribute 30, 1
  11              		.eabi_attribute 34, 0
  12              		.eabi_attribute 18, 4
  13              		.file	"app_freertos.c"
  14              		.text
  15              	.Ltext0:
  16              		.cfi_sections	.debug_frame
  17              		.section	.text.StartDefaultTask,"ax",%progbits
  18              		.align	1
  19              		.global	StartDefaultTask
  20              		.syntax unified
  21              		.code	16
  22              		.thumb_func
  24              	StartDefaultTask:
  25              	.LFB219:
  26              		.file 1 "Core/Src/app_freertos.c"
   1:Core/Src/app_freertos.c **** /* USER CODE BEGIN Header */
   2:Core/Src/app_freertos.c **** /**
   3:Core/Src/app_freertos.c ****   ******************************************************************************
   4:Core/Src/app_freertos.c ****   * File Name          : app_freertos.c
   5:Core/Src/app_freertos.c ****   * Description        : FreeRTOS applicative file
   6:Core/Src/app_freertos.c ****   ******************************************************************************
   7:Core/Src/app_freertos.c ****   * @attention
   8:Core/Src/app_freertos.c ****   *
   9:Core/Src/app_freertos.c ****   * Copyright (c) 2025 STMicroelectronics.
  10:Core/Src/app_freertos.c ****   * All rights reserved.
  11:Core/Src/app_freertos.c ****   *
  12:Core/Src/app_freertos.c ****   * This software is licensed under terms that can be found in the LICENSE file
  13:Core/Src/app_freertos.c ****   * in the root directory of this software component.
  14:Core/Src/app_freertos.c ****   * If no LICENSE file comes with this software, it is provided AS-IS.
  15:Core/Src/app_freertos.c ****   *
  16:Core/Src/app_freertos.c ****   ******************************************************************************
  17:Core/Src/app_freertos.c ****   */
  18:Core/Src/app_freertos.c **** /* USER CODE END Header */
  19:Core/Src/app_freertos.c **** 
  20:Core/Src/app_freertos.c **** /* Includes ------------------------------------------------------------------*/
  21:Core/Src/app_freertos.c **** #include "app_freertos.h"
  22:Core/Src/app_freertos.c **** 
  23:Core/Src/app_freertos.c **** /* Private includes ----------------------------------------------------------*/
  24:Core/Src/app_freertos.c **** /* USER CODE BEGIN Includes */
  25:Core/Src/app_freertos.c **** #include "lcd.h"
  26:Core/Src/app_freertos.c **** #include <stdlib.h>
  27:Core/Src/app_freertos.c **** /* USER CODE END Includes */
  28:Core/Src/app_freertos.c **** 
  29:Core/Src/app_freertos.c **** /* Private typedef -----------------------------------------------------------*/
  30:Core/Src/app_freertos.c **** /* USER CODE BEGIN PTD */
  31:Core/Src/app_freertos.c **** 
  32:Core/Src/app_freertos.c **** /* USER CODE END PTD */
ARM GAS  C:\Users\main\AppData\Local\Temp\ccv5N3Ug.s 			page 2


  33:Core/Src/app_freertos.c **** 
  34:Core/Src/app_freertos.c **** /* Private define ------------------------------------------------------------*/
  35:Core/Src/app_freertos.c **** /* USER CODE BEGIN PD */
  36:Core/Src/app_freertos.c **** 
  37:Core/Src/app_freertos.c **** /* USER CODE END PD */
  38:Core/Src/app_freertos.c **** 
  39:Core/Src/app_freertos.c **** /* Private macro -------------------------------------------------------------*/
  40:Core/Src/app_freertos.c **** /* USER CODE BEGIN PM */
  41:Core/Src/app_freertos.c **** 
  42:Core/Src/app_freertos.c **** /* USER CODE END PM */
  43:Core/Src/app_freertos.c **** 
  44:Core/Src/app_freertos.c **** /* Private variables ---------------------------------------------------------*/
  45:Core/Src/app_freertos.c **** /* USER CODE BEGIN Variables */
  46:Core/Src/app_freertos.c **** extern uint8_t toggle;
  47:Core/Src/app_freertos.c **** extern uint32_t sharedNumber;
  48:Core/Src/app_freertos.c **** /* USER CODE END Variables */
  49:Core/Src/app_freertos.c **** /* Definitions for defaultTask */
  50:Core/Src/app_freertos.c **** osThreadId_t defaultTaskHandle;
  51:Core/Src/app_freertos.c **** const osThreadAttr_t defaultTask_attributes = {
  52:Core/Src/app_freertos.c ****   .name = "defaultTask",
  53:Core/Src/app_freertos.c ****   .priority = (osPriority_t) osPriorityNormal,
  54:Core/Src/app_freertos.c ****   .stack_size = 128 * 4
  55:Core/Src/app_freertos.c **** };
  56:Core/Src/app_freertos.c **** /* Definitions for myTask02 */
  57:Core/Src/app_freertos.c **** osThreadId_t myTask02Handle;
  58:Core/Src/app_freertos.c **** const osThreadAttr_t myTask02_attributes = {
  59:Core/Src/app_freertos.c ****   .name = "myTask02",
  60:Core/Src/app_freertos.c ****   .priority = (osPriority_t) osPriorityLow,
  61:Core/Src/app_freertos.c ****   .stack_size = 128 * 4
  62:Core/Src/app_freertos.c **** };
  63:Core/Src/app_freertos.c **** /* Definitions for myTask03 */
  64:Core/Src/app_freertos.c **** osThreadId_t myTask03Handle;
  65:Core/Src/app_freertos.c **** const osThreadAttr_t myTask03_attributes = {
  66:Core/Src/app_freertos.c ****   .name = "myTask03",
  67:Core/Src/app_freertos.c ****   .priority = (osPriority_t) osPriorityLow,
  68:Core/Src/app_freertos.c ****   .stack_size = 128 * 4
  69:Core/Src/app_freertos.c **** };
  70:Core/Src/app_freertos.c **** 
  71:Core/Src/app_freertos.c **** /* Private function prototypes -----------------------------------------------*/
  72:Core/Src/app_freertos.c **** /* USER CODE BEGIN FunctionPrototypes */
  73:Core/Src/app_freertos.c **** 
  74:Core/Src/app_freertos.c **** /* USER CODE END FunctionPrototypes */
  75:Core/Src/app_freertos.c **** 
  76:Core/Src/app_freertos.c **** /**
  77:Core/Src/app_freertos.c ****   * @brief  FreeRTOS initialization
  78:Core/Src/app_freertos.c ****   * @param  None
  79:Core/Src/app_freertos.c ****   * @retval None
  80:Core/Src/app_freertos.c ****   */
  81:Core/Src/app_freertos.c **** void MX_FREERTOS_Init(void) {
  82:Core/Src/app_freertos.c ****   /* USER CODE BEGIN Init */
  83:Core/Src/app_freertos.c **** 
  84:Core/Src/app_freertos.c ****   /* USER CODE END Init */
  85:Core/Src/app_freertos.c **** 
  86:Core/Src/app_freertos.c ****   /* USER CODE BEGIN RTOS_MUTEX */
  87:Core/Src/app_freertos.c ****   /* add mutexes, ... */
  88:Core/Src/app_freertos.c ****   /* USER CODE END RTOS_MUTEX */
  89:Core/Src/app_freertos.c **** 
ARM GAS  C:\Users\main\AppData\Local\Temp\ccv5N3Ug.s 			page 3


  90:Core/Src/app_freertos.c ****   /* USER CODE BEGIN RTOS_SEMAPHORES */
  91:Core/Src/app_freertos.c ****   /* add semaphores, ... */
  92:Core/Src/app_freertos.c ****   /* USER CODE END RTOS_SEMAPHORES */
  93:Core/Src/app_freertos.c **** 
  94:Core/Src/app_freertos.c ****   /* USER CODE BEGIN RTOS_TIMERS */
  95:Core/Src/app_freertos.c ****   /* start timers, add new ones, ... */
  96:Core/Src/app_freertos.c ****   /* USER CODE END RTOS_TIMERS */
  97:Core/Src/app_freertos.c **** 
  98:Core/Src/app_freertos.c ****   /* USER CODE BEGIN RTOS_QUEUES */
  99:Core/Src/app_freertos.c ****   /* add queues, ... */
 100:Core/Src/app_freertos.c ****   /* USER CODE END RTOS_QUEUES */
 101:Core/Src/app_freertos.c ****   /* creation of defaultTask */
 102:Core/Src/app_freertos.c ****   defaultTaskHandle = osThreadNew(StartDefaultTask, NULL, &defaultTask_attributes);
 103:Core/Src/app_freertos.c **** 
 104:Core/Src/app_freertos.c ****   /* creation of myTask02 */
 105:Core/Src/app_freertos.c ****   myTask02Handle = osThreadNew(StartTask02, NULL, &myTask02_attributes);
 106:Core/Src/app_freertos.c **** 
 107:Core/Src/app_freertos.c ****   /* creation of myTask03 */
 108:Core/Src/app_freertos.c ****   myTask03Handle = osThreadNew(StartTask03, NULL, &myTask03_attributes);
 109:Core/Src/app_freertos.c **** 
 110:Core/Src/app_freertos.c ****   /* USER CODE BEGIN RTOS_THREADS */
 111:Core/Src/app_freertos.c ****   /* add threads, ... */
 112:Core/Src/app_freertos.c ****   /* USER CODE END RTOS_THREADS */
 113:Core/Src/app_freertos.c **** 
 114:Core/Src/app_freertos.c ****   /* USER CODE BEGIN RTOS_EVENTS */
 115:Core/Src/app_freertos.c ****   /* add events, ... */
 116:Core/Src/app_freertos.c ****   /* USER CODE END RTOS_EVENTS */
 117:Core/Src/app_freertos.c **** 
 118:Core/Src/app_freertos.c **** }
 119:Core/Src/app_freertos.c **** /* USER CODE BEGIN Header_StartDefaultTask */
 120:Core/Src/app_freertos.c **** /**
 121:Core/Src/app_freertos.c **** * @brief Function implementing the defaultTask thread.
 122:Core/Src/app_freertos.c **** * @param argument: Not used
 123:Core/Src/app_freertos.c **** * @retval None
 124:Core/Src/app_freertos.c **** */
 125:Core/Src/app_freertos.c **** /* USER CODE END Header_StartDefaultTask */
 126:Core/Src/app_freertos.c **** void StartDefaultTask(void *argument)
 127:Core/Src/app_freertos.c **** {
  27              		.loc 1 127 1 view -0
  28              		.cfi_startproc
  29              		@ Volatile: function does not return.
  30              		@ args = 0, pretend = 0, frame = 0
  31              		@ frame_needed = 0, uses_anonymous_args = 0
  32              	.LVL0:
  33              		.loc 1 127 1 is_stmt 0 view .LVU1
  34 0000 10B5     		push	{r4, lr}
  35              	.LCFI0:
  36              		.cfi_def_cfa_offset 8
  37              		.cfi_offset 4, -8
  38              		.cfi_offset 14, -4
  39              	.LVL1:
  40              	.L2:
 128:Core/Src/app_freertos.c ****   /* USER CODE BEGIN defaultTask */
 129:Core/Src/app_freertos.c ****   /* Infinite loop */
 130:Core/Src/app_freertos.c ****   for(;;)
  41              		.loc 1 130 3 is_stmt 1 discriminator 1 view .LVU2
 131:Core/Src/app_freertos.c ****   {
ARM GAS  C:\Users\main\AppData\Local\Temp\ccv5N3Ug.s 			page 4


 132:Core/Src/app_freertos.c ****     osDelay(1000);
  42              		.loc 1 132 5 discriminator 1 view .LVU3
  43 0002 FA20     		movs	r0, #250
  44 0004 8000     		lsls	r0, r0, #2
  45 0006 FFF7FEFF 		bl	osDelay
  46              	.LVL2:
 130:Core/Src/app_freertos.c ****   {
  47              		.loc 1 130 8 discriminator 1 view .LVU4
  48 000a FAE7     		b	.L2
  49              		.cfi_endproc
  50              	.LFE219:
  52              		.global	__aeabi_idivmod
  53              		.section	.text.StartTask02,"ax",%progbits
  54              		.align	1
  55              		.global	StartTask02
  56              		.syntax unified
  57              		.code	16
  58              		.thumb_func
  60              	StartTask02:
  61              	.LFB220:
 133:Core/Src/app_freertos.c ****   }
 134:Core/Src/app_freertos.c ****   /* USER CODE END defaultTask */
 135:Core/Src/app_freertos.c **** }
 136:Core/Src/app_freertos.c **** 
 137:Core/Src/app_freertos.c **** /* USER CODE BEGIN Header_StartTask02 */
 138:Core/Src/app_freertos.c **** /**
 139:Core/Src/app_freertos.c **** * @brief Function implementing the myTask02 thread.
 140:Core/Src/app_freertos.c **** * @param argument: Not used
 141:Core/Src/app_freertos.c **** * @retval None
 142:Core/Src/app_freertos.c **** */
 143:Core/Src/app_freertos.c **** /* USER CODE END Header_StartTask02 */
 144:Core/Src/app_freertos.c **** void StartTask02(void *argument)
 145:Core/Src/app_freertos.c **** {
  62              		.loc 1 145 1 view -0
  63              		.cfi_startproc
  64              		@ Volatile: function does not return.
  65              		@ args = 0, pretend = 0, frame = 0
  66              		@ frame_needed = 0, uses_anonymous_args = 0
  67              	.LVL3:
  68              		.loc 1 145 1 is_stmt 0 view .LVU6
  69 0000 10B5     		push	{r4, lr}
  70              	.LCFI1:
  71              		.cfi_def_cfa_offset 8
  72              		.cfi_offset 4, -8
  73              		.cfi_offset 14, -4
  74 0002 0DE0     		b	.L5
  75              	.LVL4:
  76              	.L6:
 146:Core/Src/app_freertos.c ****   /* USER CODE BEGIN myTask02 */
 147:Core/Src/app_freertos.c ****   for(;;){
 148:Core/Src/app_freertos.c ****     if (toggle)  // Якщо процес активний
 149:Core/Src/app_freertos.c ****     {
 150:Core/Src/app_freertos.c ****       sharedNumber = rand() % 100;  // Генеруємо число 0-99
  77              		.loc 1 150 7 is_stmt 1 view .LVU7
  78              		.loc 1 150 22 is_stmt 0 view .LVU8
  79 0004 FFF7FEFF 		bl	rand
  80              	.LVL5:
ARM GAS  C:\Users\main\AppData\Local\Temp\ccv5N3Ug.s 			page 5


  81              		.loc 1 150 29 view .LVU9
  82 0008 6421     		movs	r1, #100
  83 000a FFF7FEFF 		bl	__aeabi_idivmod
  84              	.LVL6:
  85              		.loc 1 150 20 view .LVU10
  86 000e 074B     		ldr	r3, .L7
  87 0010 1960     		str	r1, [r3]
 151:Core/Src/app_freertos.c ****       vTaskDelay(2000 / portTICK_PERIOD_MS);  // Чекаємо
  88              		.loc 1 151 7 is_stmt 1 view .LVU11
  89 0012 FA20     		movs	r0, #250
  90 0014 C000     		lsls	r0, r0, #3
  91 0016 FFF7FEFF 		bl	vTaskDelay
  92              	.LVL7:
  93              	.L4:
 152:Core/Src/app_freertos.c ****     }
 153:Core/Src/app_freertos.c ****     vTaskDelay(100 / portTICK_PERIOD_MS);
  94              		.loc 1 153 5 view .LVU12
  95 001a 6420     		movs	r0, #100
  96 001c FFF7FEFF 		bl	vTaskDelay
  97              	.LVL8:
 147:Core/Src/app_freertos.c ****     if (toggle)  // Якщо процес активний
  98              		.loc 1 147 8 view .LVU13
  99              	.L5:
 147:Core/Src/app_freertos.c ****     if (toggle)  // Якщо процес активний
 100              		.loc 1 147 3 view .LVU14
 148:Core/Src/app_freertos.c ****     {
 101              		.loc 1 148 5 view .LVU15
 148:Core/Src/app_freertos.c ****     {
 102              		.loc 1 148 9 is_stmt 0 view .LVU16
 103 0020 034B     		ldr	r3, .L7+4
 104 0022 1B78     		ldrb	r3, [r3]
 148:Core/Src/app_freertos.c ****     {
 105              		.loc 1 148 8 view .LVU17
 106 0024 002B     		cmp	r3, #0
 107 0026 EDD1     		bne	.L6
 108 0028 F7E7     		b	.L4
 109              	.L8:
 110 002a C046     		.align	2
 111              	.L7:
 112 002c 00000000 		.word	sharedNumber
 113 0030 00000000 		.word	toggle
 114              		.cfi_endproc
 115              	.LFE220:
 117              		.section	.rodata.StartTask03.str1.4,"aMS",%progbits,1
 118              		.align	2
 119              	.LC4:
 120 0000 256C7500 		.ascii	"%lu\000"
 121              		.section	.text.StartTask03,"ax",%progbits
 122              		.align	1
 123              		.global	StartTask03
 124              		.syntax unified
 125              		.code	16
 126              		.thumb_func
 128              	StartTask03:
 129              	.LFB221:
 154:Core/Src/app_freertos.c ****   }
 155:Core/Src/app_freertos.c ****   /* USER CODE END myTask02 */
ARM GAS  C:\Users\main\AppData\Local\Temp\ccv5N3Ug.s 			page 6


 156:Core/Src/app_freertos.c **** }
 157:Core/Src/app_freertos.c **** 
 158:Core/Src/app_freertos.c **** /* USER CODE BEGIN Header_StartTask03 */
 159:Core/Src/app_freertos.c **** /**
 160:Core/Src/app_freertos.c **** * @brief Function implementing the myTask03 thread.
 161:Core/Src/app_freertos.c **** * @param argument: Not used
 162:Core/Src/app_freertos.c **** * @retval None
 163:Core/Src/app_freertos.c **** */
 164:Core/Src/app_freertos.c **** /* USER CODE END Header_StartTask03 */
 165:Core/Src/app_freertos.c **** void StartTask03(void *argument)
 166:Core/Src/app_freertos.c **** {
 130              		.loc 1 166 1 is_stmt 1 view -0
 131              		.cfi_startproc
 132              		@ Volatile: function does not return.
 133              		@ args = 0, pretend = 0, frame = 16
 134              		@ frame_needed = 0, uses_anonymous_args = 0
 135              	.LVL9:
 136              		.loc 1 166 1 is_stmt 0 view .LVU19
 137 0000 10B5     		push	{r4, lr}
 138              	.LCFI2:
 139              		.cfi_def_cfa_offset 8
 140              		.cfi_offset 4, -8
 141              		.cfi_offset 14, -4
 142 0002 84B0     		sub	sp, sp, #16
 143              	.LCFI3:
 144              		.cfi_def_cfa_offset 24
 145 0004 1BE0     		b	.L14
 146              	.LVL10:
 147              	.L11:
 167:Core/Src/app_freertos.c ****   /* USER CODE BEGIN myTask03 */
 168:Core/Src/app_freertos.c ****   char buffer[16];
 169:Core/Src/app_freertos.c ****   for(;;)
 170:Core/Src/app_freertos.c ****     {
 171:Core/Src/app_freertos.c ****         if (toggle)  // Якщо процес активний
 172:Core/Src/app_freertos.c ****         {
 173:Core/Src/app_freertos.c ****             if (sharedNumber % 2 == 0)  
 174:Core/Src/app_freertos.c ****             {
 175:Core/Src/app_freertos.c ****                 HAL_GPIO_WritePin(GPIOA, GPIO_PIN_11, GPIO_PIN_SET);
 176:Core/Src/app_freertos.c ****                 HAL_GPIO_WritePin(GPIOA, GPIO_PIN_12, GPIO_PIN_RESET);
 177:Core/Src/app_freertos.c ****             } 
 178:Core/Src/app_freertos.c ****             else  
 179:Core/Src/app_freertos.c ****             {
 180:Core/Src/app_freertos.c ****                 HAL_GPIO_WritePin(GPIOA, GPIO_PIN_12, GPIO_PIN_SET);
 148              		.loc 1 180 17 is_stmt 1 view .LVU20
 149 0006 8021     		movs	r1, #128
 150 0008 A024     		movs	r4, #160
 151 000a E405     		lsls	r4, r4, #23
 152 000c 0122     		movs	r2, #1
 153 000e 4901     		lsls	r1, r1, #5
 154 0010 2000     		movs	r0, r4
 155 0012 FFF7FEFF 		bl	HAL_GPIO_WritePin
 156              	.LVL11:
 181:Core/Src/app_freertos.c ****                 HAL_GPIO_WritePin(GPIOA, GPIO_PIN_11, GPIO_PIN_RESET);
 157              		.loc 1 181 17 view .LVU21
 158 0016 8021     		movs	r1, #128
 159 0018 0022     		movs	r2, #0
 160 001a 0901     		lsls	r1, r1, #4
ARM GAS  C:\Users\main\AppData\Local\Temp\ccv5N3Ug.s 			page 7


 161 001c 2000     		movs	r0, r4
 162 001e FFF7FEFF 		bl	HAL_GPIO_WritePin
 163              	.LVL12:
 164              	.L12:
 182:Core/Src/app_freertos.c ****             }
 183:Core/Src/app_freertos.c **** 
 184:Core/Src/app_freertos.c ****             snprintf(buffer, sizeof(buffer), "%lu", sharedNumber);
 165              		.loc 1 184 13 view .LVU22
 166 0022 1A4B     		ldr	r3, .L15
 167 0024 1B68     		ldr	r3, [r3]
 168 0026 1A4A     		ldr	r2, .L15+4
 169 0028 1021     		movs	r1, #16
 170 002a 6846     		mov	r0, sp
 171 002c FFF7FEFF 		bl	snprintf
 172              	.LVL13:
 185:Core/Src/app_freertos.c ****             lcd_print(buffer);
 173              		.loc 1 185 13 view .LVU23
 174 0030 6846     		mov	r0, sp
 175 0032 FFF7FEFF 		bl	lcd_print
 176              	.LVL14:
 177              	.L13:
 186:Core/Src/app_freertos.c ****         }
 187:Core/Src/app_freertos.c ****         else  
 188:Core/Src/app_freertos.c ****         {
 189:Core/Src/app_freertos.c ****             // Якщо toggle == 0, вимикаємо всі світлодіоди
 190:Core/Src/app_freertos.c ****             HAL_GPIO_WritePin(GPIOA, GPIO_PIN_11, GPIO_PIN_RESET);
 191:Core/Src/app_freertos.c ****             HAL_GPIO_WritePin(GPIOA, GPIO_PIN_12, GPIO_PIN_RESET);
 192:Core/Src/app_freertos.c ****         }
 193:Core/Src/app_freertos.c **** 
 194:Core/Src/app_freertos.c ****         vTaskDelay(500 / portTICK_PERIOD_MS);  // Менший delay для більш плавно
 178              		.loc 1 194 9 view .LVU24
 179 0036 FA20     		movs	r0, #250
 180 0038 4000     		lsls	r0, r0, #1
 181 003a FFF7FEFF 		bl	vTaskDelay
 182              	.LVL15:
 169:Core/Src/app_freertos.c ****     {
 183              		.loc 1 169 8 view .LVU25
 184              	.L14:
 168:Core/Src/app_freertos.c ****   for(;;)
 185              		.loc 1 168 3 view .LVU26
 169:Core/Src/app_freertos.c ****     {
 186              		.loc 1 169 3 view .LVU27
 171:Core/Src/app_freertos.c ****         {
 187              		.loc 1 171 9 view .LVU28
 171:Core/Src/app_freertos.c ****         {
 188              		.loc 1 171 13 is_stmt 0 view .LVU29
 189 003e 154B     		ldr	r3, .L15+8
 190 0040 1B78     		ldrb	r3, [r3]
 171:Core/Src/app_freertos.c ****         {
 191              		.loc 1 171 12 view .LVU30
 192 0042 002B     		cmp	r3, #0
 193 0044 12D0     		beq	.L10
 173:Core/Src/app_freertos.c ****             {
 194              		.loc 1 173 13 is_stmt 1 view .LVU31
 173:Core/Src/app_freertos.c ****             {
 195              		.loc 1 173 30 is_stmt 0 view .LVU32
 196 0046 114B     		ldr	r3, .L15
ARM GAS  C:\Users\main\AppData\Local\Temp\ccv5N3Ug.s 			page 8


 197 0048 1B68     		ldr	r3, [r3]
 173:Core/Src/app_freertos.c ****             {
 198              		.loc 1 173 16 view .LVU33
 199 004a DB07     		lsls	r3, r3, #31
 200 004c DBD4     		bmi	.L11
 175:Core/Src/app_freertos.c ****                 HAL_GPIO_WritePin(GPIOA, GPIO_PIN_12, GPIO_PIN_RESET);
 201              		.loc 1 175 17 is_stmt 1 view .LVU34
 202 004e 8021     		movs	r1, #128
 203 0050 A024     		movs	r4, #160
 204 0052 E405     		lsls	r4, r4, #23
 205 0054 0122     		movs	r2, #1
 206 0056 0901     		lsls	r1, r1, #4
 207 0058 2000     		movs	r0, r4
 208 005a FFF7FEFF 		bl	HAL_GPIO_WritePin
 209              	.LVL16:
 176:Core/Src/app_freertos.c ****             } 
 210              		.loc 1 176 17 view .LVU35
 211 005e 8021     		movs	r1, #128
 212 0060 0022     		movs	r2, #0
 213 0062 4901     		lsls	r1, r1, #5
 214 0064 2000     		movs	r0, r4
 215 0066 FFF7FEFF 		bl	HAL_GPIO_WritePin
 216              	.LVL17:
 217 006a DAE7     		b	.L12
 218              	.L10:
 190:Core/Src/app_freertos.c ****             HAL_GPIO_WritePin(GPIOA, GPIO_PIN_12, GPIO_PIN_RESET);
 219              		.loc 1 190 13 view .LVU36
 220 006c 8021     		movs	r1, #128
 221 006e A024     		movs	r4, #160
 222 0070 E405     		lsls	r4, r4, #23
 223 0072 0022     		movs	r2, #0
 224 0074 0901     		lsls	r1, r1, #4
 225 0076 2000     		movs	r0, r4
 226 0078 FFF7FEFF 		bl	HAL_GPIO_WritePin
 227              	.LVL18:
 191:Core/Src/app_freertos.c ****         }
 228              		.loc 1 191 13 view .LVU37
 229 007c 8021     		movs	r1, #128
 230 007e 0022     		movs	r2, #0
 231 0080 4901     		lsls	r1, r1, #5
 232 0082 2000     		movs	r0, r4
 233 0084 FFF7FEFF 		bl	HAL_GPIO_WritePin
 234              	.LVL19:
 235 0088 D5E7     		b	.L13
 236              	.L16:
 237 008a C046     		.align	2
 238              	.L15:
 239 008c 00000000 		.word	sharedNumber
 240 0090 00000000 		.word	.LC4
 241 0094 00000000 		.word	toggle
 242              		.cfi_endproc
 243              	.LFE221:
 245              		.section	.text.MX_FREERTOS_Init,"ax",%progbits
 246              		.align	1
 247              		.global	MX_FREERTOS_Init
 248              		.syntax unified
 249              		.code	16
ARM GAS  C:\Users\main\AppData\Local\Temp\ccv5N3Ug.s 			page 9


 250              		.thumb_func
 252              	MX_FREERTOS_Init:
 253              	.LFB218:
  81:Core/Src/app_freertos.c ****   /* USER CODE BEGIN Init */
 254              		.loc 1 81 29 view -0
 255              		.cfi_startproc
 256              		@ args = 0, pretend = 0, frame = 0
 257              		@ frame_needed = 0, uses_anonymous_args = 0
 258 0000 10B5     		push	{r4, lr}
 259              	.LCFI4:
 260              		.cfi_def_cfa_offset 8
 261              		.cfi_offset 4, -8
 262              		.cfi_offset 14, -4
 102:Core/Src/app_freertos.c **** 
 263              		.loc 1 102 3 view .LVU39
 102:Core/Src/app_freertos.c **** 
 264              		.loc 1 102 23 is_stmt 0 view .LVU40
 265 0002 0B4A     		ldr	r2, .L18
 266 0004 0021     		movs	r1, #0
 267 0006 0B48     		ldr	r0, .L18+4
 268 0008 FFF7FEFF 		bl	osThreadNew
 269              	.LVL20:
 102:Core/Src/app_freertos.c **** 
 270              		.loc 1 102 21 view .LVU41
 271 000c 0A4B     		ldr	r3, .L18+8
 272 000e 1860     		str	r0, [r3]
 105:Core/Src/app_freertos.c **** 
 273              		.loc 1 105 3 is_stmt 1 view .LVU42
 105:Core/Src/app_freertos.c **** 
 274              		.loc 1 105 20 is_stmt 0 view .LVU43
 275 0010 0A4A     		ldr	r2, .L18+12
 276 0012 0021     		movs	r1, #0
 277 0014 0A48     		ldr	r0, .L18+16
 278 0016 FFF7FEFF 		bl	osThreadNew
 279              	.LVL21:
 105:Core/Src/app_freertos.c **** 
 280              		.loc 1 105 18 view .LVU44
 281 001a 0A4B     		ldr	r3, .L18+20
 282 001c 1860     		str	r0, [r3]
 108:Core/Src/app_freertos.c **** 
 283              		.loc 1 108 3 is_stmt 1 view .LVU45
 108:Core/Src/app_freertos.c **** 
 284              		.loc 1 108 20 is_stmt 0 view .LVU46
 285 001e 0A4A     		ldr	r2, .L18+24
 286 0020 0021     		movs	r1, #0
 287 0022 0A48     		ldr	r0, .L18+28
 288 0024 FFF7FEFF 		bl	osThreadNew
 289              	.LVL22:
 108:Core/Src/app_freertos.c **** 
 290              		.loc 1 108 18 view .LVU47
 291 0028 094B     		ldr	r3, .L18+32
 292 002a 1860     		str	r0, [r3]
 118:Core/Src/app_freertos.c **** /* USER CODE BEGIN Header_StartDefaultTask */
 293              		.loc 1 118 1 view .LVU48
 294              		@ sp needed
 295 002c 10BD     		pop	{r4, pc}
 296              	.L19:
ARM GAS  C:\Users\main\AppData\Local\Temp\ccv5N3Ug.s 			page 10


 297 002e C046     		.align	2
 298              	.L18:
 299 0030 00000000 		.word	.LANCHOR0
 300 0034 00000000 		.word	StartDefaultTask
 301 0038 00000000 		.word	.LANCHOR1
 302 003c 00000000 		.word	.LANCHOR2
 303 0040 00000000 		.word	StartTask02
 304 0044 00000000 		.word	.LANCHOR3
 305 0048 00000000 		.word	.LANCHOR4
 306 004c 00000000 		.word	StartTask03
 307 0050 00000000 		.word	.LANCHOR5
 308              		.cfi_endproc
 309              	.LFE218:
 311              		.global	myTask03_attributes
 312              		.section	.rodata.str1.4,"aMS",%progbits,1
 313              		.align	2
 314              	.LC15:
 315 0000 6D795461 		.ascii	"myTask03\000"
 315      736B3033 
 315      00
 316              		.global	myTask03Handle
 317              		.global	myTask02_attributes
 318 0009 000000   		.align	2
 319              	.LC16:
 320 000c 6D795461 		.ascii	"myTask02\000"
 320      736B3032 
 320      00
 321              		.global	myTask02Handle
 322              		.global	defaultTask_attributes
 323 0015 000000   		.align	2
 324              	.LC17:
 325 0018 64656661 		.ascii	"defaultTask\000"
 325      756C7454 
 325      61736B00 
 326              		.global	defaultTaskHandle
 327              		.section	.bss.defaultTaskHandle,"aw",%nobits
 328              		.align	2
 329              		.set	.LANCHOR1,. + 0
 332              	defaultTaskHandle:
 333 0000 00000000 		.space	4
 334              		.section	.bss.myTask02Handle,"aw",%nobits
 335              		.align	2
 336              		.set	.LANCHOR3,. + 0
 339              	myTask02Handle:
 340 0000 00000000 		.space	4
 341              		.section	.bss.myTask03Handle,"aw",%nobits
 342              		.align	2
 343              		.set	.LANCHOR5,. + 0
 346              	myTask03Handle:
 347 0000 00000000 		.space	4
 348              		.section	.rodata.defaultTask_attributes,"a"
 349              		.align	2
 350              		.set	.LANCHOR0,. + 0
 353              	defaultTask_attributes:
 354 0000 18000000 		.word	.LC17
 355 0004 00000000 		.space	16
 355      00000000 
ARM GAS  C:\Users\main\AppData\Local\Temp\ccv5N3Ug.s 			page 11


 355      00000000 
 355      00000000 
 356 0014 00020000 		.word	512
 357 0018 18000000 		.word	24
 358 001c 00000000 		.space	8
 358      00000000 
 359              		.section	.rodata.myTask02_attributes,"a"
 360              		.align	2
 361              		.set	.LANCHOR2,. + 0
 364              	myTask02_attributes:
 365 0000 0C000000 		.word	.LC16
 366 0004 00000000 		.space	16
 366      00000000 
 366      00000000 
 366      00000000 
 367 0014 00020000 		.word	512
 368 0018 08000000 		.word	8
 369 001c 00000000 		.space	8
 369      00000000 
 370              		.section	.rodata.myTask03_attributes,"a"
 371              		.align	2
 372              		.set	.LANCHOR4,. + 0
 375              	myTask03_attributes:
 376 0000 00000000 		.word	.LC15
 377 0004 00000000 		.space	16
 377      00000000 
 377      00000000 
 377      00000000 
 378 0014 00020000 		.word	512
 379 0018 08000000 		.word	8
 380 001c 00000000 		.space	8
 380      00000000 
 381              		.text
 382              	.Letext0:
 383              		.file 2 "c:\\program files (x86)\\gnu arm embedded toolchain\\10 2021.10\\arm-none-eabi\\include\\
 384              		.file 3 "c:\\program files (x86)\\gnu arm embedded toolchain\\10 2021.10\\arm-none-eabi\\include\\
 385              		.file 4 "Middlewares/Third_Party/FreeRTOS/Source/portable/GCC/ARM_CM0/portmacro.h"
 386              		.file 5 "Drivers/CMSIS/Device/ST/STM32C0xx/Include/stm32c031xx.h"
 387              		.file 6 "Drivers/STM32C0xx_HAL_Driver/Inc/stm32c0xx_hal_gpio.h"
 388              		.file 7 "Middlewares/Third_Party/CMSIS/RTOS2/Include/cmsis_os2.h"
 389              		.file 8 "Core/Inc/app_freertos.h"
 390              		.file 9 "c:\\program files (x86)\\gnu arm embedded toolchain\\10 2021.10\\arm-none-eabi\\include\\
 391              		.file 10 "Core/Inc/lcd.h"
 392              		.file 11 "Middlewares/Third_Party/FreeRTOS/Source/include/task.h"
 393              		.file 12 "c:\\program files (x86)\\gnu arm embedded toolchain\\10 2021.10\\arm-none-eabi\\include\
ARM GAS  C:\Users\main\AppData\Local\Temp\ccv5N3Ug.s 			page 12

