ARM GAS  C:\Users\main\AppData\Local\Temp\ccG3Qf2n.s 			page 1


   1              		.cpu cortex-m0plus
   2              		.arch armv6s-m
   3              		.fpu softvfp
   4              		.eabi_attribute 20, 1
   5              		.eabi_attribute 21, 1
   6              		.eabi_attribute 23, 3
   7              		.eabi_attribute 24, 1
   8              		.eabi_attribute 25, 1
   9              		.eabi_attribute 26, 1
  10              		.eabi_attribute 30, 1
  11              		.eabi_attribute 34, 0
  12              		.eabi_attribute 18, 4
  13              		.file	"qf_time.c"
  14              		.text
  15              	.Ltext0:
  16              		.cfi_sections	.debug_frame
  17              		.section	.text.QTimeEvt_ctorX,"ax",%progbits
  18              		.align	1
  19              		.global	QTimeEvt_ctorX
  20              		.syntax unified
  21              		.code	16
  22              		.thumb_func
  24              	QTimeEvt_ctorX:
  25              	.LVL0:
  26              	.LFB18:
  27              		.file 1 "Middlewares/Third_Party/QuantumLeaps_RTEF_qpc/src/qf/qf_time.c"
   1:Middlewares/Third_Party/QuantumLeaps_RTEF_qpc/src/qf/qf_time.c **** //============================================================================
   2:Middlewares/Third_Party/QuantumLeaps_RTEF_qpc/src/qf/qf_time.c **** // QP/C Real-Time Embedded Framework (RTEF)
   3:Middlewares/Third_Party/QuantumLeaps_RTEF_qpc/src/qf/qf_time.c **** // Version 8.0.2
   4:Middlewares/Third_Party/QuantumLeaps_RTEF_qpc/src/qf/qf_time.c **** //
   5:Middlewares/Third_Party/QuantumLeaps_RTEF_qpc/src/qf/qf_time.c **** // Copyright (C) 2005 Quantum Leaps, LLC. All rights reserved.
   6:Middlewares/Third_Party/QuantumLeaps_RTEF_qpc/src/qf/qf_time.c **** //
   7:Middlewares/Third_Party/QuantumLeaps_RTEF_qpc/src/qf/qf_time.c **** //                    Q u a n t u m  L e a P s
   8:Middlewares/Third_Party/QuantumLeaps_RTEF_qpc/src/qf/qf_time.c **** //                    ------------------------
   9:Middlewares/Third_Party/QuantumLeaps_RTEF_qpc/src/qf/qf_time.c **** //                    Modern Embedded Software
  10:Middlewares/Third_Party/QuantumLeaps_RTEF_qpc/src/qf/qf_time.c **** //
  11:Middlewares/Third_Party/QuantumLeaps_RTEF_qpc/src/qf/qf_time.c **** // SPDX-License-Identifier: GPL-3.0-or-later OR LicenseRef-QL-commercial
  12:Middlewares/Third_Party/QuantumLeaps_RTEF_qpc/src/qf/qf_time.c **** //
  13:Middlewares/Third_Party/QuantumLeaps_RTEF_qpc/src/qf/qf_time.c **** // This software is dual-licensed under the terms of the open-source GNU
  14:Middlewares/Third_Party/QuantumLeaps_RTEF_qpc/src/qf/qf_time.c **** // General Public License (GPL) or under the terms of one of the closed-
  15:Middlewares/Third_Party/QuantumLeaps_RTEF_qpc/src/qf/qf_time.c **** // source Quantum Leaps commercial licenses.
  16:Middlewares/Third_Party/QuantumLeaps_RTEF_qpc/src/qf/qf_time.c **** //
  17:Middlewares/Third_Party/QuantumLeaps_RTEF_qpc/src/qf/qf_time.c **** // Redistributions in source code must retain this top-level comment block.
  18:Middlewares/Third_Party/QuantumLeaps_RTEF_qpc/src/qf/qf_time.c **** // Plagiarizing this software to sidestep the license obligations is illegal.
  19:Middlewares/Third_Party/QuantumLeaps_RTEF_qpc/src/qf/qf_time.c **** //
  20:Middlewares/Third_Party/QuantumLeaps_RTEF_qpc/src/qf/qf_time.c **** // NOTE:
  21:Middlewares/Third_Party/QuantumLeaps_RTEF_qpc/src/qf/qf_time.c **** // The GPL does NOT permit the incorporation of this code into proprietary
  22:Middlewares/Third_Party/QuantumLeaps_RTEF_qpc/src/qf/qf_time.c **** // programs. Please contact Quantum Leaps for commercial licensing options,
  23:Middlewares/Third_Party/QuantumLeaps_RTEF_qpc/src/qf/qf_time.c **** // which expressly supersede the GPL and are designed explicitly for
  24:Middlewares/Third_Party/QuantumLeaps_RTEF_qpc/src/qf/qf_time.c **** // closed-source distribution.
  25:Middlewares/Third_Party/QuantumLeaps_RTEF_qpc/src/qf/qf_time.c **** //
  26:Middlewares/Third_Party/QuantumLeaps_RTEF_qpc/src/qf/qf_time.c **** // Quantum Leaps contact information:
  27:Middlewares/Third_Party/QuantumLeaps_RTEF_qpc/src/qf/qf_time.c **** // <www.state-machine.com/licensing>
  28:Middlewares/Third_Party/QuantumLeaps_RTEF_qpc/src/qf/qf_time.c **** // <info@state-machine.com>
  29:Middlewares/Third_Party/QuantumLeaps_RTEF_qpc/src/qf/qf_time.c **** //============================================================================
  30:Middlewares/Third_Party/QuantumLeaps_RTEF_qpc/src/qf/qf_time.c **** #define QP_IMPL           // this is QP implementation
  31:Middlewares/Third_Party/QuantumLeaps_RTEF_qpc/src/qf/qf_time.c **** #include "qp_port.h"      // QP port
ARM GAS  C:\Users\main\AppData\Local\Temp\ccG3Qf2n.s 			page 2


  32:Middlewares/Third_Party/QuantumLeaps_RTEF_qpc/src/qf/qf_time.c **** #include "qp_pkg.h"       // QP package-scope interface
  33:Middlewares/Third_Party/QuantumLeaps_RTEF_qpc/src/qf/qf_time.c **** #include "qsafe.h"        // QP Functional Safety (FuSa) Subsystem
  34:Middlewares/Third_Party/QuantumLeaps_RTEF_qpc/src/qf/qf_time.c **** #ifdef Q_SPY              // QS software tracing enabled?
  35:Middlewares/Third_Party/QuantumLeaps_RTEF_qpc/src/qf/qf_time.c ****     #include "qs_port.h"  // QS port
  36:Middlewares/Third_Party/QuantumLeaps_RTEF_qpc/src/qf/qf_time.c ****     #include "qs_pkg.h"   // QS facilities for pre-defined trace records
  37:Middlewares/Third_Party/QuantumLeaps_RTEF_qpc/src/qf/qf_time.c **** #else
  38:Middlewares/Third_Party/QuantumLeaps_RTEF_qpc/src/qf/qf_time.c ****     #include "qs_dummy.h" // disable the QS software tracing
  39:Middlewares/Third_Party/QuantumLeaps_RTEF_qpc/src/qf/qf_time.c **** #endif // Q_SPY
  40:Middlewares/Third_Party/QuantumLeaps_RTEF_qpc/src/qf/qf_time.c **** 
  41:Middlewares/Third_Party/QuantumLeaps_RTEF_qpc/src/qf/qf_time.c **** Q_DEFINE_THIS_MODULE("qf_time")
  42:Middlewares/Third_Party/QuantumLeaps_RTEF_qpc/src/qf/qf_time.c **** 
  43:Middlewares/Third_Party/QuantumLeaps_RTEF_qpc/src/qf/qf_time.c **** //............................................................................
  44:Middlewares/Third_Party/QuantumLeaps_RTEF_qpc/src/qf/qf_time.c **** QTimeEvt QTimeEvt_timeEvtHead_[QF_MAX_TICK_RATE];
  45:Middlewares/Third_Party/QuantumLeaps_RTEF_qpc/src/qf/qf_time.c **** 
  46:Middlewares/Third_Party/QuantumLeaps_RTEF_qpc/src/qf/qf_time.c **** //............................................................................
  47:Middlewares/Third_Party/QuantumLeaps_RTEF_qpc/src/qf/qf_time.c **** //! @public @memberof QTimeEvt
  48:Middlewares/Third_Party/QuantumLeaps_RTEF_qpc/src/qf/qf_time.c **** void QTimeEvt_ctorX(QTimeEvt * const me,
  49:Middlewares/Third_Party/QuantumLeaps_RTEF_qpc/src/qf/qf_time.c ****     QActive * const act,
  50:Middlewares/Third_Party/QuantumLeaps_RTEF_qpc/src/qf/qf_time.c ****     enum_t const sig,
  51:Middlewares/Third_Party/QuantumLeaps_RTEF_qpc/src/qf/qf_time.c ****     uint_fast8_t const tickRate)
  52:Middlewares/Third_Party/QuantumLeaps_RTEF_qpc/src/qf/qf_time.c **** {
  28              		.loc 1 52 1 view -0
  29              		.cfi_startproc
  30              		@ args = 0, pretend = 0, frame = 0
  31              		@ frame_needed = 0, uses_anonymous_args = 0
  32              		.loc 1 52 1 is_stmt 0 view .LVU1
  33 0000 F8B5     		push	{r3, r4, r5, r6, r7, lr}
  34              	.LCFI0:
  35              		.cfi_def_cfa_offset 24
  36              		.cfi_offset 3, -24
  37              		.cfi_offset 4, -20
  38              		.cfi_offset 5, -16
  39              		.cfi_offset 6, -12
  40              		.cfi_offset 7, -8
  41              		.cfi_offset 14, -4
  42 0002 0400     		movs	r4, r0
  43 0004 0F00     		movs	r7, r1
  44 0006 1500     		movs	r5, r2
  45 0008 1E00     		movs	r6, r3
  53:Middlewares/Third_Party/QuantumLeaps_RTEF_qpc/src/qf/qf_time.c ****     QF_CRIT_STAT
  54:Middlewares/Third_Party/QuantumLeaps_RTEF_qpc/src/qf/qf_time.c ****     QF_CRIT_ENTRY();
  46              		.loc 1 54 5 is_stmt 1 view .LVU2
  47 000a FFF7FEFF 		bl	vPortEnterCritical
  48              	.LVL1:
  55:Middlewares/Third_Party/QuantumLeaps_RTEF_qpc/src/qf/qf_time.c ****     Q_REQUIRE_INCRIT(300, (sig != 0)
  49              		.loc 1 55 5 view .LVU3
  50 000e 002D     		cmp	r5, #0
  51 0010 10D0     		beq	.L2
  52              		.loc 1 55 5 is_stmt 0 discriminator 2 view .LVU4
  53 0012 002E     		cmp	r6, #0
  54 0014 0ED1     		bne	.L2
  56:Middlewares/Third_Party/QuantumLeaps_RTEF_qpc/src/qf/qf_time.c ****         && (tickRate < QF_MAX_TICK_RATE));
  57:Middlewares/Third_Party/QuantumLeaps_RTEF_qpc/src/qf/qf_time.c ****     QF_CRIT_EXIT();
  55              		.loc 1 57 5 is_stmt 1 view .LVU5
  56 0016 FFF7FEFF 		bl	vPortExitCritical
  57              	.LVL2:
  58:Middlewares/Third_Party/QuantumLeaps_RTEF_qpc/src/qf/qf_time.c **** 
ARM GAS  C:\Users\main\AppData\Local\Temp\ccG3Qf2n.s 			page 3


  59:Middlewares/Third_Party/QuantumLeaps_RTEF_qpc/src/qf/qf_time.c ****     QEvt_ctor(&me->super, sig);
  58              		.loc 1 59 5 view .LVU6
  59              	.LBB4:
  60              	.LBI4:
  61              		.file 2 "Middlewares/Third_Party/QuantumLeaps_RTEF_qpc/include/qp.h"
   1:Middlewares/Third_Party/QuantumLeaps_RTEF_qpc/include/qp.h **** //============================================================================
   2:Middlewares/Third_Party/QuantumLeaps_RTEF_qpc/include/qp.h **** // QP/C Real-Time Embedded Framework (RTEF)
   3:Middlewares/Third_Party/QuantumLeaps_RTEF_qpc/include/qp.h **** // Version 8.0.2
   4:Middlewares/Third_Party/QuantumLeaps_RTEF_qpc/include/qp.h **** //
   5:Middlewares/Third_Party/QuantumLeaps_RTEF_qpc/include/qp.h **** // Copyright (C) 2005 Quantum Leaps, LLC. All rights reserved.
   6:Middlewares/Third_Party/QuantumLeaps_RTEF_qpc/include/qp.h **** //
   7:Middlewares/Third_Party/QuantumLeaps_RTEF_qpc/include/qp.h **** //                    Q u a n t u m  L e a P s
   8:Middlewares/Third_Party/QuantumLeaps_RTEF_qpc/include/qp.h **** //                    ------------------------
   9:Middlewares/Third_Party/QuantumLeaps_RTEF_qpc/include/qp.h **** //                    Modern Embedded Software
  10:Middlewares/Third_Party/QuantumLeaps_RTEF_qpc/include/qp.h **** //
  11:Middlewares/Third_Party/QuantumLeaps_RTEF_qpc/include/qp.h **** // SPDX-License-Identifier: GPL-3.0-or-later OR LicenseRef-QL-commercial
  12:Middlewares/Third_Party/QuantumLeaps_RTEF_qpc/include/qp.h **** //
  13:Middlewares/Third_Party/QuantumLeaps_RTEF_qpc/include/qp.h **** // This software is dual-licensed under the terms of the open-source GNU
  14:Middlewares/Third_Party/QuantumLeaps_RTEF_qpc/include/qp.h **** // General Public License (GPL) or under the terms of one of the closed-
  15:Middlewares/Third_Party/QuantumLeaps_RTEF_qpc/include/qp.h **** // source Quantum Leaps commercial licenses.
  16:Middlewares/Third_Party/QuantumLeaps_RTEF_qpc/include/qp.h **** //
  17:Middlewares/Third_Party/QuantumLeaps_RTEF_qpc/include/qp.h **** // Redistributions in source code must retain this top-level comment block.
  18:Middlewares/Third_Party/QuantumLeaps_RTEF_qpc/include/qp.h **** // Plagiarizing this software to sidestep the license obligations is illegal.
  19:Middlewares/Third_Party/QuantumLeaps_RTEF_qpc/include/qp.h **** //
  20:Middlewares/Third_Party/QuantumLeaps_RTEF_qpc/include/qp.h **** // NOTE:
  21:Middlewares/Third_Party/QuantumLeaps_RTEF_qpc/include/qp.h **** // The GPL does NOT permit the incorporation of this code into proprietary
  22:Middlewares/Third_Party/QuantumLeaps_RTEF_qpc/include/qp.h **** // programs. Please contact Quantum Leaps for commercial licensing options,
  23:Middlewares/Third_Party/QuantumLeaps_RTEF_qpc/include/qp.h **** // which expressly supersede the GPL and are designed explicitly for
  24:Middlewares/Third_Party/QuantumLeaps_RTEF_qpc/include/qp.h **** // closed-source distribution.
  25:Middlewares/Third_Party/QuantumLeaps_RTEF_qpc/include/qp.h **** //
  26:Middlewares/Third_Party/QuantumLeaps_RTEF_qpc/include/qp.h **** // Quantum Leaps contact information:
  27:Middlewares/Third_Party/QuantumLeaps_RTEF_qpc/include/qp.h **** // <www.state-machine.com/licensing>
  28:Middlewares/Third_Party/QuantumLeaps_RTEF_qpc/include/qp.h **** // <info@state-machine.com>
  29:Middlewares/Third_Party/QuantumLeaps_RTEF_qpc/include/qp.h **** //============================================================================
  30:Middlewares/Third_Party/QuantumLeaps_RTEF_qpc/include/qp.h **** #ifndef QP_H_
  31:Middlewares/Third_Party/QuantumLeaps_RTEF_qpc/include/qp.h **** #define QP_H_
  32:Middlewares/Third_Party/QuantumLeaps_RTEF_qpc/include/qp.h **** 
  33:Middlewares/Third_Party/QuantumLeaps_RTEF_qpc/include/qp.h **** //============================================================================
  34:Middlewares/Third_Party/QuantumLeaps_RTEF_qpc/include/qp.h **** #define QP_VERSION_STR "8.0.2"
  35:Middlewares/Third_Party/QuantumLeaps_RTEF_qpc/include/qp.h **** #define QP_VERSION     802U
  36:Middlewares/Third_Party/QuantumLeaps_RTEF_qpc/include/qp.h **** // <VER>=802 <DATE>=250120
  37:Middlewares/Third_Party/QuantumLeaps_RTEF_qpc/include/qp.h **** #define QP_RELEASE     0x6AEAB45DU
  38:Middlewares/Third_Party/QuantumLeaps_RTEF_qpc/include/qp.h **** 
  39:Middlewares/Third_Party/QuantumLeaps_RTEF_qpc/include/qp.h **** //============================================================================
  40:Middlewares/Third_Party/QuantumLeaps_RTEF_qpc/include/qp.h **** // default configuration settings
  41:Middlewares/Third_Party/QuantumLeaps_RTEF_qpc/include/qp.h **** //! @cond INTERNAL
  42:Middlewares/Third_Party/QuantumLeaps_RTEF_qpc/include/qp.h **** 
  43:Middlewares/Third_Party/QuantumLeaps_RTEF_qpc/include/qp.h **** #ifndef Q_SIGNAL_SIZE
  44:Middlewares/Third_Party/QuantumLeaps_RTEF_qpc/include/qp.h **** #define Q_SIGNAL_SIZE 2U
  45:Middlewares/Third_Party/QuantumLeaps_RTEF_qpc/include/qp.h **** #endif
  46:Middlewares/Third_Party/QuantumLeaps_RTEF_qpc/include/qp.h **** 
  47:Middlewares/Third_Party/QuantumLeaps_RTEF_qpc/include/qp.h **** #ifndef QF_MAX_ACTIVE
  48:Middlewares/Third_Party/QuantumLeaps_RTEF_qpc/include/qp.h **** #define QF_MAX_ACTIVE 32U
  49:Middlewares/Third_Party/QuantumLeaps_RTEF_qpc/include/qp.h **** #endif
  50:Middlewares/Third_Party/QuantumLeaps_RTEF_qpc/include/qp.h **** 
  51:Middlewares/Third_Party/QuantumLeaps_RTEF_qpc/include/qp.h **** #if (QF_MAX_ACTIVE > 64U)
  52:Middlewares/Third_Party/QuantumLeaps_RTEF_qpc/include/qp.h **** #error QF_MAX_ACTIVE exceeds the maximum of 64U;
ARM GAS  C:\Users\main\AppData\Local\Temp\ccG3Qf2n.s 			page 4


  53:Middlewares/Third_Party/QuantumLeaps_RTEF_qpc/include/qp.h **** #endif
  54:Middlewares/Third_Party/QuantumLeaps_RTEF_qpc/include/qp.h **** 
  55:Middlewares/Third_Party/QuantumLeaps_RTEF_qpc/include/qp.h **** #ifndef QF_MAX_TICK_RATE
  56:Middlewares/Third_Party/QuantumLeaps_RTEF_qpc/include/qp.h **** #define QF_MAX_TICK_RATE 1U
  57:Middlewares/Third_Party/QuantumLeaps_RTEF_qpc/include/qp.h **** #endif
  58:Middlewares/Third_Party/QuantumLeaps_RTEF_qpc/include/qp.h **** 
  59:Middlewares/Third_Party/QuantumLeaps_RTEF_qpc/include/qp.h **** #if (QF_MAX_TICK_RATE > 15U)
  60:Middlewares/Third_Party/QuantumLeaps_RTEF_qpc/include/qp.h **** #error QF_MAX_TICK_RATE exceeds the maximum of 15U;
  61:Middlewares/Third_Party/QuantumLeaps_RTEF_qpc/include/qp.h **** #endif
  62:Middlewares/Third_Party/QuantumLeaps_RTEF_qpc/include/qp.h **** 
  63:Middlewares/Third_Party/QuantumLeaps_RTEF_qpc/include/qp.h **** #ifndef QF_MAX_EPOOL
  64:Middlewares/Third_Party/QuantumLeaps_RTEF_qpc/include/qp.h **** #define QF_MAX_EPOOL 3U
  65:Middlewares/Third_Party/QuantumLeaps_RTEF_qpc/include/qp.h **** #endif
  66:Middlewares/Third_Party/QuantumLeaps_RTEF_qpc/include/qp.h **** 
  67:Middlewares/Third_Party/QuantumLeaps_RTEF_qpc/include/qp.h **** #if (QF_MAX_EPOOL > 15U)
  68:Middlewares/Third_Party/QuantumLeaps_RTEF_qpc/include/qp.h **** #error QF_MAX_EPOOL exceeds the maximum of 15U;
  69:Middlewares/Third_Party/QuantumLeaps_RTEF_qpc/include/qp.h **** #endif
  70:Middlewares/Third_Party/QuantumLeaps_RTEF_qpc/include/qp.h **** 
  71:Middlewares/Third_Party/QuantumLeaps_RTEF_qpc/include/qp.h **** #ifndef QF_TIMEEVT_CTR_SIZE
  72:Middlewares/Third_Party/QuantumLeaps_RTEF_qpc/include/qp.h **** #define QF_TIMEEVT_CTR_SIZE 4U
  73:Middlewares/Third_Party/QuantumLeaps_RTEF_qpc/include/qp.h **** #endif
  74:Middlewares/Third_Party/QuantumLeaps_RTEF_qpc/include/qp.h **** 
  75:Middlewares/Third_Party/QuantumLeaps_RTEF_qpc/include/qp.h **** #if (QF_TIMEEVT_CTR_SIZE > 4U)
  76:Middlewares/Third_Party/QuantumLeaps_RTEF_qpc/include/qp.h **** #error QF_TIMEEVT_CTR_SIZE defined incorrectly, expected 1U, 2U, or 4U;
  77:Middlewares/Third_Party/QuantumLeaps_RTEF_qpc/include/qp.h **** #endif
  78:Middlewares/Third_Party/QuantumLeaps_RTEF_qpc/include/qp.h **** 
  79:Middlewares/Third_Party/QuantumLeaps_RTEF_qpc/include/qp.h **** #ifndef QF_EVENT_SIZ_SIZE
  80:Middlewares/Third_Party/QuantumLeaps_RTEF_qpc/include/qp.h **** #define QF_EVENT_SIZ_SIZE 2U
  81:Middlewares/Third_Party/QuantumLeaps_RTEF_qpc/include/qp.h **** #endif
  82:Middlewares/Third_Party/QuantumLeaps_RTEF_qpc/include/qp.h **** 
  83:Middlewares/Third_Party/QuantumLeaps_RTEF_qpc/include/qp.h **** #if (QF_EVENT_SIZ_SIZE > 4U)
  84:Middlewares/Third_Party/QuantumLeaps_RTEF_qpc/include/qp.h **** #error QF_EVENT_SIZ_SIZE defined incorrectly, expected 1U, 2U, or 4U;
  85:Middlewares/Third_Party/QuantumLeaps_RTEF_qpc/include/qp.h **** #endif
  86:Middlewares/Third_Party/QuantumLeaps_RTEF_qpc/include/qp.h **** 
  87:Middlewares/Third_Party/QuantumLeaps_RTEF_qpc/include/qp.h **** //! @endcond
  88:Middlewares/Third_Party/QuantumLeaps_RTEF_qpc/include/qp.h **** 
  89:Middlewares/Third_Party/QuantumLeaps_RTEF_qpc/include/qp.h **** //============================================================================
  90:Middlewares/Third_Party/QuantumLeaps_RTEF_qpc/include/qp.h **** // global types/utilities
  91:Middlewares/Third_Party/QuantumLeaps_RTEF_qpc/include/qp.h **** 
  92:Middlewares/Third_Party/QuantumLeaps_RTEF_qpc/include/qp.h **** typedef int    int_t;
  93:Middlewares/Third_Party/QuantumLeaps_RTEF_qpc/include/qp.h **** typedef int    enum_t;
  94:Middlewares/Third_Party/QuantumLeaps_RTEF_qpc/include/qp.h **** typedef float  float32_t;
  95:Middlewares/Third_Party/QuantumLeaps_RTEF_qpc/include/qp.h **** typedef double float64_t;
  96:Middlewares/Third_Party/QuantumLeaps_RTEF_qpc/include/qp.h **** 
  97:Middlewares/Third_Party/QuantumLeaps_RTEF_qpc/include/qp.h **** #define Q_UNUSED_PAR(par_)  ((void)(par_))
  98:Middlewares/Third_Party/QuantumLeaps_RTEF_qpc/include/qp.h **** #define Q_DIM(array_)       (sizeof(array_) / sizeof((array_)[0U]))
  99:Middlewares/Third_Party/QuantumLeaps_RTEF_qpc/include/qp.h **** #define Q_UINT2PTR_CAST(type_, uint_) ((type_ *)(uint_))
 100:Middlewares/Third_Party/QuantumLeaps_RTEF_qpc/include/qp.h **** 
 101:Middlewares/Third_Party/QuantumLeaps_RTEF_qpc/include/qp.h **** //============================================================================
 102:Middlewares/Third_Party/QuantumLeaps_RTEF_qpc/include/qp.h **** extern char const QP_versionStr[24];
 103:Middlewares/Third_Party/QuantumLeaps_RTEF_qpc/include/qp.h **** 
 104:Middlewares/Third_Party/QuantumLeaps_RTEF_qpc/include/qp.h **** // QSignal type
 105:Middlewares/Third_Party/QuantumLeaps_RTEF_qpc/include/qp.h **** #if (Q_SIGNAL_SIZE == 1U)
 106:Middlewares/Third_Party/QuantumLeaps_RTEF_qpc/include/qp.h ****     typedef uint8_t QSignal;
 107:Middlewares/Third_Party/QuantumLeaps_RTEF_qpc/include/qp.h **** #elif (Q_SIGNAL_SIZE == 2U)
 108:Middlewares/Third_Party/QuantumLeaps_RTEF_qpc/include/qp.h ****     typedef uint16_t QSignal;
 109:Middlewares/Third_Party/QuantumLeaps_RTEF_qpc/include/qp.h **** #elif (Q_SIGNAL_SIZE == 4U)
ARM GAS  C:\Users\main\AppData\Local\Temp\ccG3Qf2n.s 			page 5


 110:Middlewares/Third_Party/QuantumLeaps_RTEF_qpc/include/qp.h ****     typedef uint32_t QSignal;
 111:Middlewares/Third_Party/QuantumLeaps_RTEF_qpc/include/qp.h **** #endif
 112:Middlewares/Third_Party/QuantumLeaps_RTEF_qpc/include/qp.h **** 
 113:Middlewares/Third_Party/QuantumLeaps_RTEF_qpc/include/qp.h **** //============================================================================
 114:Middlewares/Third_Party/QuantumLeaps_RTEF_qpc/include/qp.h **** //! @class QEvt
 115:Middlewares/Third_Party/QuantumLeaps_RTEF_qpc/include/qp.h **** typedef struct QEvt {
 116:Middlewares/Third_Party/QuantumLeaps_RTEF_qpc/include/qp.h ****     QSignal sig;              //!< @public @memberof QEvt
 117:Middlewares/Third_Party/QuantumLeaps_RTEF_qpc/include/qp.h ****     uint8_t poolNum_;         //!< @private @memberof QEvt
 118:Middlewares/Third_Party/QuantumLeaps_RTEF_qpc/include/qp.h ****     uint8_t volatile refCtr_; //!< @private @memberof QEvt
 119:Middlewares/Third_Party/QuantumLeaps_RTEF_qpc/include/qp.h **** } QEvt;
 120:Middlewares/Third_Party/QuantumLeaps_RTEF_qpc/include/qp.h **** 
 121:Middlewares/Third_Party/QuantumLeaps_RTEF_qpc/include/qp.h **** #define QEVT_INITIALIZER(sig_) { (QSignal)(sig_), 0x00U, 0xE0U }
 122:Middlewares/Third_Party/QuantumLeaps_RTEF_qpc/include/qp.h **** //! @public @memberof QEvt
 123:Middlewares/Third_Party/QuantumLeaps_RTEF_qpc/include/qp.h **** static inline void QEvt_ctor(QEvt * const me,
  62              		.loc 2 123 20 view .LVU7
  63              	.LBB5:
 124:Middlewares/Third_Party/QuantumLeaps_RTEF_qpc/include/qp.h ****     enum_t const sig)
 125:Middlewares/Third_Party/QuantumLeaps_RTEF_qpc/include/qp.h **** {
 126:Middlewares/Third_Party/QuantumLeaps_RTEF_qpc/include/qp.h ****     me->sig      = (QSignal)sig;
  64              		.loc 2 126 5 view .LVU8
  65              		.loc 2 126 18 is_stmt 0 view .LVU9
  66 001a 2580     		strh	r5, [r4]
 127:Middlewares/Third_Party/QuantumLeaps_RTEF_qpc/include/qp.h ****     me->poolNum_ = 0x00U;
  67              		.loc 2 127 5 is_stmt 1 view .LVU10
  68              		.loc 2 127 18 is_stmt 0 view .LVU11
  69 001c 0022     		movs	r2, #0
  70 001e A270     		strb	r2, [r4, #2]
 128:Middlewares/Third_Party/QuantumLeaps_RTEF_qpc/include/qp.h ****     me->refCtr_  = 0xE0U;
  71              		.loc 2 128 5 is_stmt 1 view .LVU12
  72              		.loc 2 128 18 is_stmt 0 view .LVU13
  73 0020 E023     		movs	r3, #224
  74 0022 E370     		strb	r3, [r4, #3]
  75              	.LVL3:
  76              		.loc 2 128 18 view .LVU14
  77              	.LBE5:
  78              	.LBE4:
  60:Middlewares/Third_Party/QuantumLeaps_RTEF_qpc/src/qf/qf_time.c **** 
  61:Middlewares/Third_Party/QuantumLeaps_RTEF_qpc/src/qf/qf_time.c ****     me->next     = (QTimeEvt *)0;
  79              		.loc 1 61 5 is_stmt 1 view .LVU15
  80              		.loc 1 61 18 is_stmt 0 view .LVU16
  81 0024 6260     		str	r2, [r4, #4]
  62:Middlewares/Third_Party/QuantumLeaps_RTEF_qpc/src/qf/qf_time.c ****     me->act      = act;
  82              		.loc 1 62 5 is_stmt 1 view .LVU17
  83              		.loc 1 62 18 is_stmt 0 view .LVU18
  84 0026 A760     		str	r7, [r4, #8]
  63:Middlewares/Third_Party/QuantumLeaps_RTEF_qpc/src/qf/qf_time.c ****     me->ctr      = 0U;
  85              		.loc 1 63 5 is_stmt 1 view .LVU19
  86              		.loc 1 63 18 is_stmt 0 view .LVU20
  87 0028 E260     		str	r2, [r4, #12]
  64:Middlewares/Third_Party/QuantumLeaps_RTEF_qpc/src/qf/qf_time.c ****     me->interval = 0U;
  88              		.loc 1 64 5 is_stmt 1 view .LVU21
  89              		.loc 1 64 18 is_stmt 0 view .LVU22
  90 002a 2261     		str	r2, [r4, #16]
  65:Middlewares/Third_Party/QuantumLeaps_RTEF_qpc/src/qf/qf_time.c ****     me->tickRate = (uint8_t)tickRate;
  91              		.loc 1 65 5 is_stmt 1 view .LVU23
  92              		.loc 1 65 18 is_stmt 0 view .LVU24
  93 002c 2675     		strb	r6, [r4, #20]
ARM GAS  C:\Users\main\AppData\Local\Temp\ccG3Qf2n.s 			page 6


  66:Middlewares/Third_Party/QuantumLeaps_RTEF_qpc/src/qf/qf_time.c ****     me->flags    = 0U;
  94              		.loc 1 66 5 is_stmt 1 view .LVU25
  95              		.loc 1 66 18 is_stmt 0 view .LVU26
  96 002e 6275     		strb	r2, [r4, #21]
  67:Middlewares/Third_Party/QuantumLeaps_RTEF_qpc/src/qf/qf_time.c **** 
  68:Middlewares/Third_Party/QuantumLeaps_RTEF_qpc/src/qf/qf_time.c ****     me->super.refCtr_ = 0U; // adjust from the QEvt_ctor((sig) ctor
  97              		.loc 1 68 5 is_stmt 1 view .LVU27
  98              		.loc 1 68 23 is_stmt 0 view .LVU28
  99 0030 E270     		strb	r2, [r4, #3]
  69:Middlewares/Third_Party/QuantumLeaps_RTEF_qpc/src/qf/qf_time.c **** }
 100              		.loc 1 69 1 view .LVU29
 101              		@ sp needed
 102              	.LVL4:
 103              	.LVL5:
 104              	.LVL6:
 105              	.LVL7:
 106              		.loc 1 69 1 view .LVU30
 107 0032 F8BD     		pop	{r3, r4, r5, r6, r7, pc}
 108              	.LVL8:
 109              	.L2:
  55:Middlewares/Third_Party/QuantumLeaps_RTEF_qpc/src/qf/qf_time.c ****         && (tickRate < QF_MAX_TICK_RATE));
 110              		.loc 1 55 5 discriminator 3 view .LVU31
 111 0034 9621     		movs	r1, #150
 112 0036 4900     		lsls	r1, r1, #1
 113 0038 0148     		ldr	r0, .L4
 114 003a FFF7FEFF 		bl	Q_onError
 115              	.LVL9:
 116              	.L5:
 117 003e C046     		.align	2
 118              	.L4:
 119 0040 00000000 		.word	.LANCHOR0
 120              		.cfi_endproc
 121              	.LFE18:
 123              		.section	.text.QTimeEvt_armX,"ax",%progbits
 124              		.align	1
 125              		.global	QTimeEvt_armX
 126              		.syntax unified
 127              		.code	16
 128              		.thumb_func
 130              	QTimeEvt_armX:
 131              	.LVL10:
 132              	.LFB19:
  70:Middlewares/Third_Party/QuantumLeaps_RTEF_qpc/src/qf/qf_time.c **** 
  71:Middlewares/Third_Party/QuantumLeaps_RTEF_qpc/src/qf/qf_time.c **** //............................................................................
  72:Middlewares/Third_Party/QuantumLeaps_RTEF_qpc/src/qf/qf_time.c **** //! @public @memberof QTimeEvt
  73:Middlewares/Third_Party/QuantumLeaps_RTEF_qpc/src/qf/qf_time.c **** void QTimeEvt_armX(QTimeEvt * const me,
  74:Middlewares/Third_Party/QuantumLeaps_RTEF_qpc/src/qf/qf_time.c ****     uint32_t const nTicks,
  75:Middlewares/Third_Party/QuantumLeaps_RTEF_qpc/src/qf/qf_time.c ****     uint32_t const interval)
  76:Middlewares/Third_Party/QuantumLeaps_RTEF_qpc/src/qf/qf_time.c **** {
 133              		.loc 1 76 1 is_stmt 1 view -0
 134              		.cfi_startproc
 135              		@ args = 0, pretend = 0, frame = 0
 136              		@ frame_needed = 0, uses_anonymous_args = 0
 137              		.loc 1 76 1 is_stmt 0 view .LVU33
 138 0000 70B5     		push	{r4, r5, r6, lr}
 139              	.LCFI1:
 140              		.cfi_def_cfa_offset 16
ARM GAS  C:\Users\main\AppData\Local\Temp\ccG3Qf2n.s 			page 7


 141              		.cfi_offset 4, -16
 142              		.cfi_offset 5, -12
 143              		.cfi_offset 6, -8
 144              		.cfi_offset 14, -4
 145 0002 0400     		movs	r4, r0
 146 0004 0D00     		movs	r5, r1
 147 0006 1600     		movs	r6, r2
  77:Middlewares/Third_Party/QuantumLeaps_RTEF_qpc/src/qf/qf_time.c ****     QF_CRIT_STAT
  78:Middlewares/Third_Party/QuantumLeaps_RTEF_qpc/src/qf/qf_time.c ****     QF_CRIT_ENTRY();
 148              		.loc 1 78 5 is_stmt 1 view .LVU34
 149 0008 FFF7FEFF 		bl	vPortEnterCritical
 150              	.LVL11:
  79:Middlewares/Third_Party/QuantumLeaps_RTEF_qpc/src/qf/qf_time.c **** 
  80:Middlewares/Third_Party/QuantumLeaps_RTEF_qpc/src/qf/qf_time.c ****     // dynamic range checks
  81:Middlewares/Third_Party/QuantumLeaps_RTEF_qpc/src/qf/qf_time.c **** #if (QF_TIMEEVT_CTR_SIZE == 1U)
  82:Middlewares/Third_Party/QuantumLeaps_RTEF_qpc/src/qf/qf_time.c ****     Q_REQUIRE_INCRIT(400, (nTicks < 0xFFU) && (interval < 0xFFU));
  83:Middlewares/Third_Party/QuantumLeaps_RTEF_qpc/src/qf/qf_time.c **** #elif (QF_TIMEEVT_CTR_SIZE == 2U)
  84:Middlewares/Third_Party/QuantumLeaps_RTEF_qpc/src/qf/qf_time.c ****     Q_REQUIRE_INCRIT(400, (nTicks < 0xFFFFU) && (interval < 0xFFFFU));
  85:Middlewares/Third_Party/QuantumLeaps_RTEF_qpc/src/qf/qf_time.c **** #endif
  86:Middlewares/Third_Party/QuantumLeaps_RTEF_qpc/src/qf/qf_time.c **** 
  87:Middlewares/Third_Party/QuantumLeaps_RTEF_qpc/src/qf/qf_time.c ****     QTimeEvtCtr const ctr = me->ctr;
 151              		.loc 1 87 5 view .LVU35
 152              		.loc 1 87 23 is_stmt 0 view .LVU36
 153 000c E368     		ldr	r3, [r4, #12]
 154              	.LVL12:
  88:Middlewares/Third_Party/QuantumLeaps_RTEF_qpc/src/qf/qf_time.c ****     uint8_t const tickRate = me->tickRate;
 155              		.loc 1 88 5 is_stmt 1 view .LVU37
 156              		.loc 1 88 19 is_stmt 0 view .LVU38
 157 000e 227D     		ldrb	r2, [r4, #20]
 158              	.LVL13:
  89:Middlewares/Third_Party/QuantumLeaps_RTEF_qpc/src/qf/qf_time.c **** #ifdef Q_SPY
  90:Middlewares/Third_Party/QuantumLeaps_RTEF_qpc/src/qf/qf_time.c ****     uint_fast8_t const qsId = ((QActive *)(me->act))->prio;
  91:Middlewares/Third_Party/QuantumLeaps_RTEF_qpc/src/qf/qf_time.c **** #endif // def Q_SPY
  92:Middlewares/Third_Party/QuantumLeaps_RTEF_qpc/src/qf/qf_time.c **** 
  93:Middlewares/Third_Party/QuantumLeaps_RTEF_qpc/src/qf/qf_time.c ****     Q_REQUIRE_INCRIT(410,
 159              		.loc 1 93 5 is_stmt 1 view .LVU39
 160 0010 002D     		cmp	r5, #0
 161 0012 1FD0     		beq	.L7
 162              		.loc 1 93 5 is_stmt 0 discriminator 2 view .LVU40
 163 0014 002B     		cmp	r3, #0
 164 0016 1DD1     		bne	.L7
 165              		.loc 1 93 5 discriminator 4 view .LVU41
 166 0018 A368     		ldr	r3, [r4, #8]
 167              	.LVL14:
 168              		.loc 1 93 5 discriminator 4 view .LVU42
 169 001a 002B     		cmp	r3, #0
 170 001c 1AD0     		beq	.L7
 171              		.loc 1 93 5 discriminator 6 view .LVU43
 172 001e 002A     		cmp	r2, #0
 173 0020 18D1     		bne	.L7
  94:Middlewares/Third_Party/QuantumLeaps_RTEF_qpc/src/qf/qf_time.c ****         (nTicks != 0U)
  95:Middlewares/Third_Party/QuantumLeaps_RTEF_qpc/src/qf/qf_time.c ****         && (ctr == 0U)
  96:Middlewares/Third_Party/QuantumLeaps_RTEF_qpc/src/qf/qf_time.c ****         && (me->act != (void *)0)
  97:Middlewares/Third_Party/QuantumLeaps_RTEF_qpc/src/qf/qf_time.c ****         && (tickRate < (uint_fast8_t)QF_MAX_TICK_RATE));
  98:Middlewares/Third_Party/QuantumLeaps_RTEF_qpc/src/qf/qf_time.c **** 
  99:Middlewares/Third_Party/QuantumLeaps_RTEF_qpc/src/qf/qf_time.c **** #ifdef Q_UNSAFE
 100:Middlewares/Third_Party/QuantumLeaps_RTEF_qpc/src/qf/qf_time.c ****     Q_UNUSED_PAR(ctr);
ARM GAS  C:\Users\main\AppData\Local\Temp\ccG3Qf2n.s 			page 8


 101:Middlewares/Third_Party/QuantumLeaps_RTEF_qpc/src/qf/qf_time.c **** #endif // ndef Q_UNSAFE
 102:Middlewares/Third_Party/QuantumLeaps_RTEF_qpc/src/qf/qf_time.c **** 
 103:Middlewares/Third_Party/QuantumLeaps_RTEF_qpc/src/qf/qf_time.c ****     me->ctr = (QTimeEvtCtr)nTicks;
 174              		.loc 1 103 5 is_stmt 1 view .LVU44
 175              		.loc 1 103 13 is_stmt 0 view .LVU45
 176 0022 E560     		str	r5, [r4, #12]
 104:Middlewares/Third_Party/QuantumLeaps_RTEF_qpc/src/qf/qf_time.c ****     me->interval = (QTimeEvtCtr)interval;
 177              		.loc 1 104 5 is_stmt 1 view .LVU46
 178              		.loc 1 104 18 is_stmt 0 view .LVU47
 179 0024 2661     		str	r6, [r4, #16]
 105:Middlewares/Third_Party/QuantumLeaps_RTEF_qpc/src/qf/qf_time.c **** 
 106:Middlewares/Third_Party/QuantumLeaps_RTEF_qpc/src/qf/qf_time.c ****     // is the time event unlinked?
 107:Middlewares/Third_Party/QuantumLeaps_RTEF_qpc/src/qf/qf_time.c ****     // NOTE: For the duration of a single clock tick of the specified tick
 108:Middlewares/Third_Party/QuantumLeaps_RTEF_qpc/src/qf/qf_time.c ****     // rate a time event can be disarmed and yet still linked into the list
 109:Middlewares/Third_Party/QuantumLeaps_RTEF_qpc/src/qf/qf_time.c ****     // because un-linking is performed exclusively in QTimeEvt_tick_().
 110:Middlewares/Third_Party/QuantumLeaps_RTEF_qpc/src/qf/qf_time.c ****     if ((me->flags & QTE_FLAG_IS_LINKED) == 0U) {
 180              		.loc 1 110 5 is_stmt 1 view .LVU48
 181              		.loc 1 110 12 is_stmt 0 view .LVU49
 182 0026 607D     		ldrb	r0, [r4, #21]
 183              		.loc 1 110 42 view .LVU50
 184 0028 1521     		movs	r1, #21
 185 002a 6156     		ldrsb	r1, [r4, r1]
 186              		.loc 1 110 8 view .LVU51
 187 002c 0029     		cmp	r1, #0
 188 002e 0EDB     		blt	.L9
 111:Middlewares/Third_Party/QuantumLeaps_RTEF_qpc/src/qf/qf_time.c ****         me->flags |= QTE_FLAG_IS_LINKED; // mark as linked
 189              		.loc 1 111 9 is_stmt 1 view .LVU52
 190              		.loc 1 111 19 is_stmt 0 view .LVU53
 191 0030 8023     		movs	r3, #128
 192 0032 5B42     		rsbs	r3, r3, #0
 193 0034 0343     		orrs	r3, r0
 194 0036 6375     		strb	r3, [r4, #21]
 112:Middlewares/Third_Party/QuantumLeaps_RTEF_qpc/src/qf/qf_time.c **** 
 113:Middlewares/Third_Party/QuantumLeaps_RTEF_qpc/src/qf/qf_time.c ****         // The time event is initially inserted into the separate
 114:Middlewares/Third_Party/QuantumLeaps_RTEF_qpc/src/qf/qf_time.c ****         // "freshly armed" list based on timeEvtHead_[tickRate].act.
 115:Middlewares/Third_Party/QuantumLeaps_RTEF_qpc/src/qf/qf_time.c ****         // Only later, inside QTimeEvt_tick_(), the "freshly armed"
 116:Middlewares/Third_Party/QuantumLeaps_RTEF_qpc/src/qf/qf_time.c ****         // list is appended to the main list of armed time events based on
 117:Middlewares/Third_Party/QuantumLeaps_RTEF_qpc/src/qf/qf_time.c ****         // timeEvtHead_[tickRate].next. Again, this is to keep any
 118:Middlewares/Third_Party/QuantumLeaps_RTEF_qpc/src/qf/qf_time.c ****         // changes to the main list exclusively inside QTimeEvt_tick_().
 119:Middlewares/Third_Party/QuantumLeaps_RTEF_qpc/src/qf/qf_time.c ****         me->next = (QTimeEvt *)QTimeEvt_timeEvtHead_[tickRate].act;
 195              		.loc 1 119 9 is_stmt 1 view .LVU54
 196              		.loc 1 119 63 is_stmt 0 view .LVU55
 197 0038 0948     		ldr	r0, .L10
 198 003a 5300     		lsls	r3, r2, #1
 199 003c 9918     		adds	r1, r3, r2
 200 003e C900     		lsls	r1, r1, #3
 201 0040 4118     		adds	r1, r0, r1
 202 0042 8968     		ldr	r1, [r1, #8]
 203              		.loc 1 119 18 view .LVU56
 204 0044 6160     		str	r1, [r4, #4]
 120:Middlewares/Third_Party/QuantumLeaps_RTEF_qpc/src/qf/qf_time.c ****         QTimeEvt_timeEvtHead_[tickRate].act = me;
 205              		.loc 1 120 9 is_stmt 1 view .LVU57
 206              		.loc 1 120 45 is_stmt 0 view .LVU58
 207 0046 9B18     		adds	r3, r3, r2
 208 0048 DB00     		lsls	r3, r3, #3
 209 004a C318     		adds	r3, r0, r3
 210 004c 9C60     		str	r4, [r3, #8]
ARM GAS  C:\Users\main\AppData\Local\Temp\ccG3Qf2n.s 			page 9


 211              	.L9:
 121:Middlewares/Third_Party/QuantumLeaps_RTEF_qpc/src/qf/qf_time.c ****     }
 122:Middlewares/Third_Party/QuantumLeaps_RTEF_qpc/src/qf/qf_time.c **** 
 123:Middlewares/Third_Party/QuantumLeaps_RTEF_qpc/src/qf/qf_time.c ****     QS_BEGIN_PRE(QS_QF_TIMEEVT_ARM, qsId)
 212              		.loc 1 123 5 is_stmt 1 view .LVU59
 124:Middlewares/Third_Party/QuantumLeaps_RTEF_qpc/src/qf/qf_time.c ****         QS_TIME_PRE();        // timestamp
 213              		.loc 1 124 9 view .LVU60
 125:Middlewares/Third_Party/QuantumLeaps_RTEF_qpc/src/qf/qf_time.c ****         QS_OBJ_PRE(me);       // this time event object
 214              		.loc 1 125 9 view .LVU61
 126:Middlewares/Third_Party/QuantumLeaps_RTEF_qpc/src/qf/qf_time.c ****         QS_OBJ_PRE(me->act);  // the active object
 215              		.loc 1 126 9 view .LVU62
 127:Middlewares/Third_Party/QuantumLeaps_RTEF_qpc/src/qf/qf_time.c ****         QS_TEC_PRE(nTicks);   // the # ticks
 216              		.loc 1 127 9 view .LVU63
 128:Middlewares/Third_Party/QuantumLeaps_RTEF_qpc/src/qf/qf_time.c ****         QS_TEC_PRE(interval); // the interval
 217              		.loc 1 128 9 view .LVU64
 129:Middlewares/Third_Party/QuantumLeaps_RTEF_qpc/src/qf/qf_time.c ****         QS_U8_PRE(tickRate);  // tick rate
 218              		.loc 1 129 9 view .LVU65
 130:Middlewares/Third_Party/QuantumLeaps_RTEF_qpc/src/qf/qf_time.c ****     QS_END_PRE()
 131:Middlewares/Third_Party/QuantumLeaps_RTEF_qpc/src/qf/qf_time.c **** 
 132:Middlewares/Third_Party/QuantumLeaps_RTEF_qpc/src/qf/qf_time.c ****     QF_CRIT_EXIT();
 219              		.loc 1 132 5 view .LVU66
 220 004e FFF7FEFF 		bl	vPortExitCritical
 221              	.LVL15:
 133:Middlewares/Third_Party/QuantumLeaps_RTEF_qpc/src/qf/qf_time.c **** }
 222              		.loc 1 133 1 is_stmt 0 view .LVU67
 223              		@ sp needed
 224              	.LVL16:
 225              	.LVL17:
 226              	.LVL18:
 227              		.loc 1 133 1 view .LVU68
 228 0052 70BD     		pop	{r4, r5, r6, pc}
 229              	.LVL19:
 230              	.L7:
  93:Middlewares/Third_Party/QuantumLeaps_RTEF_qpc/src/qf/qf_time.c ****         (nTicks != 0U)
 231              		.loc 1 93 5 discriminator 7 view .LVU69
 232 0054 CD21     		movs	r1, #205
 233 0056 4900     		lsls	r1, r1, #1
 234 0058 0248     		ldr	r0, .L10+4
 235 005a FFF7FEFF 		bl	Q_onError
 236              	.LVL20:
 237              	.L11:
  93:Middlewares/Third_Party/QuantumLeaps_RTEF_qpc/src/qf/qf_time.c ****         (nTicks != 0U)
 238              		.loc 1 93 5 discriminator 7 view .LVU70
 239 005e C046     		.align	2
 240              	.L10:
 241 0060 00000000 		.word	.LANCHOR1
 242 0064 00000000 		.word	.LANCHOR0
 243              		.cfi_endproc
 244              	.LFE19:
 246              		.section	.text.QTimeEvt_disarm,"ax",%progbits
 247              		.align	1
 248              		.global	QTimeEvt_disarm
 249              		.syntax unified
 250              		.code	16
 251              		.thumb_func
 253              	QTimeEvt_disarm:
 254              	.LVL21:
ARM GAS  C:\Users\main\AppData\Local\Temp\ccG3Qf2n.s 			page 10


 255              	.LFB20:
 134:Middlewares/Third_Party/QuantumLeaps_RTEF_qpc/src/qf/qf_time.c **** 
 135:Middlewares/Third_Party/QuantumLeaps_RTEF_qpc/src/qf/qf_time.c **** //............................................................................
 136:Middlewares/Third_Party/QuantumLeaps_RTEF_qpc/src/qf/qf_time.c **** //! @public @memberof QTimeEvt
 137:Middlewares/Third_Party/QuantumLeaps_RTEF_qpc/src/qf/qf_time.c **** bool QTimeEvt_disarm(QTimeEvt * const me) {
 256              		.loc 1 137 43 is_stmt 1 view -0
 257              		.cfi_startproc
 258              		@ args = 0, pretend = 0, frame = 0
 259              		@ frame_needed = 0, uses_anonymous_args = 0
 260              		.loc 1 137 43 is_stmt 0 view .LVU72
 261 0000 10B5     		push	{r4, lr}
 262              	.LCFI2:
 263              		.cfi_def_cfa_offset 8
 264              		.cfi_offset 4, -8
 265              		.cfi_offset 14, -4
 266 0002 0400     		movs	r4, r0
 138:Middlewares/Third_Party/QuantumLeaps_RTEF_qpc/src/qf/qf_time.c ****     QF_CRIT_STAT
 139:Middlewares/Third_Party/QuantumLeaps_RTEF_qpc/src/qf/qf_time.c ****     QF_CRIT_ENTRY();
 267              		.loc 1 139 5 is_stmt 1 view .LVU73
 268 0004 FFF7FEFF 		bl	vPortEnterCritical
 269              	.LVL22:
 140:Middlewares/Third_Party/QuantumLeaps_RTEF_qpc/src/qf/qf_time.c **** 
 141:Middlewares/Third_Party/QuantumLeaps_RTEF_qpc/src/qf/qf_time.c ****     QTimeEvtCtr const ctr = me->ctr;
 270              		.loc 1 141 5 view .LVU74
 271              		.loc 1 141 23 is_stmt 0 view .LVU75
 272 0008 E368     		ldr	r3, [r4, #12]
 273              	.LVL23:
 142:Middlewares/Third_Party/QuantumLeaps_RTEF_qpc/src/qf/qf_time.c **** 
 143:Middlewares/Third_Party/QuantumLeaps_RTEF_qpc/src/qf/qf_time.c **** #ifdef Q_SPY
 144:Middlewares/Third_Party/QuantumLeaps_RTEF_qpc/src/qf/qf_time.c ****     uint_fast8_t const qsId = QACTIVE_CAST_(me->act)->prio;
 145:Middlewares/Third_Party/QuantumLeaps_RTEF_qpc/src/qf/qf_time.c **** #endif
 146:Middlewares/Third_Party/QuantumLeaps_RTEF_qpc/src/qf/qf_time.c **** 
 147:Middlewares/Third_Party/QuantumLeaps_RTEF_qpc/src/qf/qf_time.c ****     // was the time event actually armed?
 148:Middlewares/Third_Party/QuantumLeaps_RTEF_qpc/src/qf/qf_time.c ****     bool wasArmed = false;
 274              		.loc 1 148 5 is_stmt 1 view .LVU76
 149:Middlewares/Third_Party/QuantumLeaps_RTEF_qpc/src/qf/qf_time.c ****     if (ctr != 0U) {
 275              		.loc 1 149 5 view .LVU77
 276              		.loc 1 149 8 is_stmt 0 view .LVU78
 277 000a 002B     		cmp	r3, #0
 278 000c 0AD0     		beq	.L13
 150:Middlewares/Third_Party/QuantumLeaps_RTEF_qpc/src/qf/qf_time.c ****         wasArmed = true;
 279              		.loc 1 150 9 is_stmt 1 view .LVU79
 280              	.LVL24:
 151:Middlewares/Third_Party/QuantumLeaps_RTEF_qpc/src/qf/qf_time.c ****         me->flags |= QTE_FLAG_WAS_DISARMED;
 281              		.loc 1 151 9 view .LVU80
 282              		.loc 1 151 19 is_stmt 0 view .LVU81
 283 000e 637D     		ldrb	r3, [r4, #21]
 284              	.LVL25:
 285              		.loc 1 151 19 view .LVU82
 286 0010 4022     		movs	r2, #64
 287 0012 1343     		orrs	r3, r2
 288 0014 6375     		strb	r3, [r4, #21]
 152:Middlewares/Third_Party/QuantumLeaps_RTEF_qpc/src/qf/qf_time.c ****         me->ctr = 0U; // schedule removal from the list
 289              		.loc 1 152 9 is_stmt 1 view .LVU83
 290              		.loc 1 152 17 is_stmt 0 view .LVU84
 291 0016 0023     		movs	r3, #0
 292 0018 E360     		str	r3, [r4, #12]
ARM GAS  C:\Users\main\AppData\Local\Temp\ccG3Qf2n.s 			page 11


 153:Middlewares/Third_Party/QuantumLeaps_RTEF_qpc/src/qf/qf_time.c **** 
 154:Middlewares/Third_Party/QuantumLeaps_RTEF_qpc/src/qf/qf_time.c ****         QS_BEGIN_PRE(QS_QF_TIMEEVT_DISARM, qsId)
 293              		.loc 1 154 9 is_stmt 1 view .LVU85
 155:Middlewares/Third_Party/QuantumLeaps_RTEF_qpc/src/qf/qf_time.c ****             QS_TIME_PRE();            // timestamp
 294              		.loc 1 155 13 view .LVU86
 156:Middlewares/Third_Party/QuantumLeaps_RTEF_qpc/src/qf/qf_time.c ****             QS_OBJ_PRE(me);           // this time event object
 295              		.loc 1 156 13 view .LVU87
 157:Middlewares/Third_Party/QuantumLeaps_RTEF_qpc/src/qf/qf_time.c ****             QS_OBJ_PRE(me->act);      // the target AO
 296              		.loc 1 157 13 view .LVU88
 158:Middlewares/Third_Party/QuantumLeaps_RTEF_qpc/src/qf/qf_time.c ****             QS_TEC_PRE(ctr);          // the # ticks
 297              		.loc 1 158 13 view .LVU89
 159:Middlewares/Third_Party/QuantumLeaps_RTEF_qpc/src/qf/qf_time.c ****             QS_TEC_PRE(me->interval); // the interval
 298              		.loc 1 159 13 view .LVU90
 160:Middlewares/Third_Party/QuantumLeaps_RTEF_qpc/src/qf/qf_time.c ****             QS_U8_PRE(me->tickRate);  // tick rate
 299              		.loc 1 160 13 view .LVU91
 150:Middlewares/Third_Party/QuantumLeaps_RTEF_qpc/src/qf/qf_time.c ****         me->flags |= QTE_FLAG_WAS_DISARMED;
 300              		.loc 1 150 18 is_stmt 0 view .LVU92
 301 001a 0124     		movs	r4, #1
 302              	.LVL26:
 303              	.L14:
 161:Middlewares/Third_Party/QuantumLeaps_RTEF_qpc/src/qf/qf_time.c ****         QS_END_PRE()
 162:Middlewares/Third_Party/QuantumLeaps_RTEF_qpc/src/qf/qf_time.c ****     }
 163:Middlewares/Third_Party/QuantumLeaps_RTEF_qpc/src/qf/qf_time.c ****     else { // the time event was already disarmed automatically
 164:Middlewares/Third_Party/QuantumLeaps_RTEF_qpc/src/qf/qf_time.c ****         me->flags &= (uint8_t)(~QTE_FLAG_WAS_DISARMED & 0xFFU);
 165:Middlewares/Third_Party/QuantumLeaps_RTEF_qpc/src/qf/qf_time.c **** 
 166:Middlewares/Third_Party/QuantumLeaps_RTEF_qpc/src/qf/qf_time.c ****         QS_BEGIN_PRE(QS_QF_TIMEEVT_DISARM_ATTEMPT, qsId)
 167:Middlewares/Third_Party/QuantumLeaps_RTEF_qpc/src/qf/qf_time.c ****             QS_TIME_PRE();            // timestamp
 304              		.loc 1 167 13 is_stmt 1 view .LVU93
 168:Middlewares/Third_Party/QuantumLeaps_RTEF_qpc/src/qf/qf_time.c ****             QS_OBJ_PRE(me);           // this time event object
 305              		.loc 1 168 13 view .LVU94
 169:Middlewares/Third_Party/QuantumLeaps_RTEF_qpc/src/qf/qf_time.c ****             QS_OBJ_PRE(me->act);      // the target AO
 306              		.loc 1 169 13 view .LVU95
 170:Middlewares/Third_Party/QuantumLeaps_RTEF_qpc/src/qf/qf_time.c ****             QS_U8_PRE(me->tickRate);  // tick rate
 307              		.loc 1 170 13 view .LVU96
 171:Middlewares/Third_Party/QuantumLeaps_RTEF_qpc/src/qf/qf_time.c ****         QS_END_PRE()
 172:Middlewares/Third_Party/QuantumLeaps_RTEF_qpc/src/qf/qf_time.c ****     }
 173:Middlewares/Third_Party/QuantumLeaps_RTEF_qpc/src/qf/qf_time.c **** 
 174:Middlewares/Third_Party/QuantumLeaps_RTEF_qpc/src/qf/qf_time.c ****     QF_CRIT_EXIT();
 308              		.loc 1 174 5 view .LVU97
 309 001c FFF7FEFF 		bl	vPortExitCritical
 310              	.LVL27:
 175:Middlewares/Third_Party/QuantumLeaps_RTEF_qpc/src/qf/qf_time.c **** 
 176:Middlewares/Third_Party/QuantumLeaps_RTEF_qpc/src/qf/qf_time.c ****     return wasArmed;
 311              		.loc 1 176 5 view .LVU98
 177:Middlewares/Third_Party/QuantumLeaps_RTEF_qpc/src/qf/qf_time.c **** }
 312              		.loc 1 177 1 is_stmt 0 view .LVU99
 313 0020 2000     		movs	r0, r4
 314              		@ sp needed
 315              	.LVL28:
 316              		.loc 1 177 1 view .LVU100
 317 0022 10BD     		pop	{r4, pc}
 318              	.LVL29:
 319              	.L13:
 164:Middlewares/Third_Party/QuantumLeaps_RTEF_qpc/src/qf/qf_time.c **** 
 320              		.loc 1 164 9 is_stmt 1 view .LVU101
 164:Middlewares/Third_Party/QuantumLeaps_RTEF_qpc/src/qf/qf_time.c **** 
 321              		.loc 1 164 19 is_stmt 0 view .LVU102
ARM GAS  C:\Users\main\AppData\Local\Temp\ccG3Qf2n.s 			page 12


 322 0024 637D     		ldrb	r3, [r4, #21]
 323              	.LVL30:
 164:Middlewares/Third_Party/QuantumLeaps_RTEF_qpc/src/qf/qf_time.c **** 
 324              		.loc 1 164 19 view .LVU103
 325 0026 4022     		movs	r2, #64
 326 0028 9343     		bics	r3, r2
 327 002a 6375     		strb	r3, [r4, #21]
 166:Middlewares/Third_Party/QuantumLeaps_RTEF_qpc/src/qf/qf_time.c ****             QS_TIME_PRE();            // timestamp
 328              		.loc 1 166 9 is_stmt 1 view .LVU104
 148:Middlewares/Third_Party/QuantumLeaps_RTEF_qpc/src/qf/qf_time.c ****     if (ctr != 0U) {
 329              		.loc 1 148 10 is_stmt 0 view .LVU105
 330 002c 0024     		movs	r4, #0
 331              	.LVL31:
 148:Middlewares/Third_Party/QuantumLeaps_RTEF_qpc/src/qf/qf_time.c ****     if (ctr != 0U) {
 332              		.loc 1 148 10 view .LVU106
 333 002e F5E7     		b	.L14
 334              		.cfi_endproc
 335              	.LFE20:
 337              		.section	.text.QTimeEvt_rearm,"ax",%progbits
 338              		.align	1
 339              		.global	QTimeEvt_rearm
 340              		.syntax unified
 341              		.code	16
 342              		.thumb_func
 344              	QTimeEvt_rearm:
 345              	.LVL32:
 346              	.LFB21:
 178:Middlewares/Third_Party/QuantumLeaps_RTEF_qpc/src/qf/qf_time.c **** 
 179:Middlewares/Third_Party/QuantumLeaps_RTEF_qpc/src/qf/qf_time.c **** //............................................................................
 180:Middlewares/Third_Party/QuantumLeaps_RTEF_qpc/src/qf/qf_time.c **** //! @public @memberof QTimeEvt
 181:Middlewares/Third_Party/QuantumLeaps_RTEF_qpc/src/qf/qf_time.c **** bool QTimeEvt_rearm(QTimeEvt * const me,
 182:Middlewares/Third_Party/QuantumLeaps_RTEF_qpc/src/qf/qf_time.c ****     uint32_t const nTicks)
 183:Middlewares/Third_Party/QuantumLeaps_RTEF_qpc/src/qf/qf_time.c **** {
 347              		.loc 1 183 1 is_stmt 1 view -0
 348              		.cfi_startproc
 349              		@ args = 0, pretend = 0, frame = 0
 350              		@ frame_needed = 0, uses_anonymous_args = 0
 351              		.loc 1 183 1 is_stmt 0 view .LVU108
 352 0000 70B5     		push	{r4, r5, r6, lr}
 353              	.LCFI3:
 354              		.cfi_def_cfa_offset 16
 355              		.cfi_offset 4, -16
 356              		.cfi_offset 5, -12
 357              		.cfi_offset 6, -8
 358              		.cfi_offset 14, -4
 359 0002 0400     		movs	r4, r0
 360 0004 0D00     		movs	r5, r1
 184:Middlewares/Third_Party/QuantumLeaps_RTEF_qpc/src/qf/qf_time.c ****     QF_CRIT_STAT
 185:Middlewares/Third_Party/QuantumLeaps_RTEF_qpc/src/qf/qf_time.c ****     QF_CRIT_ENTRY();
 361              		.loc 1 185 5 is_stmt 1 view .LVU109
 362 0006 FFF7FEFF 		bl	vPortEnterCritical
 363              	.LVL33:
 186:Middlewares/Third_Party/QuantumLeaps_RTEF_qpc/src/qf/qf_time.c **** 
 187:Middlewares/Third_Party/QuantumLeaps_RTEF_qpc/src/qf/qf_time.c ****     // dynamic range checks
 188:Middlewares/Third_Party/QuantumLeaps_RTEF_qpc/src/qf/qf_time.c **** #if (QF_TIMEEVT_CTR_SIZE == 1U)
 189:Middlewares/Third_Party/QuantumLeaps_RTEF_qpc/src/qf/qf_time.c ****     Q_REQUIRE_INCRIT(600, nTicks < 0xFFU);
 190:Middlewares/Third_Party/QuantumLeaps_RTEF_qpc/src/qf/qf_time.c **** #elif (QF_TIMEEVT_CTR_SIZE == 2U)
ARM GAS  C:\Users\main\AppData\Local\Temp\ccG3Qf2n.s 			page 13


 191:Middlewares/Third_Party/QuantumLeaps_RTEF_qpc/src/qf/qf_time.c ****     Q_REQUIRE_INCRIT(600, nTicks < 0xFFFFU);
 192:Middlewares/Third_Party/QuantumLeaps_RTEF_qpc/src/qf/qf_time.c **** #endif
 193:Middlewares/Third_Party/QuantumLeaps_RTEF_qpc/src/qf/qf_time.c **** 
 194:Middlewares/Third_Party/QuantumLeaps_RTEF_qpc/src/qf/qf_time.c ****     uint8_t const tickRate = me->tickRate;
 364              		.loc 1 194 5 view .LVU110
 365              		.loc 1 194 19 is_stmt 0 view .LVU111
 366 000a 237D     		ldrb	r3, [r4, #20]
 367              	.LVL34:
 195:Middlewares/Third_Party/QuantumLeaps_RTEF_qpc/src/qf/qf_time.c ****     QTimeEvtCtr const ctr = me->ctr;
 368              		.loc 1 195 5 is_stmt 1 view .LVU112
 369              		.loc 1 195 23 is_stmt 0 view .LVU113
 370 000c E268     		ldr	r2, [r4, #12]
 371              	.LVL35:
 196:Middlewares/Third_Party/QuantumLeaps_RTEF_qpc/src/qf/qf_time.c **** 
 197:Middlewares/Third_Party/QuantumLeaps_RTEF_qpc/src/qf/qf_time.c ****     Q_REQUIRE_INCRIT(610,
 372              		.loc 1 197 5 is_stmt 1 view .LVU114
 373 000e 002D     		cmp	r5, #0
 374 0010 1CD0     		beq	.L16
 375              		.loc 1 197 5 is_stmt 0 discriminator 2 view .LVU115
 376 0012 A168     		ldr	r1, [r4, #8]
 377 0014 0029     		cmp	r1, #0
 378 0016 19D0     		beq	.L16
 379              		.loc 1 197 5 discriminator 4 view .LVU116
 380 0018 002B     		cmp	r3, #0
 381 001a 17D1     		bne	.L16
 198:Middlewares/Third_Party/QuantumLeaps_RTEF_qpc/src/qf/qf_time.c ****         (nTicks != 0U)
 199:Middlewares/Third_Party/QuantumLeaps_RTEF_qpc/src/qf/qf_time.c ****         && (me->act != (void *)0)
 200:Middlewares/Third_Party/QuantumLeaps_RTEF_qpc/src/qf/qf_time.c ****         && (tickRate < QF_MAX_TICK_RATE));
 201:Middlewares/Third_Party/QuantumLeaps_RTEF_qpc/src/qf/qf_time.c **** 
 202:Middlewares/Third_Party/QuantumLeaps_RTEF_qpc/src/qf/qf_time.c **** #ifdef Q_SPY
 203:Middlewares/Third_Party/QuantumLeaps_RTEF_qpc/src/qf/qf_time.c ****     uint_fast8_t const qsId = ((QActive *)(me->act))->prio;
 204:Middlewares/Third_Party/QuantumLeaps_RTEF_qpc/src/qf/qf_time.c **** #endif
 205:Middlewares/Third_Party/QuantumLeaps_RTEF_qpc/src/qf/qf_time.c **** 
 206:Middlewares/Third_Party/QuantumLeaps_RTEF_qpc/src/qf/qf_time.c ****     me->ctr = (QTimeEvtCtr)nTicks;
 382              		.loc 1 206 5 is_stmt 1 view .LVU117
 383              		.loc 1 206 13 is_stmt 0 view .LVU118
 384 001c E560     		str	r5, [r4, #12]
 207:Middlewares/Third_Party/QuantumLeaps_RTEF_qpc/src/qf/qf_time.c **** 
 208:Middlewares/Third_Party/QuantumLeaps_RTEF_qpc/src/qf/qf_time.c ****     // was the time evt not running?
 209:Middlewares/Third_Party/QuantumLeaps_RTEF_qpc/src/qf/qf_time.c ****     bool wasArmed = false;
 385              		.loc 1 209 5 is_stmt 1 view .LVU119
 386              	.LVL36:
 210:Middlewares/Third_Party/QuantumLeaps_RTEF_qpc/src/qf/qf_time.c ****     if (ctr == 0U) {
 387              		.loc 1 210 5 view .LVU120
 388              		.loc 1 210 8 is_stmt 0 view .LVU121
 389 001e 002A     		cmp	r2, #0
 390 0020 18D1     		bne	.L19
 211:Middlewares/Third_Party/QuantumLeaps_RTEF_qpc/src/qf/qf_time.c ****         // NOTE: For the duration of a single clock tick of the specified
 212:Middlewares/Third_Party/QuantumLeaps_RTEF_qpc/src/qf/qf_time.c ****         // tick rate a time event can be disarmed and yet still linked into
 213:Middlewares/Third_Party/QuantumLeaps_RTEF_qpc/src/qf/qf_time.c ****         // the list, because unlinking is performed exclusively in the
 214:Middlewares/Third_Party/QuantumLeaps_RTEF_qpc/src/qf/qf_time.c ****         // QTimeEvt_tick_() function.
 215:Middlewares/Third_Party/QuantumLeaps_RTEF_qpc/src/qf/qf_time.c **** 
 216:Middlewares/Third_Party/QuantumLeaps_RTEF_qpc/src/qf/qf_time.c ****         // is the time event unlinked?
 217:Middlewares/Third_Party/QuantumLeaps_RTEF_qpc/src/qf/qf_time.c ****         if ((me->flags & QTE_FLAG_IS_LINKED) == 0U) {
 391              		.loc 1 217 9 is_stmt 1 view .LVU122
 392              		.loc 1 217 16 is_stmt 0 view .LVU123
 393 0022 607D     		ldrb	r0, [r4, #21]
ARM GAS  C:\Users\main\AppData\Local\Temp\ccG3Qf2n.s 			page 14


 394              		.loc 1 217 46 view .LVU124
 395 0024 1521     		movs	r1, #21
 396 0026 6156     		ldrsb	r1, [r4, r1]
 397              		.loc 1 217 12 view .LVU125
 398 0028 0029     		cmp	r1, #0
 399 002a 18DB     		blt	.L20
 218:Middlewares/Third_Party/QuantumLeaps_RTEF_qpc/src/qf/qf_time.c ****             me->flags |= QTE_FLAG_IS_LINKED; // mark as linked
 400              		.loc 1 218 13 is_stmt 1 view .LVU126
 401              		.loc 1 218 23 is_stmt 0 view .LVU127
 402 002c 803A     		subs	r2, r2, #128
 403              	.LVL37:
 404              		.loc 1 218 23 view .LVU128
 405 002e 0243     		orrs	r2, r0
 406              	.LVL38:
 407              		.loc 1 218 23 view .LVU129
 408 0030 6275     		strb	r2, [r4, #21]
 219:Middlewares/Third_Party/QuantumLeaps_RTEF_qpc/src/qf/qf_time.c **** 
 220:Middlewares/Third_Party/QuantumLeaps_RTEF_qpc/src/qf/qf_time.c ****             // The time event is initially inserted into the separate
 221:Middlewares/Third_Party/QuantumLeaps_RTEF_qpc/src/qf/qf_time.c ****             // "freshly armed" list based on timeEvtHead_[tickRate].act.
 222:Middlewares/Third_Party/QuantumLeaps_RTEF_qpc/src/qf/qf_time.c ****             // Only later, inside QTimeEvt_tick_(), the "freshly armed"
 223:Middlewares/Third_Party/QuantumLeaps_RTEF_qpc/src/qf/qf_time.c ****             // list is appended to the main list of armed time events based on
 224:Middlewares/Third_Party/QuantumLeaps_RTEF_qpc/src/qf/qf_time.c ****             // timeEvtHead_[tickRate].next. Again, this is to keep any
 225:Middlewares/Third_Party/QuantumLeaps_RTEF_qpc/src/qf/qf_time.c ****             // changes to the main list exclusively inside QTimeEvt_tick()_.
 226:Middlewares/Third_Party/QuantumLeaps_RTEF_qpc/src/qf/qf_time.c ****             me->next = (QTimeEvt *)QTimeEvt_timeEvtHead_[tickRate].act;
 409              		.loc 1 226 13 is_stmt 1 view .LVU130
 410              		.loc 1 226 67 is_stmt 0 view .LVU131
 411 0032 0C48     		ldr	r0, .L21
 412 0034 5A00     		lsls	r2, r3, #1
 413 0036 D118     		adds	r1, r2, r3
 414 0038 C900     		lsls	r1, r1, #3
 415 003a 4118     		adds	r1, r0, r1
 416 003c 8968     		ldr	r1, [r1, #8]
 417              		.loc 1 226 22 view .LVU132
 418 003e 6160     		str	r1, [r4, #4]
 227:Middlewares/Third_Party/QuantumLeaps_RTEF_qpc/src/qf/qf_time.c ****             QTimeEvt_timeEvtHead_[tickRate].act = me;
 419              		.loc 1 227 13 is_stmt 1 view .LVU133
 420              		.loc 1 227 49 is_stmt 0 view .LVU134
 421 0040 D218     		adds	r2, r2, r3
 422 0042 D200     		lsls	r2, r2, #3
 423 0044 8218     		adds	r2, r0, r2
 424 0046 9460     		str	r4, [r2, #8]
 209:Middlewares/Third_Party/QuantumLeaps_RTEF_qpc/src/qf/qf_time.c ****     if (ctr == 0U) {
 425              		.loc 1 209 10 view .LVU135
 426 0048 0024     		movs	r4, #0
 427              	.LVL39:
 209:Middlewares/Third_Party/QuantumLeaps_RTEF_qpc/src/qf/qf_time.c ****     if (ctr == 0U) {
 428              		.loc 1 209 10 view .LVU136
 429 004a 04E0     		b	.L18
 430              	.LVL40:
 431              	.L16:
 197:Middlewares/Third_Party/QuantumLeaps_RTEF_qpc/src/qf/qf_time.c ****         (nTicks != 0U)
 432              		.loc 1 197 5 discriminator 5 view .LVU137
 433 004c 0649     		ldr	r1, .L21+4
 434 004e 0748     		ldr	r0, .L21+8
 435 0050 FFF7FEFF 		bl	Q_onError
 436              	.LVL41:
 437              	.L19:
ARM GAS  C:\Users\main\AppData\Local\Temp\ccG3Qf2n.s 			page 15


 228:Middlewares/Third_Party/QuantumLeaps_RTEF_qpc/src/qf/qf_time.c ****         }
 229:Middlewares/Third_Party/QuantumLeaps_RTEF_qpc/src/qf/qf_time.c ****     }
 230:Middlewares/Third_Party/QuantumLeaps_RTEF_qpc/src/qf/qf_time.c ****     else { // the time event was armed
 231:Middlewares/Third_Party/QuantumLeaps_RTEF_qpc/src/qf/qf_time.c ****         wasArmed = true;
 438              		.loc 1 231 18 view .LVU138
 439 0054 0124     		movs	r4, #1
 440              	.LVL42:
 441              	.L18:
 232:Middlewares/Third_Party/QuantumLeaps_RTEF_qpc/src/qf/qf_time.c ****     }
 233:Middlewares/Third_Party/QuantumLeaps_RTEF_qpc/src/qf/qf_time.c **** 
 234:Middlewares/Third_Party/QuantumLeaps_RTEF_qpc/src/qf/qf_time.c ****     QS_BEGIN_PRE(QS_QF_TIMEEVT_REARM, qsId)
 442              		.loc 1 234 5 is_stmt 1 view .LVU139
 235:Middlewares/Third_Party/QuantumLeaps_RTEF_qpc/src/qf/qf_time.c ****         QS_TIME_PRE();            // timestamp
 443              		.loc 1 235 9 view .LVU140
 236:Middlewares/Third_Party/QuantumLeaps_RTEF_qpc/src/qf/qf_time.c ****         QS_OBJ_PRE(me);           // this time event object
 444              		.loc 1 236 9 view .LVU141
 237:Middlewares/Third_Party/QuantumLeaps_RTEF_qpc/src/qf/qf_time.c ****         QS_OBJ_PRE(me->act);      // the target AO
 445              		.loc 1 237 9 view .LVU142
 238:Middlewares/Third_Party/QuantumLeaps_RTEF_qpc/src/qf/qf_time.c ****         QS_TEC_PRE(nTicks);       // the # ticks
 446              		.loc 1 238 9 view .LVU143
 239:Middlewares/Third_Party/QuantumLeaps_RTEF_qpc/src/qf/qf_time.c ****         QS_TEC_PRE(me->interval); // the interval
 447              		.loc 1 239 9 view .LVU144
 240:Middlewares/Third_Party/QuantumLeaps_RTEF_qpc/src/qf/qf_time.c ****         QS_2U8_PRE(tickRate, (wasArmed ? 1U : 0U));
 448              		.loc 1 240 9 view .LVU145
 241:Middlewares/Third_Party/QuantumLeaps_RTEF_qpc/src/qf/qf_time.c ****     QS_END_PRE()
 242:Middlewares/Third_Party/QuantumLeaps_RTEF_qpc/src/qf/qf_time.c **** 
 243:Middlewares/Third_Party/QuantumLeaps_RTEF_qpc/src/qf/qf_time.c ****     QF_CRIT_EXIT();
 449              		.loc 1 243 5 view .LVU146
 450 0056 FFF7FEFF 		bl	vPortExitCritical
 451              	.LVL43:
 244:Middlewares/Third_Party/QuantumLeaps_RTEF_qpc/src/qf/qf_time.c **** 
 245:Middlewares/Third_Party/QuantumLeaps_RTEF_qpc/src/qf/qf_time.c ****     return wasArmed;
 452              		.loc 1 245 5 view .LVU147
 246:Middlewares/Third_Party/QuantumLeaps_RTEF_qpc/src/qf/qf_time.c **** }
 453              		.loc 1 246 1 is_stmt 0 view .LVU148
 454 005a 2000     		movs	r0, r4
 455              		@ sp needed
 456              	.LVL44:
 457              	.LVL45:
 458              		.loc 1 246 1 view .LVU149
 459 005c 70BD     		pop	{r4, r5, r6, pc}
 460              	.LVL46:
 461              	.L20:
 209:Middlewares/Third_Party/QuantumLeaps_RTEF_qpc/src/qf/qf_time.c ****     if (ctr == 0U) {
 462              		.loc 1 209 10 view .LVU150
 463 005e 0024     		movs	r4, #0
 464              	.LVL47:
 209:Middlewares/Third_Party/QuantumLeaps_RTEF_qpc/src/qf/qf_time.c ****     if (ctr == 0U) {
 465              		.loc 1 209 10 view .LVU151
 466 0060 F9E7     		b	.L18
 467              	.L22:
 468 0062 C046     		.align	2
 469              	.L21:
 470 0064 00000000 		.word	.LANCHOR1
 471 0068 62020000 		.word	610
 472 006c 00000000 		.word	.LANCHOR0
 473              		.cfi_endproc
ARM GAS  C:\Users\main\AppData\Local\Temp\ccG3Qf2n.s 			page 16


 474              	.LFE21:
 476              		.section	.text.QTimeEvt_wasDisarmed,"ax",%progbits
 477              		.align	1
 478              		.global	QTimeEvt_wasDisarmed
 479              		.syntax unified
 480              		.code	16
 481              		.thumb_func
 483              	QTimeEvt_wasDisarmed:
 484              	.LVL48:
 485              	.LFB22:
 247:Middlewares/Third_Party/QuantumLeaps_RTEF_qpc/src/qf/qf_time.c **** 
 248:Middlewares/Third_Party/QuantumLeaps_RTEF_qpc/src/qf/qf_time.c **** //............................................................................
 249:Middlewares/Third_Party/QuantumLeaps_RTEF_qpc/src/qf/qf_time.c **** //! @public @memberof QTimeEvt
 250:Middlewares/Third_Party/QuantumLeaps_RTEF_qpc/src/qf/qf_time.c **** bool QTimeEvt_wasDisarmed(QTimeEvt * const me) {
 486              		.loc 1 250 48 is_stmt 1 view -0
 487              		.cfi_startproc
 488              		@ args = 0, pretend = 0, frame = 0
 489              		@ frame_needed = 0, uses_anonymous_args = 0
 490              		.loc 1 250 48 is_stmt 0 view .LVU153
 491 0000 70B5     		push	{r4, r5, r6, lr}
 492              	.LCFI4:
 493              		.cfi_def_cfa_offset 16
 494              		.cfi_offset 4, -16
 495              		.cfi_offset 5, -12
 496              		.cfi_offset 6, -8
 497              		.cfi_offset 14, -4
 498 0002 0400     		movs	r4, r0
 251:Middlewares/Third_Party/QuantumLeaps_RTEF_qpc/src/qf/qf_time.c ****     QF_CRIT_STAT
 252:Middlewares/Third_Party/QuantumLeaps_RTEF_qpc/src/qf/qf_time.c ****     QF_CRIT_ENTRY();
 499              		.loc 1 252 5 is_stmt 1 view .LVU154
 500 0004 FFF7FEFF 		bl	vPortEnterCritical
 501              	.LVL49:
 253:Middlewares/Third_Party/QuantumLeaps_RTEF_qpc/src/qf/qf_time.c **** 
 254:Middlewares/Third_Party/QuantumLeaps_RTEF_qpc/src/qf/qf_time.c ****     bool const wasDisarmed = (me->flags & QTE_FLAG_WAS_DISARMED) != 0U;
 502              		.loc 1 254 5 view .LVU155
 503              		.loc 1 254 33 is_stmt 0 view .LVU156
 504 0008 637D     		ldrb	r3, [r4, #21]
 505              		.loc 1 254 16 view .LVU157
 506 000a 9A09     		lsrs	r2, r3, #6
 507 000c 0125     		movs	r5, #1
 508 000e 1540     		ands	r5, r2
 509              	.LVL50:
 255:Middlewares/Third_Party/QuantumLeaps_RTEF_qpc/src/qf/qf_time.c ****     me->flags |= QTE_FLAG_WAS_DISARMED; // mark as disarmed
 510              		.loc 1 255 5 is_stmt 1 view .LVU158
 511              		.loc 1 255 15 is_stmt 0 view .LVU159
 512 0010 4022     		movs	r2, #64
 513 0012 1343     		orrs	r3, r2
 514 0014 6375     		strb	r3, [r4, #21]
 256:Middlewares/Third_Party/QuantumLeaps_RTEF_qpc/src/qf/qf_time.c **** 
 257:Middlewares/Third_Party/QuantumLeaps_RTEF_qpc/src/qf/qf_time.c ****     QF_CRIT_EXIT();
 515              		.loc 1 257 5 is_stmt 1 view .LVU160
 516 0016 FFF7FEFF 		bl	vPortExitCritical
 517              	.LVL51:
 258:Middlewares/Third_Party/QuantumLeaps_RTEF_qpc/src/qf/qf_time.c **** 
 259:Middlewares/Third_Party/QuantumLeaps_RTEF_qpc/src/qf/qf_time.c ****     return wasDisarmed;
 518              		.loc 1 259 5 view .LVU161
 260:Middlewares/Third_Party/QuantumLeaps_RTEF_qpc/src/qf/qf_time.c **** }
ARM GAS  C:\Users\main\AppData\Local\Temp\ccG3Qf2n.s 			page 17


 519              		.loc 1 260 1 is_stmt 0 view .LVU162
 520 001a 2800     		movs	r0, r5
 521              		@ sp needed
 522              	.LVL52:
 523              	.LVL53:
 524              		.loc 1 260 1 view .LVU163
 525 001c 70BD     		pop	{r4, r5, r6, pc}
 526              		.cfi_endproc
 527              	.LFE22:
 529              		.section	.text.QTimeEvt_currCtr,"ax",%progbits
 530              		.align	1
 531              		.global	QTimeEvt_currCtr
 532              		.syntax unified
 533              		.code	16
 534              		.thumb_func
 536              	QTimeEvt_currCtr:
 537              	.LVL54:
 538              	.LFB23:
 261:Middlewares/Third_Party/QuantumLeaps_RTEF_qpc/src/qf/qf_time.c **** 
 262:Middlewares/Third_Party/QuantumLeaps_RTEF_qpc/src/qf/qf_time.c **** //............................................................................
 263:Middlewares/Third_Party/QuantumLeaps_RTEF_qpc/src/qf/qf_time.c **** //! @public @memberof QTimeEvt
 264:Middlewares/Third_Party/QuantumLeaps_RTEF_qpc/src/qf/qf_time.c **** QTimeEvtCtr QTimeEvt_currCtr(QTimeEvt const * const me) {
 539              		.loc 1 264 57 is_stmt 1 view -0
 540              		.cfi_startproc
 541              		@ args = 0, pretend = 0, frame = 0
 542              		@ frame_needed = 0, uses_anonymous_args = 0
 543              		.loc 1 264 57 is_stmt 0 view .LVU165
 544 0000 10B5     		push	{r4, lr}
 545              	.LCFI5:
 546              		.cfi_def_cfa_offset 8
 547              		.cfi_offset 4, -8
 548              		.cfi_offset 14, -4
 549 0002 0400     		movs	r4, r0
 265:Middlewares/Third_Party/QuantumLeaps_RTEF_qpc/src/qf/qf_time.c ****     QF_CRIT_STAT
 266:Middlewares/Third_Party/QuantumLeaps_RTEF_qpc/src/qf/qf_time.c ****     QF_CRIT_ENTRY();
 550              		.loc 1 266 5 is_stmt 1 view .LVU166
 551 0004 FFF7FEFF 		bl	vPortEnterCritical
 552              	.LVL55:
 267:Middlewares/Third_Party/QuantumLeaps_RTEF_qpc/src/qf/qf_time.c ****     QTimeEvtCtr const ctr = me->ctr;
 553              		.loc 1 267 5 view .LVU167
 554              		.loc 1 267 23 is_stmt 0 view .LVU168
 555 0008 E468     		ldr	r4, [r4, #12]
 556              	.LVL56:
 268:Middlewares/Third_Party/QuantumLeaps_RTEF_qpc/src/qf/qf_time.c ****     QF_CRIT_EXIT();
 557              		.loc 1 268 5 is_stmt 1 view .LVU169
 558 000a FFF7FEFF 		bl	vPortExitCritical
 559              	.LVL57:
 269:Middlewares/Third_Party/QuantumLeaps_RTEF_qpc/src/qf/qf_time.c **** 
 270:Middlewares/Third_Party/QuantumLeaps_RTEF_qpc/src/qf/qf_time.c ****     return ctr;
 560              		.loc 1 270 5 view .LVU170
 271:Middlewares/Third_Party/QuantumLeaps_RTEF_qpc/src/qf/qf_time.c **** }
 561              		.loc 1 271 1 is_stmt 0 view .LVU171
 562 000e 2000     		movs	r0, r4
 563              		@ sp needed
 564              	.LVL58:
 565              		.loc 1 271 1 view .LVU172
 566 0010 10BD     		pop	{r4, pc}
ARM GAS  C:\Users\main\AppData\Local\Temp\ccG3Qf2n.s 			page 18


 567              		.cfi_endproc
 568              	.LFE23:
 570              		.section	.text.QTimeEvt_init,"ax",%progbits
 571              		.align	1
 572              		.global	QTimeEvt_init
 573              		.syntax unified
 574              		.code	16
 575              		.thumb_func
 577              	QTimeEvt_init:
 578              	.LFB24:
 272:Middlewares/Third_Party/QuantumLeaps_RTEF_qpc/src/qf/qf_time.c **** 
 273:Middlewares/Third_Party/QuantumLeaps_RTEF_qpc/src/qf/qf_time.c **** //............................................................................
 274:Middlewares/Third_Party/QuantumLeaps_RTEF_qpc/src/qf/qf_time.c **** //! @static @private @memberof QTimeEvt
 275:Middlewares/Third_Party/QuantumLeaps_RTEF_qpc/src/qf/qf_time.c **** void QTimeEvt_init(void) {
 579              		.loc 1 275 26 is_stmt 1 view -0
 580              		.cfi_startproc
 581              		@ args = 0, pretend = 0, frame = 0
 582              		@ frame_needed = 0, uses_anonymous_args = 0
 583 0000 10B5     		push	{r4, lr}
 584              	.LCFI6:
 585              		.cfi_def_cfa_offset 8
 586              		.cfi_offset 4, -8
 587              		.cfi_offset 14, -4
 276:Middlewares/Third_Party/QuantumLeaps_RTEF_qpc/src/qf/qf_time.c ****     for (uint_fast8_t tickRate = 0U;
 588              		.loc 1 276 5 view .LVU174
 589              	.LBB6:
 590              		.loc 1 276 10 view .LVU175
 591              	.LVL59:
 592              		.loc 1 276 23 is_stmt 0 view .LVU176
 593 0002 0024     		movs	r4, #0
 594              	.LVL60:
 595              	.L26:
 277:Middlewares/Third_Party/QuantumLeaps_RTEF_qpc/src/qf/qf_time.c ****          tickRate < Q_DIM(QTimeEvt_timeEvtHead_);
 596              		.loc 1 277 10 is_stmt 1 discriminator 1 view .LVU177
 276:Middlewares/Third_Party/QuantumLeaps_RTEF_qpc/src/qf/qf_time.c ****     for (uint_fast8_t tickRate = 0U;
 597              		.loc 1 276 5 is_stmt 0 discriminator 1 view .LVU178
 598 0004 002C     		cmp	r4, #0
 599 0006 00D0     		beq	.L27
 600              	.LBE6:
 278:Middlewares/Third_Party/QuantumLeaps_RTEF_qpc/src/qf/qf_time.c ****          ++tickRate)
 279:Middlewares/Third_Party/QuantumLeaps_RTEF_qpc/src/qf/qf_time.c ****     {
 280:Middlewares/Third_Party/QuantumLeaps_RTEF_qpc/src/qf/qf_time.c ****         QTimeEvt_ctorX(&QTimeEvt_timeEvtHead_[tickRate],
 281:Middlewares/Third_Party/QuantumLeaps_RTEF_qpc/src/qf/qf_time.c ****                        (QActive *)0, Q_USER_SIG, tickRate);
 282:Middlewares/Third_Party/QuantumLeaps_RTEF_qpc/src/qf/qf_time.c ****     }
 283:Middlewares/Third_Party/QuantumLeaps_RTEF_qpc/src/qf/qf_time.c **** }
 601              		.loc 1 283 1 view .LVU179
 602              		@ sp needed
 603              	.LVL61:
 604              		.loc 1 283 1 view .LVU180
 605 0008 10BD     		pop	{r4, pc}
 606              	.LVL62:
 607              	.L27:
 608              	.LBB7:
 280:Middlewares/Third_Party/QuantumLeaps_RTEF_qpc/src/qf/qf_time.c ****                        (QActive *)0, Q_USER_SIG, tickRate);
 609              		.loc 1 280 9 is_stmt 1 view .LVU181
 610 000a 6300     		lsls	r3, r4, #1
 611 000c 1B19     		adds	r3, r3, r4
ARM GAS  C:\Users\main\AppData\Local\Temp\ccG3Qf2n.s 			page 19


 612 000e DA00     		lsls	r2, r3, #3
 613 0010 0448     		ldr	r0, .L28
 614 0012 8018     		adds	r0, r0, r2
 615 0014 2300     		movs	r3, r4
 616 0016 0422     		movs	r2, #4
 617 0018 0021     		movs	r1, #0
 618 001a FFF7FEFF 		bl	QTimeEvt_ctorX
 619              	.LVL63:
 278:Middlewares/Third_Party/QuantumLeaps_RTEF_qpc/src/qf/qf_time.c ****          ++tickRate)
 620              		.loc 1 278 10 view .LVU182
 621 001e 0134     		adds	r4, r4, #1
 622              	.LVL64:
 278:Middlewares/Third_Party/QuantumLeaps_RTEF_qpc/src/qf/qf_time.c ****          ++tickRate)
 623              		.loc 1 278 10 is_stmt 0 view .LVU183
 624 0020 F0E7     		b	.L26
 625              	.L29:
 626 0022 C046     		.align	2
 627              	.L28:
 628 0024 00000000 		.word	.LANCHOR1
 629              	.LBE7:
 630              		.cfi_endproc
 631              	.LFE24:
 633              		.section	.text.QTimeEvt_noActive,"ax",%progbits
 634              		.align	1
 635              		.global	QTimeEvt_noActive
 636              		.syntax unified
 637              		.code	16
 638              		.thumb_func
 640              	QTimeEvt_noActive:
 641              	.LVL65:
 642              	.LFB26:
 284:Middlewares/Third_Party/QuantumLeaps_RTEF_qpc/src/qf/qf_time.c **** 
 285:Middlewares/Third_Party/QuantumLeaps_RTEF_qpc/src/qf/qf_time.c **** //............................................................................
 286:Middlewares/Third_Party/QuantumLeaps_RTEF_qpc/src/qf/qf_time.c **** //! @static @private @memberof QTimeEvt
 287:Middlewares/Third_Party/QuantumLeaps_RTEF_qpc/src/qf/qf_time.c **** void QTimeEvt_tick_(
 288:Middlewares/Third_Party/QuantumLeaps_RTEF_qpc/src/qf/qf_time.c ****     uint_fast8_t const tickRate,
 289:Middlewares/Third_Party/QuantumLeaps_RTEF_qpc/src/qf/qf_time.c ****     void const * const sender)
 290:Middlewares/Third_Party/QuantumLeaps_RTEF_qpc/src/qf/qf_time.c **** {
 291:Middlewares/Third_Party/QuantumLeaps_RTEF_qpc/src/qf/qf_time.c **** #ifndef Q_SPY
 292:Middlewares/Third_Party/QuantumLeaps_RTEF_qpc/src/qf/qf_time.c ****     Q_UNUSED_PAR(sender);
 293:Middlewares/Third_Party/QuantumLeaps_RTEF_qpc/src/qf/qf_time.c **** #endif
 294:Middlewares/Third_Party/QuantumLeaps_RTEF_qpc/src/qf/qf_time.c **** 
 295:Middlewares/Third_Party/QuantumLeaps_RTEF_qpc/src/qf/qf_time.c ****     QF_CRIT_STAT
 296:Middlewares/Third_Party/QuantumLeaps_RTEF_qpc/src/qf/qf_time.c ****     QF_CRIT_ENTRY();
 297:Middlewares/Third_Party/QuantumLeaps_RTEF_qpc/src/qf/qf_time.c **** 
 298:Middlewares/Third_Party/QuantumLeaps_RTEF_qpc/src/qf/qf_time.c ****     Q_REQUIRE_INCRIT(800, tickRate < Q_DIM(QTimeEvt_timeEvtHead_));
 299:Middlewares/Third_Party/QuantumLeaps_RTEF_qpc/src/qf/qf_time.c **** 
 300:Middlewares/Third_Party/QuantumLeaps_RTEF_qpc/src/qf/qf_time.c ****     QTimeEvt *prev = &QTimeEvt_timeEvtHead_[tickRate];
 301:Middlewares/Third_Party/QuantumLeaps_RTEF_qpc/src/qf/qf_time.c **** 
 302:Middlewares/Third_Party/QuantumLeaps_RTEF_qpc/src/qf/qf_time.c **** #ifdef Q_SPY
 303:Middlewares/Third_Party/QuantumLeaps_RTEF_qpc/src/qf/qf_time.c ****     QS_BEGIN_PRE(QS_QF_TICK, 0U)
 304:Middlewares/Third_Party/QuantumLeaps_RTEF_qpc/src/qf/qf_time.c ****         ++prev->ctr;
 305:Middlewares/Third_Party/QuantumLeaps_RTEF_qpc/src/qf/qf_time.c ****         QS_TEC_PRE(prev->ctr);   // tick ctr
 306:Middlewares/Third_Party/QuantumLeaps_RTEF_qpc/src/qf/qf_time.c ****         QS_U8_PRE(tickRate);     // tick rate
 307:Middlewares/Third_Party/QuantumLeaps_RTEF_qpc/src/qf/qf_time.c ****     QS_END_PRE()
 308:Middlewares/Third_Party/QuantumLeaps_RTEF_qpc/src/qf/qf_time.c **** #endif // def Q_SPY
 309:Middlewares/Third_Party/QuantumLeaps_RTEF_qpc/src/qf/qf_time.c **** 
ARM GAS  C:\Users\main\AppData\Local\Temp\ccG3Qf2n.s 			page 20


 310:Middlewares/Third_Party/QuantumLeaps_RTEF_qpc/src/qf/qf_time.c ****     // scan the linked-list of time events at this rate...
 311:Middlewares/Third_Party/QuantumLeaps_RTEF_qpc/src/qf/qf_time.c ****     while (true) {
 312:Middlewares/Third_Party/QuantumLeaps_RTEF_qpc/src/qf/qf_time.c ****         Q_ASSERT_INCRIT(810, prev != (QTimeEvt *)0); // sanity check
 313:Middlewares/Third_Party/QuantumLeaps_RTEF_qpc/src/qf/qf_time.c **** 
 314:Middlewares/Third_Party/QuantumLeaps_RTEF_qpc/src/qf/qf_time.c ****         QTimeEvt *te = prev->next; // advance down the time evt. list
 315:Middlewares/Third_Party/QuantumLeaps_RTEF_qpc/src/qf/qf_time.c **** 
 316:Middlewares/Third_Party/QuantumLeaps_RTEF_qpc/src/qf/qf_time.c ****         if (te == (QTimeEvt *)0) { // end of the list?
 317:Middlewares/Third_Party/QuantumLeaps_RTEF_qpc/src/qf/qf_time.c ****             // NO any new time events armed since the last QTimeEvt_tick_()?
 318:Middlewares/Third_Party/QuantumLeaps_RTEF_qpc/src/qf/qf_time.c ****             if (QTimeEvt_timeEvtHead_[tickRate].act == (void *)0) {
 319:Middlewares/Third_Party/QuantumLeaps_RTEF_qpc/src/qf/qf_time.c ****                 break; // terminate the while-loop
 320:Middlewares/Third_Party/QuantumLeaps_RTEF_qpc/src/qf/qf_time.c ****             }
 321:Middlewares/Third_Party/QuantumLeaps_RTEF_qpc/src/qf/qf_time.c **** 
 322:Middlewares/Third_Party/QuantumLeaps_RTEF_qpc/src/qf/qf_time.c ****             prev->next = (QTimeEvt*)QTimeEvt_timeEvtHead_[tickRate].act;
 323:Middlewares/Third_Party/QuantumLeaps_RTEF_qpc/src/qf/qf_time.c ****             QTimeEvt_timeEvtHead_[tickRate].act = (void *)0;
 324:Middlewares/Third_Party/QuantumLeaps_RTEF_qpc/src/qf/qf_time.c **** 
 325:Middlewares/Third_Party/QuantumLeaps_RTEF_qpc/src/qf/qf_time.c ****             te = prev->next; // switch to the new list
 326:Middlewares/Third_Party/QuantumLeaps_RTEF_qpc/src/qf/qf_time.c ****         }
 327:Middlewares/Third_Party/QuantumLeaps_RTEF_qpc/src/qf/qf_time.c **** 
 328:Middlewares/Third_Party/QuantumLeaps_RTEF_qpc/src/qf/qf_time.c ****         // the time event 'te' must be valid
 329:Middlewares/Third_Party/QuantumLeaps_RTEF_qpc/src/qf/qf_time.c ****         Q_ASSERT_INCRIT(840, te != (QTimeEvt *)0);
 330:Middlewares/Third_Party/QuantumLeaps_RTEF_qpc/src/qf/qf_time.c **** 
 331:Middlewares/Third_Party/QuantumLeaps_RTEF_qpc/src/qf/qf_time.c ****         QTimeEvtCtr ctr = te->ctr; // move volatile into temporary
 332:Middlewares/Third_Party/QuantumLeaps_RTEF_qpc/src/qf/qf_time.c **** 
 333:Middlewares/Third_Party/QuantumLeaps_RTEF_qpc/src/qf/qf_time.c ****         if (ctr == 0U) { // time event scheduled for removal?
 334:Middlewares/Third_Party/QuantumLeaps_RTEF_qpc/src/qf/qf_time.c ****             prev->next = te->next;
 335:Middlewares/Third_Party/QuantumLeaps_RTEF_qpc/src/qf/qf_time.c **** 
 336:Middlewares/Third_Party/QuantumLeaps_RTEF_qpc/src/qf/qf_time.c ****             // mark time event 'te' as NOT linked
 337:Middlewares/Third_Party/QuantumLeaps_RTEF_qpc/src/qf/qf_time.c ****             te->flags &= (uint8_t)(~QTE_FLAG_IS_LINKED & 0xFFU);
 338:Middlewares/Third_Party/QuantumLeaps_RTEF_qpc/src/qf/qf_time.c ****             // do NOT advance the prev pointer
 339:Middlewares/Third_Party/QuantumLeaps_RTEF_qpc/src/qf/qf_time.c ****             QF_CRIT_EXIT(); // exit crit. section to reduce latency
 340:Middlewares/Third_Party/QuantumLeaps_RTEF_qpc/src/qf/qf_time.c ****         }
 341:Middlewares/Third_Party/QuantumLeaps_RTEF_qpc/src/qf/qf_time.c ****         else if (ctr == 1U) { // is time event about to expire?
 342:Middlewares/Third_Party/QuantumLeaps_RTEF_qpc/src/qf/qf_time.c ****             QActive * const act = (QActive *)te->act;
 343:Middlewares/Third_Party/QuantumLeaps_RTEF_qpc/src/qf/qf_time.c ****             prev = QTimeEvt_expire_(te, prev, act, tickRate);
 344:Middlewares/Third_Party/QuantumLeaps_RTEF_qpc/src/qf/qf_time.c **** 
 345:Middlewares/Third_Party/QuantumLeaps_RTEF_qpc/src/qf/qf_time.c **** #ifdef QXK_H_
 346:Middlewares/Third_Party/QuantumLeaps_RTEF_qpc/src/qf/qf_time.c ****             if ((enum_t)te->super.sig < Q_USER_SIG) {
 347:Middlewares/Third_Party/QuantumLeaps_RTEF_qpc/src/qf/qf_time.c ****                 QXThread_timeout_(act);
 348:Middlewares/Third_Party/QuantumLeaps_RTEF_qpc/src/qf/qf_time.c ****                 QF_CRIT_EXIT();
 349:Middlewares/Third_Party/QuantumLeaps_RTEF_qpc/src/qf/qf_time.c ****             }
 350:Middlewares/Third_Party/QuantumLeaps_RTEF_qpc/src/qf/qf_time.c ****             else {
 351:Middlewares/Third_Party/QuantumLeaps_RTEF_qpc/src/qf/qf_time.c ****                 QF_CRIT_EXIT(); // exit crit. section before posting
 352:Middlewares/Third_Party/QuantumLeaps_RTEF_qpc/src/qf/qf_time.c **** 
 353:Middlewares/Third_Party/QuantumLeaps_RTEF_qpc/src/qf/qf_time.c ****                 // QACTIVE_POST() asserts if the queue overflows
 354:Middlewares/Third_Party/QuantumLeaps_RTEF_qpc/src/qf/qf_time.c ****                 QACTIVE_POST(act, &te->super, sender);
 355:Middlewares/Third_Party/QuantumLeaps_RTEF_qpc/src/qf/qf_time.c ****             }
 356:Middlewares/Third_Party/QuantumLeaps_RTEF_qpc/src/qf/qf_time.c **** #else // not QXK
 357:Middlewares/Third_Party/QuantumLeaps_RTEF_qpc/src/qf/qf_time.c ****             QF_CRIT_EXIT(); // exit crit. section before posting
 358:Middlewares/Third_Party/QuantumLeaps_RTEF_qpc/src/qf/qf_time.c **** 
 359:Middlewares/Third_Party/QuantumLeaps_RTEF_qpc/src/qf/qf_time.c ****             // QACTIVE_POST() asserts if the queue overflows
 360:Middlewares/Third_Party/QuantumLeaps_RTEF_qpc/src/qf/qf_time.c ****             QACTIVE_POST(act, &te->super, sender);
 361:Middlewares/Third_Party/QuantumLeaps_RTEF_qpc/src/qf/qf_time.c **** #endif
 362:Middlewares/Third_Party/QuantumLeaps_RTEF_qpc/src/qf/qf_time.c ****         }
 363:Middlewares/Third_Party/QuantumLeaps_RTEF_qpc/src/qf/qf_time.c ****         else { // time event keeps timing out
 364:Middlewares/Third_Party/QuantumLeaps_RTEF_qpc/src/qf/qf_time.c ****             --ctr; // decrement the tick counter
 365:Middlewares/Third_Party/QuantumLeaps_RTEF_qpc/src/qf/qf_time.c ****             te->ctr = ctr; // update the original
 366:Middlewares/Third_Party/QuantumLeaps_RTEF_qpc/src/qf/qf_time.c **** 
ARM GAS  C:\Users\main\AppData\Local\Temp\ccG3Qf2n.s 			page 21


 367:Middlewares/Third_Party/QuantumLeaps_RTEF_qpc/src/qf/qf_time.c ****             prev = te; // advance to this time event
 368:Middlewares/Third_Party/QuantumLeaps_RTEF_qpc/src/qf/qf_time.c ****             QF_CRIT_EXIT(); // exit crit. section to reduce latency
 369:Middlewares/Third_Party/QuantumLeaps_RTEF_qpc/src/qf/qf_time.c ****         }
 370:Middlewares/Third_Party/QuantumLeaps_RTEF_qpc/src/qf/qf_time.c ****         QF_CRIT_ENTRY(); // re-enter crit. section to continue the loop
 371:Middlewares/Third_Party/QuantumLeaps_RTEF_qpc/src/qf/qf_time.c ****     }
 372:Middlewares/Third_Party/QuantumLeaps_RTEF_qpc/src/qf/qf_time.c ****     QF_CRIT_EXIT();
 373:Middlewares/Third_Party/QuantumLeaps_RTEF_qpc/src/qf/qf_time.c **** }
 374:Middlewares/Third_Party/QuantumLeaps_RTEF_qpc/src/qf/qf_time.c **** 
 375:Middlewares/Third_Party/QuantumLeaps_RTEF_qpc/src/qf/qf_time.c **** //............................................................................
 376:Middlewares/Third_Party/QuantumLeaps_RTEF_qpc/src/qf/qf_time.c **** //! @static @public @memberof QTimeEvt
 377:Middlewares/Third_Party/QuantumLeaps_RTEF_qpc/src/qf/qf_time.c **** bool QTimeEvt_noActive(uint_fast8_t const tickRate) {
 643              		.loc 1 377 53 is_stmt 1 view -0
 644              		.cfi_startproc
 645              		@ args = 0, pretend = 0, frame = 0
 646              		@ frame_needed = 0, uses_anonymous_args = 0
 647              		.loc 1 377 53 is_stmt 0 view .LVU185
 648 0000 10B5     		push	{r4, lr}
 649              	.LCFI7:
 650              		.cfi_def_cfa_offset 8
 651              		.cfi_offset 4, -8
 652              		.cfi_offset 14, -4
 378:Middlewares/Third_Party/QuantumLeaps_RTEF_qpc/src/qf/qf_time.c ****     // NOTE: this function must be called *inside* critical section
 379:Middlewares/Third_Party/QuantumLeaps_RTEF_qpc/src/qf/qf_time.c ****     Q_REQUIRE_INCRIT(900, tickRate < QF_MAX_TICK_RATE);
 653              		.loc 1 379 5 is_stmt 1 view .LVU186
 654 0002 0028     		cmp	r0, #0
 655 0004 09D1     		bne	.L35
 380:Middlewares/Third_Party/QuantumLeaps_RTEF_qpc/src/qf/qf_time.c **** 
 381:Middlewares/Third_Party/QuantumLeaps_RTEF_qpc/src/qf/qf_time.c ****     bool inactive = false;
 656              		.loc 1 381 5 view .LVU187
 657              	.LVL66:
 382:Middlewares/Third_Party/QuantumLeaps_RTEF_qpc/src/qf/qf_time.c **** 
 383:Middlewares/Third_Party/QuantumLeaps_RTEF_qpc/src/qf/qf_time.c ****     if (QTimeEvt_timeEvtHead_[tickRate].next != (QTimeEvt *)0) {
 658              		.loc 1 383 5 view .LVU188
 659              		.loc 1 383 40 is_stmt 0 view .LVU189
 660 0006 4300     		lsls	r3, r0, #1
 661 0008 1B18     		adds	r3, r3, r0
 662 000a DB00     		lsls	r3, r3, #3
 663 000c 0B4A     		ldr	r2, .L37
 664 000e D318     		adds	r3, r2, r3
 665 0010 5B68     		ldr	r3, [r3, #4]
 666              		.loc 1 383 8 view .LVU190
 667 0012 002B     		cmp	r3, #0
 668 0014 06D0     		beq	.L36
 381:Middlewares/Third_Party/QuantumLeaps_RTEF_qpc/src/qf/qf_time.c **** 
 669              		.loc 1 381 10 view .LVU191
 670 0016 0020     		movs	r0, #0
 671              	.LVL67:
 672              	.L32:
 384:Middlewares/Third_Party/QuantumLeaps_RTEF_qpc/src/qf/qf_time.c ****         // empty
 385:Middlewares/Third_Party/QuantumLeaps_RTEF_qpc/src/qf/qf_time.c ****     }
 386:Middlewares/Third_Party/QuantumLeaps_RTEF_qpc/src/qf/qf_time.c ****     else if ((QTimeEvt_timeEvtHead_[tickRate].act != (void *)0)) {
 387:Middlewares/Third_Party/QuantumLeaps_RTEF_qpc/src/qf/qf_time.c ****         // empty
 388:Middlewares/Third_Party/QuantumLeaps_RTEF_qpc/src/qf/qf_time.c ****     }
 389:Middlewares/Third_Party/QuantumLeaps_RTEF_qpc/src/qf/qf_time.c ****     else {
 390:Middlewares/Third_Party/QuantumLeaps_RTEF_qpc/src/qf/qf_time.c ****         inactive = true;
 391:Middlewares/Third_Party/QuantumLeaps_RTEF_qpc/src/qf/qf_time.c ****     }
 392:Middlewares/Third_Party/QuantumLeaps_RTEF_qpc/src/qf/qf_time.c **** 
ARM GAS  C:\Users\main\AppData\Local\Temp\ccG3Qf2n.s 			page 22


 393:Middlewares/Third_Party/QuantumLeaps_RTEF_qpc/src/qf/qf_time.c ****     return inactive;
 673              		.loc 1 393 5 is_stmt 1 view .LVU192
 394:Middlewares/Third_Party/QuantumLeaps_RTEF_qpc/src/qf/qf_time.c **** }
 674              		.loc 1 394 1 is_stmt 0 view .LVU193
 675              		@ sp needed
 676 0018 10BD     		pop	{r4, pc}
 677              	.LVL68:
 678              	.L35:
 379:Middlewares/Third_Party/QuantumLeaps_RTEF_qpc/src/qf/qf_time.c **** 
 679              		.loc 1 379 5 discriminator 1 view .LVU194
 680 001a E121     		movs	r1, #225
 681 001c 8900     		lsls	r1, r1, #2
 682 001e 0848     		ldr	r0, .L37+4
 683              	.LVL69:
 379:Middlewares/Third_Party/QuantumLeaps_RTEF_qpc/src/qf/qf_time.c **** 
 684              		.loc 1 379 5 discriminator 1 view .LVU195
 685 0020 FFF7FEFF 		bl	Q_onError
 686              	.LVL70:
 687              	.L36:
 386:Middlewares/Third_Party/QuantumLeaps_RTEF_qpc/src/qf/qf_time.c ****         // empty
 688              		.loc 1 386 10 is_stmt 1 view .LVU196
 386:Middlewares/Third_Party/QuantumLeaps_RTEF_qpc/src/qf/qf_time.c ****         // empty
 689              		.loc 1 386 46 is_stmt 0 view .LVU197
 690 0024 4300     		lsls	r3, r0, #1
 691 0026 1818     		adds	r0, r3, r0
 692              	.LVL71:
 386:Middlewares/Third_Party/QuantumLeaps_RTEF_qpc/src/qf/qf_time.c ****         // empty
 693              		.loc 1 386 46 view .LVU198
 694 0028 C000     		lsls	r0, r0, #3
 695 002a 1018     		adds	r0, r2, r0
 696 002c 8368     		ldr	r3, [r0, #8]
 386:Middlewares/Third_Party/QuantumLeaps_RTEF_qpc/src/qf/qf_time.c ****         // empty
 697              		.loc 1 386 13 view .LVU199
 698 002e 002B     		cmp	r3, #0
 699 0030 01D0     		beq	.L34
 381:Middlewares/Third_Party/QuantumLeaps_RTEF_qpc/src/qf/qf_time.c **** 
 700              		.loc 1 381 10 view .LVU200
 701 0032 0020     		movs	r0, #0
 702 0034 F0E7     		b	.L32
 703              	.L34:
 390:Middlewares/Third_Party/QuantumLeaps_RTEF_qpc/src/qf/qf_time.c ****     }
 704              		.loc 1 390 18 view .LVU201
 705 0036 0120     		movs	r0, #1
 706 0038 EEE7     		b	.L32
 707              	.L38:
 708 003a C046     		.align	2
 709              	.L37:
 710 003c 00000000 		.word	.LANCHOR1
 711 0040 00000000 		.word	.LANCHOR0
 712              		.cfi_endproc
 713              	.LFE26:
 715              		.section	.text.QTimeEvt_expire_,"ax",%progbits
 716              		.align	1
 717              		.global	QTimeEvt_expire_
 718              		.syntax unified
 719              		.code	16
 720              		.thumb_func
ARM GAS  C:\Users\main\AppData\Local\Temp\ccG3Qf2n.s 			page 23


 722              	QTimeEvt_expire_:
 723              	.LVL72:
 724              	.LFB27:
 395:Middlewares/Third_Party/QuantumLeaps_RTEF_qpc/src/qf/qf_time.c **** 
 396:Middlewares/Third_Party/QuantumLeaps_RTEF_qpc/src/qf/qf_time.c **** //............................................................................
 397:Middlewares/Third_Party/QuantumLeaps_RTEF_qpc/src/qf/qf_time.c **** //! @private @memberof QTimeEvt
 398:Middlewares/Third_Party/QuantumLeaps_RTEF_qpc/src/qf/qf_time.c **** QTimeEvt * QTimeEvt_expire_(QTimeEvt * const me,
 399:Middlewares/Third_Party/QuantumLeaps_RTEF_qpc/src/qf/qf_time.c ****     QTimeEvt * const prev_link,
 400:Middlewares/Third_Party/QuantumLeaps_RTEF_qpc/src/qf/qf_time.c ****     QActive const * const act,
 401:Middlewares/Third_Party/QuantumLeaps_RTEF_qpc/src/qf/qf_time.c ****     uint_fast8_t const tickRate)
 402:Middlewares/Third_Party/QuantumLeaps_RTEF_qpc/src/qf/qf_time.c **** {
 725              		.loc 1 402 1 is_stmt 1 view -0
 726              		.cfi_startproc
 727              		@ args = 0, pretend = 0, frame = 0
 728              		@ frame_needed = 0, uses_anonymous_args = 0
 729              		@ link register save eliminated.
 403:Middlewares/Third_Party/QuantumLeaps_RTEF_qpc/src/qf/qf_time.c ****     // NOTE: this helper function is called *inside* critical section
 404:Middlewares/Third_Party/QuantumLeaps_RTEF_qpc/src/qf/qf_time.c **** #ifndef Q_SPY
 405:Middlewares/Third_Party/QuantumLeaps_RTEF_qpc/src/qf/qf_time.c ****     Q_UNUSED_PAR(act);
 730              		.loc 1 405 5 view .LVU203
 406:Middlewares/Third_Party/QuantumLeaps_RTEF_qpc/src/qf/qf_time.c ****     Q_UNUSED_PAR(tickRate);
 731              		.loc 1 406 5 view .LVU204
 407:Middlewares/Third_Party/QuantumLeaps_RTEF_qpc/src/qf/qf_time.c **** #endif
 408:Middlewares/Third_Party/QuantumLeaps_RTEF_qpc/src/qf/qf_time.c **** 
 409:Middlewares/Third_Party/QuantumLeaps_RTEF_qpc/src/qf/qf_time.c ****     QTimeEvt *prev = prev_link;
 732              		.loc 1 409 5 view .LVU205
 410:Middlewares/Third_Party/QuantumLeaps_RTEF_qpc/src/qf/qf_time.c ****     if (me->interval != 0U) { // periodic time evt?
 733              		.loc 1 410 5 view .LVU206
 734              		.loc 1 410 11 is_stmt 0 view .LVU207
 735 0000 0369     		ldr	r3, [r0, #16]
 736              	.LVL73:
 737              		.loc 1 410 8 view .LVU208
 738 0002 002B     		cmp	r3, #0
 739 0004 01D0     		beq	.L40
 411:Middlewares/Third_Party/QuantumLeaps_RTEF_qpc/src/qf/qf_time.c ****         me->ctr = me->interval; // rearm the time event
 740              		.loc 1 411 9 is_stmt 1 view .LVU209
 741              		.loc 1 411 17 is_stmt 0 view .LVU210
 742 0006 C360     		str	r3, [r0, #12]
 412:Middlewares/Third_Party/QuantumLeaps_RTEF_qpc/src/qf/qf_time.c ****         prev = me; // advance to this time event
 743              		.loc 1 412 9 is_stmt 1 view .LVU211
 744              	.LVL74:
 745              	.L39:
 413:Middlewares/Third_Party/QuantumLeaps_RTEF_qpc/src/qf/qf_time.c ****     }
 414:Middlewares/Third_Party/QuantumLeaps_RTEF_qpc/src/qf/qf_time.c ****     else { // one-shot time event: automatically disarm
 415:Middlewares/Third_Party/QuantumLeaps_RTEF_qpc/src/qf/qf_time.c ****         me->ctr = 0U;
 416:Middlewares/Third_Party/QuantumLeaps_RTEF_qpc/src/qf/qf_time.c ****         prev->next = me->next;
 417:Middlewares/Third_Party/QuantumLeaps_RTEF_qpc/src/qf/qf_time.c **** 
 418:Middlewares/Third_Party/QuantumLeaps_RTEF_qpc/src/qf/qf_time.c ****         // mark this time event as NOT linked
 419:Middlewares/Third_Party/QuantumLeaps_RTEF_qpc/src/qf/qf_time.c ****         me->flags &= (uint8_t)(~QTE_FLAG_IS_LINKED & 0xFFU);
 420:Middlewares/Third_Party/QuantumLeaps_RTEF_qpc/src/qf/qf_time.c ****         // do NOT advance the prev pointer
 421:Middlewares/Third_Party/QuantumLeaps_RTEF_qpc/src/qf/qf_time.c **** 
 422:Middlewares/Third_Party/QuantumLeaps_RTEF_qpc/src/qf/qf_time.c ****         QS_BEGIN_PRE(QS_QF_TIMEEVT_AUTO_DISARM, act->prio)
 423:Middlewares/Third_Party/QuantumLeaps_RTEF_qpc/src/qf/qf_time.c ****             QS_OBJ_PRE(me);       // this time event object
 424:Middlewares/Third_Party/QuantumLeaps_RTEF_qpc/src/qf/qf_time.c ****             QS_OBJ_PRE(act);      // the target AO
 425:Middlewares/Third_Party/QuantumLeaps_RTEF_qpc/src/qf/qf_time.c ****             QS_U8_PRE(tickRate);  // tick rate
 426:Middlewares/Third_Party/QuantumLeaps_RTEF_qpc/src/qf/qf_time.c ****         QS_END_PRE()
 427:Middlewares/Third_Party/QuantumLeaps_RTEF_qpc/src/qf/qf_time.c ****     }
ARM GAS  C:\Users\main\AppData\Local\Temp\ccG3Qf2n.s 			page 24


 428:Middlewares/Third_Party/QuantumLeaps_RTEF_qpc/src/qf/qf_time.c **** 
 429:Middlewares/Third_Party/QuantumLeaps_RTEF_qpc/src/qf/qf_time.c ****     QS_BEGIN_PRE(QS_QF_TIMEEVT_POST, act->prio)
 430:Middlewares/Third_Party/QuantumLeaps_RTEF_qpc/src/qf/qf_time.c ****         QS_TIME_PRE();            // timestamp
 431:Middlewares/Third_Party/QuantumLeaps_RTEF_qpc/src/qf/qf_time.c ****         QS_OBJ_PRE(me);           // the time event object
 432:Middlewares/Third_Party/QuantumLeaps_RTEF_qpc/src/qf/qf_time.c ****         QS_SIG_PRE(me->super.sig);// signal of this time event
 433:Middlewares/Third_Party/QuantumLeaps_RTEF_qpc/src/qf/qf_time.c ****         QS_OBJ_PRE(act);          // the target AO
 434:Middlewares/Third_Party/QuantumLeaps_RTEF_qpc/src/qf/qf_time.c ****         QS_U8_PRE(tickRate);      // tick rate
 435:Middlewares/Third_Party/QuantumLeaps_RTEF_qpc/src/qf/qf_time.c ****     QS_END_PRE()
 436:Middlewares/Third_Party/QuantumLeaps_RTEF_qpc/src/qf/qf_time.c **** 
 437:Middlewares/Third_Party/QuantumLeaps_RTEF_qpc/src/qf/qf_time.c ****     return prev;
 438:Middlewares/Third_Party/QuantumLeaps_RTEF_qpc/src/qf/qf_time.c **** }
 746              		.loc 1 438 1 is_stmt 0 view .LVU212
 747              		@ sp needed
 748 0008 7047     		bx	lr
 749              	.LVL75:
 750              	.L40:
 415:Middlewares/Third_Party/QuantumLeaps_RTEF_qpc/src/qf/qf_time.c ****         prev->next = me->next;
 751              		.loc 1 415 9 is_stmt 1 view .LVU213
 415:Middlewares/Third_Party/QuantumLeaps_RTEF_qpc/src/qf/qf_time.c ****         prev->next = me->next;
 752              		.loc 1 415 17 is_stmt 0 view .LVU214
 753 000a 0023     		movs	r3, #0
 754 000c C360     		str	r3, [r0, #12]
 416:Middlewares/Third_Party/QuantumLeaps_RTEF_qpc/src/qf/qf_time.c **** 
 755              		.loc 1 416 9 is_stmt 1 view .LVU215
 416:Middlewares/Third_Party/QuantumLeaps_RTEF_qpc/src/qf/qf_time.c **** 
 756              		.loc 1 416 24 is_stmt 0 view .LVU216
 757 000e 4368     		ldr	r3, [r0, #4]
 416:Middlewares/Third_Party/QuantumLeaps_RTEF_qpc/src/qf/qf_time.c **** 
 758              		.loc 1 416 20 view .LVU217
 759 0010 4B60     		str	r3, [r1, #4]
 419:Middlewares/Third_Party/QuantumLeaps_RTEF_qpc/src/qf/qf_time.c ****         // do NOT advance the prev pointer
 760              		.loc 1 419 9 is_stmt 1 view .LVU218
 419:Middlewares/Third_Party/QuantumLeaps_RTEF_qpc/src/qf/qf_time.c ****         // do NOT advance the prev pointer
 761              		.loc 1 419 19 is_stmt 0 view .LVU219
 762 0012 427D     		ldrb	r2, [r0, #21]
 763              	.LVL76:
 419:Middlewares/Third_Party/QuantumLeaps_RTEF_qpc/src/qf/qf_time.c ****         // do NOT advance the prev pointer
 764              		.loc 1 419 19 view .LVU220
 765 0014 7F23     		movs	r3, #127
 766 0016 1340     		ands	r3, r2
 767 0018 4375     		strb	r3, [r0, #21]
 422:Middlewares/Third_Party/QuantumLeaps_RTEF_qpc/src/qf/qf_time.c ****             QS_OBJ_PRE(me);       // this time event object
 768              		.loc 1 422 9 is_stmt 1 view .LVU221
 409:Middlewares/Third_Party/QuantumLeaps_RTEF_qpc/src/qf/qf_time.c ****     if (me->interval != 0U) { // periodic time evt?
 769              		.loc 1 409 15 is_stmt 0 view .LVU222
 770 001a 0800     		movs	r0, r1
 771              	.LVL77:
 423:Middlewares/Third_Party/QuantumLeaps_RTEF_qpc/src/qf/qf_time.c ****             QS_OBJ_PRE(act);      // the target AO
 772              		.loc 1 423 13 is_stmt 1 view .LVU223
 424:Middlewares/Third_Party/QuantumLeaps_RTEF_qpc/src/qf/qf_time.c ****             QS_U8_PRE(tickRate);  // tick rate
 773              		.loc 1 424 13 view .LVU224
 425:Middlewares/Third_Party/QuantumLeaps_RTEF_qpc/src/qf/qf_time.c ****         QS_END_PRE()
 774              		.loc 1 425 13 view .LVU225
 429:Middlewares/Third_Party/QuantumLeaps_RTEF_qpc/src/qf/qf_time.c ****         QS_TIME_PRE();            // timestamp
 775              		.loc 1 429 5 view .LVU226
 430:Middlewares/Third_Party/QuantumLeaps_RTEF_qpc/src/qf/qf_time.c ****         QS_OBJ_PRE(me);           // the time event object
 776              		.loc 1 430 9 view .LVU227
ARM GAS  C:\Users\main\AppData\Local\Temp\ccG3Qf2n.s 			page 25


 431:Middlewares/Third_Party/QuantumLeaps_RTEF_qpc/src/qf/qf_time.c ****         QS_SIG_PRE(me->super.sig);// signal of this time event
 777              		.loc 1 431 9 view .LVU228
 432:Middlewares/Third_Party/QuantumLeaps_RTEF_qpc/src/qf/qf_time.c ****         QS_OBJ_PRE(act);          // the target AO
 778              		.loc 1 432 9 view .LVU229
 433:Middlewares/Third_Party/QuantumLeaps_RTEF_qpc/src/qf/qf_time.c ****         QS_U8_PRE(tickRate);      // tick rate
 779              		.loc 1 433 9 view .LVU230
 434:Middlewares/Third_Party/QuantumLeaps_RTEF_qpc/src/qf/qf_time.c ****     QS_END_PRE()
 780              		.loc 1 434 9 view .LVU231
 437:Middlewares/Third_Party/QuantumLeaps_RTEF_qpc/src/qf/qf_time.c **** }
 781              		.loc 1 437 5 view .LVU232
 437:Middlewares/Third_Party/QuantumLeaps_RTEF_qpc/src/qf/qf_time.c **** }
 782              		.loc 1 437 12 is_stmt 0 view .LVU233
 783 001c F4E7     		b	.L39
 784              		.cfi_endproc
 785              	.LFE27:
 787              		.section	.text.QTimeEvt_tick_,"ax",%progbits
 788              		.align	1
 789              		.global	QTimeEvt_tick_
 790              		.syntax unified
 791              		.code	16
 792              		.thumb_func
 794              	QTimeEvt_tick_:
 795              	.LVL78:
 796              	.LFB25:
 290:Middlewares/Third_Party/QuantumLeaps_RTEF_qpc/src/qf/qf_time.c **** #ifndef Q_SPY
 797              		.loc 1 290 1 is_stmt 1 view -0
 798              		.cfi_startproc
 799              		@ args = 0, pretend = 0, frame = 0
 800              		@ frame_needed = 0, uses_anonymous_args = 0
 290:Middlewares/Third_Party/QuantumLeaps_RTEF_qpc/src/qf/qf_time.c **** #ifndef Q_SPY
 801              		.loc 1 290 1 is_stmt 0 view .LVU235
 802 0000 F8B5     		push	{r3, r4, r5, r6, r7, lr}
 803              	.LCFI8:
 804              		.cfi_def_cfa_offset 24
 805              		.cfi_offset 3, -24
 806              		.cfi_offset 4, -20
 807              		.cfi_offset 5, -16
 808              		.cfi_offset 6, -12
 809              		.cfi_offset 7, -8
 810              		.cfi_offset 14, -4
 811 0002 0600     		movs	r6, r0
 292:Middlewares/Third_Party/QuantumLeaps_RTEF_qpc/src/qf/qf_time.c **** #endif
 812              		.loc 1 292 5 is_stmt 1 view .LVU236
 296:Middlewares/Third_Party/QuantumLeaps_RTEF_qpc/src/qf/qf_time.c **** 
 813              		.loc 1 296 5 view .LVU237
 814 0004 FFF7FEFF 		bl	vPortEnterCritical
 815              	.LVL79:
 298:Middlewares/Third_Party/QuantumLeaps_RTEF_qpc/src/qf/qf_time.c **** 
 816              		.loc 1 298 5 view .LVU238
 817 0008 002E     		cmp	r6, #0
 818 000a 05D1     		bne	.L52
 300:Middlewares/Third_Party/QuantumLeaps_RTEF_qpc/src/qf/qf_time.c **** 
 819              		.loc 1 300 5 view .LVU239
 300:Middlewares/Third_Party/QuantumLeaps_RTEF_qpc/src/qf/qf_time.c **** 
 820              		.loc 1 300 15 is_stmt 0 view .LVU240
 821 000c 7500     		lsls	r5, r6, #1
 822 000e AD19     		adds	r5, r5, r6
ARM GAS  C:\Users\main\AppData\Local\Temp\ccG3Qf2n.s 			page 26


 823 0010 E800     		lsls	r0, r5, #3
 824 0012 294D     		ldr	r5, .L58
 825 0014 2D18     		adds	r5, r5, r0
 826              	.LVL80:
 300:Middlewares/Third_Party/QuantumLeaps_RTEF_qpc/src/qf/qf_time.c **** 
 827              		.loc 1 300 15 view .LVU241
 828 0016 28E0     		b	.L51
 829              	.LVL81:
 830              	.L52:
 298:Middlewares/Third_Party/QuantumLeaps_RTEF_qpc/src/qf/qf_time.c **** 
 831              		.loc 1 298 5 discriminator 1 view .LVU242
 832 0018 C821     		movs	r1, #200
 833 001a 8900     		lsls	r1, r1, #2
 834 001c 2748     		ldr	r0, .L58+4
 835 001e FFF7FEFF 		bl	Q_onError
 836              	.LVL82:
 837              	.L53:
 838              	.LBB8:
 312:Middlewares/Third_Party/QuantumLeaps_RTEF_qpc/src/qf/qf_time.c **** 
 839              		.loc 1 312 9 discriminator 1 view .LVU243
 840 0022 2749     		ldr	r1, .L58+8
 841 0024 2548     		ldr	r0, .L58+4
 842 0026 FFF7FEFF 		bl	Q_onError
 843              	.LVL83:
 844              	.L54:
 318:Middlewares/Third_Party/QuantumLeaps_RTEF_qpc/src/qf/qf_time.c ****                 break; // terminate the while-loop
 845              		.loc 1 318 13 is_stmt 1 view .LVU244
 318:Middlewares/Third_Party/QuantumLeaps_RTEF_qpc/src/qf/qf_time.c ****                 break; // terminate the while-loop
 846              		.loc 1 318 48 is_stmt 0 view .LVU245
 847 002a 7300     		lsls	r3, r6, #1
 848 002c 9B19     		adds	r3, r3, r6
 849 002e DB00     		lsls	r3, r3, #3
 850 0030 214A     		ldr	r2, .L58
 851 0032 D318     		adds	r3, r2, r3
 852 0034 9B68     		ldr	r3, [r3, #8]
 318:Middlewares/Third_Party/QuantumLeaps_RTEF_qpc/src/qf/qf_time.c ****                 break; // terminate the while-loop
 853              		.loc 1 318 16 view .LVU246
 854 0036 002B     		cmp	r3, #0
 855 0038 3AD0     		beq	.L46
 322:Middlewares/Third_Party/QuantumLeaps_RTEF_qpc/src/qf/qf_time.c ****             QTimeEvt_timeEvtHead_[tickRate].act = (void *)0;
 856              		.loc 1 322 13 is_stmt 1 view .LVU247
 322:Middlewares/Third_Party/QuantumLeaps_RTEF_qpc/src/qf/qf_time.c ****             QTimeEvt_timeEvtHead_[tickRate].act = (void *)0;
 857              		.loc 1 322 24 is_stmt 0 view .LVU248
 858 003a 6B60     		str	r3, [r5, #4]
 323:Middlewares/Third_Party/QuantumLeaps_RTEF_qpc/src/qf/qf_time.c **** 
 859              		.loc 1 323 13 is_stmt 1 view .LVU249
 323:Middlewares/Third_Party/QuantumLeaps_RTEF_qpc/src/qf/qf_time.c **** 
 860              		.loc 1 323 49 is_stmt 0 view .LVU250
 861 003c 7300     		lsls	r3, r6, #1
 862 003e 9B19     		adds	r3, r3, r6
 863 0040 DB00     		lsls	r3, r3, #3
 864 0042 D318     		adds	r3, r2, r3
 865 0044 0022     		movs	r2, #0
 866 0046 9A60     		str	r2, [r3, #8]
 325:Middlewares/Third_Party/QuantumLeaps_RTEF_qpc/src/qf/qf_time.c ****         }
 867              		.loc 1 325 13 is_stmt 1 view .LVU251
 325:Middlewares/Third_Party/QuantumLeaps_RTEF_qpc/src/qf/qf_time.c ****         }
ARM GAS  C:\Users\main\AppData\Local\Temp\ccG3Qf2n.s 			page 27


 868              		.loc 1 325 16 is_stmt 0 view .LVU252
 869 0048 6C68     		ldr	r4, [r5, #4]
 870              	.LVL84:
 325:Middlewares/Third_Party/QuantumLeaps_RTEF_qpc/src/qf/qf_time.c ****         }
 871              		.loc 1 325 16 view .LVU253
 872 004a 13E0     		b	.L45
 873              	.L55:
 329:Middlewares/Third_Party/QuantumLeaps_RTEF_qpc/src/qf/qf_time.c **** 
 874              		.loc 1 329 9 discriminator 1 view .LVU254
 875 004c D221     		movs	r1, #210
 876 004e 8900     		lsls	r1, r1, #2
 877 0050 1A48     		ldr	r0, .L58+4
 878 0052 FFF7FEFF 		bl	Q_onError
 879              	.LVL85:
 880              	.L56:
 334:Middlewares/Third_Party/QuantumLeaps_RTEF_qpc/src/qf/qf_time.c **** 
 881              		.loc 1 334 13 is_stmt 1 view .LVU255
 334:Middlewares/Third_Party/QuantumLeaps_RTEF_qpc/src/qf/qf_time.c **** 
 882              		.loc 1 334 28 is_stmt 0 view .LVU256
 883 0056 6368     		ldr	r3, [r4, #4]
 884              	.LVL86:
 334:Middlewares/Third_Party/QuantumLeaps_RTEF_qpc/src/qf/qf_time.c **** 
 885              		.loc 1 334 24 view .LVU257
 886 0058 6B60     		str	r3, [r5, #4]
 337:Middlewares/Third_Party/QuantumLeaps_RTEF_qpc/src/qf/qf_time.c ****             // do NOT advance the prev pointer
 887              		.loc 1 337 13 is_stmt 1 view .LVU258
 337:Middlewares/Third_Party/QuantumLeaps_RTEF_qpc/src/qf/qf_time.c ****             // do NOT advance the prev pointer
 888              		.loc 1 337 23 is_stmt 0 view .LVU259
 889 005a 627D     		ldrb	r2, [r4, #21]
 890 005c 7F23     		movs	r3, #127
 891 005e 1340     		ands	r3, r2
 892 0060 6375     		strb	r3, [r4, #21]
 339:Middlewares/Third_Party/QuantumLeaps_RTEF_qpc/src/qf/qf_time.c ****         }
 893              		.loc 1 339 13 is_stmt 1 view .LVU260
 894 0062 FFF7FEFF 		bl	vPortExitCritical
 895              	.LVL87:
 896              	.L49:
 370:Middlewares/Third_Party/QuantumLeaps_RTEF_qpc/src/qf/qf_time.c ****     }
 897              		.loc 1 370 9 view .LVU261
 898 0066 FFF7FEFF 		bl	vPortEnterCritical
 899              	.LVL88:
 900              	.LBE8:
 311:Middlewares/Third_Party/QuantumLeaps_RTEF_qpc/src/qf/qf_time.c ****         Q_ASSERT_INCRIT(810, prev != (QTimeEvt *)0); // sanity check
 901              		.loc 1 311 11 view .LVU262
 902              	.L51:
 311:Middlewares/Third_Party/QuantumLeaps_RTEF_qpc/src/qf/qf_time.c ****         Q_ASSERT_INCRIT(810, prev != (QTimeEvt *)0); // sanity check
 903              		.loc 1 311 5 view .LVU263
 904              	.LBB10:
 312:Middlewares/Third_Party/QuantumLeaps_RTEF_qpc/src/qf/qf_time.c **** 
 905              		.loc 1 312 9 view .LVU264
 906 006a 002D     		cmp	r5, #0
 907 006c D9D0     		beq	.L53
 314:Middlewares/Third_Party/QuantumLeaps_RTEF_qpc/src/qf/qf_time.c **** 
 908              		.loc 1 314 9 view .LVU265
 314:Middlewares/Third_Party/QuantumLeaps_RTEF_qpc/src/qf/qf_time.c **** 
 909              		.loc 1 314 19 is_stmt 0 view .LVU266
 910 006e 6C68     		ldr	r4, [r5, #4]
ARM GAS  C:\Users\main\AppData\Local\Temp\ccG3Qf2n.s 			page 28


 911              	.LVL89:
 316:Middlewares/Third_Party/QuantumLeaps_RTEF_qpc/src/qf/qf_time.c ****             // NO any new time events armed since the last QTimeEvt_tick_()?
 912              		.loc 1 316 9 is_stmt 1 view .LVU267
 316:Middlewares/Third_Party/QuantumLeaps_RTEF_qpc/src/qf/qf_time.c ****             // NO any new time events armed since the last QTimeEvt_tick_()?
 913              		.loc 1 316 12 is_stmt 0 view .LVU268
 914 0070 002C     		cmp	r4, #0
 915 0072 DAD0     		beq	.L54
 916              	.L45:
 329:Middlewares/Third_Party/QuantumLeaps_RTEF_qpc/src/qf/qf_time.c **** 
 917              		.loc 1 329 9 is_stmt 1 view .LVU269
 918 0074 002C     		cmp	r4, #0
 919 0076 E9D0     		beq	.L55
 331:Middlewares/Third_Party/QuantumLeaps_RTEF_qpc/src/qf/qf_time.c **** 
 920              		.loc 1 331 9 view .LVU270
 331:Middlewares/Third_Party/QuantumLeaps_RTEF_qpc/src/qf/qf_time.c **** 
 921              		.loc 1 331 21 is_stmt 0 view .LVU271
 922 0078 E368     		ldr	r3, [r4, #12]
 923              	.LVL90:
 333:Middlewares/Third_Party/QuantumLeaps_RTEF_qpc/src/qf/qf_time.c ****             prev->next = te->next;
 924              		.loc 1 333 9 is_stmt 1 view .LVU272
 333:Middlewares/Third_Party/QuantumLeaps_RTEF_qpc/src/qf/qf_time.c ****             prev->next = te->next;
 925              		.loc 1 333 12 is_stmt 0 view .LVU273
 926 007a 002B     		cmp	r3, #0
 927 007c EBD0     		beq	.L56
 341:Middlewares/Third_Party/QuantumLeaps_RTEF_qpc/src/qf/qf_time.c ****             QActive * const act = (QActive *)te->act;
 928              		.loc 1 341 14 is_stmt 1 view .LVU274
 341:Middlewares/Third_Party/QuantumLeaps_RTEF_qpc/src/qf/qf_time.c ****             QActive * const act = (QActive *)te->act;
 929              		.loc 1 341 17 is_stmt 0 view .LVU275
 930 007e 012B     		cmp	r3, #1
 931 0080 05D0     		beq	.L57
 364:Middlewares/Third_Party/QuantumLeaps_RTEF_qpc/src/qf/qf_time.c ****             te->ctr = ctr; // update the original
 932              		.loc 1 364 13 is_stmt 1 view .LVU276
 933 0082 013B     		subs	r3, r3, #1
 934              	.LVL91:
 365:Middlewares/Third_Party/QuantumLeaps_RTEF_qpc/src/qf/qf_time.c **** 
 935              		.loc 1 365 13 view .LVU277
 365:Middlewares/Third_Party/QuantumLeaps_RTEF_qpc/src/qf/qf_time.c **** 
 936              		.loc 1 365 21 is_stmt 0 view .LVU278
 937 0084 E360     		str	r3, [r4, #12]
 367:Middlewares/Third_Party/QuantumLeaps_RTEF_qpc/src/qf/qf_time.c ****             QF_CRIT_EXIT(); // exit crit. section to reduce latency
 938              		.loc 1 367 13 is_stmt 1 view .LVU279
 939              	.LVL92:
 368:Middlewares/Third_Party/QuantumLeaps_RTEF_qpc/src/qf/qf_time.c ****         }
 940              		.loc 1 368 13 view .LVU280
 941 0086 FFF7FEFF 		bl	vPortExitCritical
 942              	.LVL93:
 367:Middlewares/Third_Party/QuantumLeaps_RTEF_qpc/src/qf/qf_time.c ****             QF_CRIT_EXIT(); // exit crit. section to reduce latency
 943              		.loc 1 367 18 is_stmt 0 view .LVU281
 944 008a 2500     		movs	r5, r4
 945 008c EBE7     		b	.L49
 946              	.LVL94:
 947              	.L57:
 948              	.LBB9:
 342:Middlewares/Third_Party/QuantumLeaps_RTEF_qpc/src/qf/qf_time.c ****             prev = QTimeEvt_expire_(te, prev, act, tickRate);
 949              		.loc 1 342 13 is_stmt 1 view .LVU282
 342:Middlewares/Third_Party/QuantumLeaps_RTEF_qpc/src/qf/qf_time.c ****             prev = QTimeEvt_expire_(te, prev, act, tickRate);
 950              		.loc 1 342 29 is_stmt 0 view .LVU283
ARM GAS  C:\Users\main\AppData\Local\Temp\ccG3Qf2n.s 			page 29


 951 008e A768     		ldr	r7, [r4, #8]
 952              	.LVL95:
 343:Middlewares/Third_Party/QuantumLeaps_RTEF_qpc/src/qf/qf_time.c **** 
 953              		.loc 1 343 13 is_stmt 1 view .LVU284
 343:Middlewares/Third_Party/QuantumLeaps_RTEF_qpc/src/qf/qf_time.c **** 
 954              		.loc 1 343 20 is_stmt 0 view .LVU285
 955 0090 3300     		movs	r3, r6
 956              	.LVL96:
 343:Middlewares/Third_Party/QuantumLeaps_RTEF_qpc/src/qf/qf_time.c **** 
 957              		.loc 1 343 20 view .LVU286
 958 0092 3A00     		movs	r2, r7
 959 0094 2900     		movs	r1, r5
 960 0096 2000     		movs	r0, r4
 961 0098 FFF7FEFF 		bl	QTimeEvt_expire_
 962              	.LVL97:
 963 009c 0500     		movs	r5, r0
 964              	.LVL98:
 357:Middlewares/Third_Party/QuantumLeaps_RTEF_qpc/src/qf/qf_time.c **** 
 965              		.loc 1 357 13 is_stmt 1 view .LVU287
 966 009e FFF7FEFF 		bl	vPortExitCritical
 967              	.LVL99:
 360:Middlewares/Third_Party/QuantumLeaps_RTEF_qpc/src/qf/qf_time.c **** #endif
 968              		.loc 1 360 13 view .LVU288
 969 00a2 0023     		movs	r3, #0
 970 00a4 074A     		ldr	r2, .L58+12
 971 00a6 2100     		movs	r1, r4
 972 00a8 3800     		movs	r0, r7
 973 00aa FFF7FEFF 		bl	QActive_post_
 974              	.LVL100:
 975              	.LBE9:
 976 00ae DAE7     		b	.L49
 977              	.LVL101:
 978              	.L46:
 360:Middlewares/Third_Party/QuantumLeaps_RTEF_qpc/src/qf/qf_time.c **** #endif
 979              		.loc 1 360 13 is_stmt 0 view .LVU289
 980              	.LBE10:
 372:Middlewares/Third_Party/QuantumLeaps_RTEF_qpc/src/qf/qf_time.c **** }
 981              		.loc 1 372 5 is_stmt 1 view .LVU290
 982 00b0 FFF7FEFF 		bl	vPortExitCritical
 983              	.LVL102:
 373:Middlewares/Third_Party/QuantumLeaps_RTEF_qpc/src/qf/qf_time.c **** 
 984              		.loc 1 373 1 is_stmt 0 view .LVU291
 985              		@ sp needed
 986              	.LVL103:
 987              	.LVL104:
 988              	.LVL105:
 373:Middlewares/Third_Party/QuantumLeaps_RTEF_qpc/src/qf/qf_time.c **** 
 989              		.loc 1 373 1 view .LVU292
 990 00b4 F8BD     		pop	{r3, r4, r5, r6, r7, pc}
 991              	.L59:
 992 00b6 C046     		.align	2
 993              	.L58:
 994 00b8 00000000 		.word	.LANCHOR1
 995 00bc 00000000 		.word	.LANCHOR0
 996 00c0 2A030000 		.word	810
 997 00c4 FFFF0000 		.word	65535
 998              		.cfi_endproc
ARM GAS  C:\Users\main\AppData\Local\Temp\ccG3Qf2n.s 			page 30


 999              	.LFE25:
 1001              		.global	QTimeEvt_timeEvtHead_
 1002              		.section	.bss.QTimeEvt_timeEvtHead_,"aw",%nobits
 1003              		.align	2
 1004              		.set	.LANCHOR1,. + 0
 1007              	QTimeEvt_timeEvtHead_:
 1008 0000 00000000 		.space	24
 1008      00000000 
 1008      00000000 
 1008      00000000 
 1008      00000000 
 1009              		.section	.rodata.Q_this_module_,"a"
 1010              		.align	2
 1011              		.set	.LANCHOR0,. + 0
 1014              	Q_this_module_:
 1015 0000 71665F74 		.ascii	"qf_time\000"
 1015      696D6500 
 1016              		.text
 1017              	.Letext0:
 1018              		.file 3 "c:\\program files (x86)\\gnu arm embedded toolchain\\10 2021.10\\arm-none-eabi\\include\\
 1019              		.file 4 "c:\\program files (x86)\\gnu arm embedded toolchain\\10 2021.10\\arm-none-eabi\\include\\
 1020              		.file 5 "c:\\program files (x86)\\gnu arm embedded toolchain\\10 2021.10\\arm-none-eabi\\include\\
 1021              		.file 6 "Middlewares/Third_Party/FreeRTOS/Source/portable/GCC/ARM_CM0/portmacro.h"
 1022              		.file 7 "Middlewares/Third_Party/FreeRTOS/Source/include/FreeRTOS.h"
 1023              		.file 8 "Middlewares/Third_Party/FreeRTOS/Source/include/queue.h"
 1024              		.file 9 "Middlewares/Third_Party/QuantumLeaps_RTEF_qpc/include/qsafe.h"
ARM GAS  C:\Users\main\AppData\Local\Temp\ccG3Qf2n.s 			page 31

