ARM GAS  C:\Users\main\AppData\Local\Temp\ccYPpv0e.s 			page 1


   1              		.cpu cortex-m0plus
   2              		.arch armv6s-m
   3              		.fpu softvfp
   4              		.eabi_attribute 20, 1
   5              		.eabi_attribute 21, 1
   6              		.eabi_attribute 23, 3
   7              		.eabi_attribute 24, 1
   8              		.eabi_attribute 25, 1
   9              		.eabi_attribute 26, 1
  10              		.eabi_attribute 30, 1
  11              		.eabi_attribute 34, 0
  12              		.eabi_attribute 18, 4
  13              		.file	"timers.c"
  14              		.text
  15              	.Ltext0:
  16              		.cfi_sections	.debug_frame
  17              		.section	.text.prvGetNextExpireTime,"ax",%progbits
  18              		.align	1
  19              		.syntax unified
  20              		.code	16
  21              		.thumb_func
  23              	prvGetNextExpireTime:
  24              	.LVL0:
  25              	.LFB18:
  26              		.file 1 "Middlewares/Third_Party/FreeRTOS/Source/timers.c"
   1:Middlewares/Third_Party/FreeRTOS/Source/timers.c **** /*
   2:Middlewares/Third_Party/FreeRTOS/Source/timers.c ****  * FreeRTOS Kernel V10.6.2
   3:Middlewares/Third_Party/FreeRTOS/Source/timers.c ****  * Copyright (C) 2021 Amazon.com, Inc. or its affiliates.  All Rights Reserved.
   4:Middlewares/Third_Party/FreeRTOS/Source/timers.c ****  *
   5:Middlewares/Third_Party/FreeRTOS/Source/timers.c ****  * SPDX-License-Identifier: MIT
   6:Middlewares/Third_Party/FreeRTOS/Source/timers.c ****  *
   7:Middlewares/Third_Party/FreeRTOS/Source/timers.c ****  * Permission is hereby granted, free of charge, to any person obtaining a copy of
   8:Middlewares/Third_Party/FreeRTOS/Source/timers.c ****  * this software and associated documentation files (the "Software"), to deal in
   9:Middlewares/Third_Party/FreeRTOS/Source/timers.c ****  * the Software without restriction, including without limitation the rights to
  10:Middlewares/Third_Party/FreeRTOS/Source/timers.c ****  * use, copy, modify, merge, publish, distribute, sublicense, and/or sell copies of
  11:Middlewares/Third_Party/FreeRTOS/Source/timers.c ****  * the Software, and to permit persons to whom the Software is furnished to do so,
  12:Middlewares/Third_Party/FreeRTOS/Source/timers.c ****  * subject to the following conditions:
  13:Middlewares/Third_Party/FreeRTOS/Source/timers.c ****  *
  14:Middlewares/Third_Party/FreeRTOS/Source/timers.c ****  * The above copyright notice and this permission notice shall be included in all
  15:Middlewares/Third_Party/FreeRTOS/Source/timers.c ****  * copies or substantial portions of the Software.
  16:Middlewares/Third_Party/FreeRTOS/Source/timers.c ****  *
  17:Middlewares/Third_Party/FreeRTOS/Source/timers.c ****  * THE SOFTWARE IS PROVIDED "AS IS", WITHOUT WARRANTY OF ANY KIND, EXPRESS OR
  18:Middlewares/Third_Party/FreeRTOS/Source/timers.c ****  * IMPLIED, INCLUDING BUT NOT LIMITED TO THE WARRANTIES OF MERCHANTABILITY, FITNESS
  19:Middlewares/Third_Party/FreeRTOS/Source/timers.c ****  * FOR A PARTICULAR PURPOSE AND NONINFRINGEMENT. IN NO EVENT SHALL THE AUTHORS OR
  20:Middlewares/Third_Party/FreeRTOS/Source/timers.c ****  * COPYRIGHT HOLDERS BE LIABLE FOR ANY CLAIM, DAMAGES OR OTHER LIABILITY, WHETHER
  21:Middlewares/Third_Party/FreeRTOS/Source/timers.c ****  * IN AN ACTION OF CONTRACT, TORT OR OTHERWISE, ARISING FROM, OUT OF OR IN
  22:Middlewares/Third_Party/FreeRTOS/Source/timers.c ****  * CONNECTION WITH THE SOFTWARE OR THE USE OR OTHER DEALINGS IN THE SOFTWARE.
  23:Middlewares/Third_Party/FreeRTOS/Source/timers.c ****  *
  24:Middlewares/Third_Party/FreeRTOS/Source/timers.c ****  * https://www.FreeRTOS.org
  25:Middlewares/Third_Party/FreeRTOS/Source/timers.c ****  * https://github.com/FreeRTOS
  26:Middlewares/Third_Party/FreeRTOS/Source/timers.c ****  *
  27:Middlewares/Third_Party/FreeRTOS/Source/timers.c ****  */
  28:Middlewares/Third_Party/FreeRTOS/Source/timers.c **** 
  29:Middlewares/Third_Party/FreeRTOS/Source/timers.c **** /* Standard includes. */
  30:Middlewares/Third_Party/FreeRTOS/Source/timers.c **** #include <stdlib.h>
  31:Middlewares/Third_Party/FreeRTOS/Source/timers.c **** 
  32:Middlewares/Third_Party/FreeRTOS/Source/timers.c **** /* Defining MPU_WRAPPERS_INCLUDED_FROM_API_FILE prevents task.h from redefining
ARM GAS  C:\Users\main\AppData\Local\Temp\ccYPpv0e.s 			page 2


  33:Middlewares/Third_Party/FreeRTOS/Source/timers.c ****  * all the API functions to use the MPU wrappers.  That should only be done when
  34:Middlewares/Third_Party/FreeRTOS/Source/timers.c ****  * task.h is included from an application file. */
  35:Middlewares/Third_Party/FreeRTOS/Source/timers.c **** #define MPU_WRAPPERS_INCLUDED_FROM_API_FILE
  36:Middlewares/Third_Party/FreeRTOS/Source/timers.c **** 
  37:Middlewares/Third_Party/FreeRTOS/Source/timers.c **** #include "FreeRTOS.h"
  38:Middlewares/Third_Party/FreeRTOS/Source/timers.c **** #include "task.h"
  39:Middlewares/Third_Party/FreeRTOS/Source/timers.c **** #include "queue.h"
  40:Middlewares/Third_Party/FreeRTOS/Source/timers.c **** #include "timers.h"
  41:Middlewares/Third_Party/FreeRTOS/Source/timers.c **** 
  42:Middlewares/Third_Party/FreeRTOS/Source/timers.c **** #if ( INCLUDE_xTimerPendFunctionCall == 1 ) && ( configUSE_TIMERS == 0 )
  43:Middlewares/Third_Party/FreeRTOS/Source/timers.c ****     #error configUSE_TIMERS must be set to 1 to make the xTimerPendFunctionCall() function availabl
  44:Middlewares/Third_Party/FreeRTOS/Source/timers.c **** #endif
  45:Middlewares/Third_Party/FreeRTOS/Source/timers.c **** 
  46:Middlewares/Third_Party/FreeRTOS/Source/timers.c **** /* Lint e9021, e961 and e750 are suppressed as a MISRA exception justified
  47:Middlewares/Third_Party/FreeRTOS/Source/timers.c ****  * because the MPU ports require MPU_WRAPPERS_INCLUDED_FROM_API_FILE to be defined
  48:Middlewares/Third_Party/FreeRTOS/Source/timers.c ****  * for the header files above, but not in this file, in order to generate the
  49:Middlewares/Third_Party/FreeRTOS/Source/timers.c ****  * correct privileged Vs unprivileged linkage and placement. */
  50:Middlewares/Third_Party/FreeRTOS/Source/timers.c **** #undef MPU_WRAPPERS_INCLUDED_FROM_API_FILE /*lint !e9021 !e961 !e750. */
  51:Middlewares/Third_Party/FreeRTOS/Source/timers.c **** 
  52:Middlewares/Third_Party/FreeRTOS/Source/timers.c **** 
  53:Middlewares/Third_Party/FreeRTOS/Source/timers.c **** /* This entire source file will be skipped if the application is not configured
  54:Middlewares/Third_Party/FreeRTOS/Source/timers.c ****  * to include software timer functionality.  This #if is closed at the very bottom
  55:Middlewares/Third_Party/FreeRTOS/Source/timers.c ****  * of this file.  If you want to include software timer functionality then ensure
  56:Middlewares/Third_Party/FreeRTOS/Source/timers.c ****  * configUSE_TIMERS is set to 1 in FreeRTOSConfig.h. */
  57:Middlewares/Third_Party/FreeRTOS/Source/timers.c **** #if ( configUSE_TIMERS == 1 )
  58:Middlewares/Third_Party/FreeRTOS/Source/timers.c **** 
  59:Middlewares/Third_Party/FreeRTOS/Source/timers.c **** /* Misc definitions. */
  60:Middlewares/Third_Party/FreeRTOS/Source/timers.c ****     #define tmrNO_DELAY                    ( ( TickType_t ) 0U )
  61:Middlewares/Third_Party/FreeRTOS/Source/timers.c ****     #define tmrMAX_TIME_BEFORE_OVERFLOW    ( ( TickType_t ) -1 )
  62:Middlewares/Third_Party/FreeRTOS/Source/timers.c **** 
  63:Middlewares/Third_Party/FreeRTOS/Source/timers.c **** /* The name assigned to the timer service task.  This can be overridden by
  64:Middlewares/Third_Party/FreeRTOS/Source/timers.c ****  * defining trmTIMER_SERVICE_TASK_NAME in FreeRTOSConfig.h. */
  65:Middlewares/Third_Party/FreeRTOS/Source/timers.c ****     #ifndef configTIMER_SERVICE_TASK_NAME
  66:Middlewares/Third_Party/FreeRTOS/Source/timers.c ****         #define configTIMER_SERVICE_TASK_NAME    "Tmr Svc"
  67:Middlewares/Third_Party/FreeRTOS/Source/timers.c ****     #endif
  68:Middlewares/Third_Party/FreeRTOS/Source/timers.c **** 
  69:Middlewares/Third_Party/FreeRTOS/Source/timers.c **** /* Bit definitions used in the ucStatus member of a timer structure. */
  70:Middlewares/Third_Party/FreeRTOS/Source/timers.c ****     #define tmrSTATUS_IS_ACTIVE                  ( ( uint8_t ) 0x01 )
  71:Middlewares/Third_Party/FreeRTOS/Source/timers.c ****     #define tmrSTATUS_IS_STATICALLY_ALLOCATED    ( ( uint8_t ) 0x02 )
  72:Middlewares/Third_Party/FreeRTOS/Source/timers.c ****     #define tmrSTATUS_IS_AUTORELOAD              ( ( uint8_t ) 0x04 )
  73:Middlewares/Third_Party/FreeRTOS/Source/timers.c **** 
  74:Middlewares/Third_Party/FreeRTOS/Source/timers.c **** /* The definition of the timers themselves. */
  75:Middlewares/Third_Party/FreeRTOS/Source/timers.c ****     typedef struct tmrTimerControl                  /* The old naming convention is used to prevent
  76:Middlewares/Third_Party/FreeRTOS/Source/timers.c ****     {
  77:Middlewares/Third_Party/FreeRTOS/Source/timers.c ****         const char * pcTimerName;                   /**< Text name.  This is not used by the kernel
  78:Middlewares/Third_Party/FreeRTOS/Source/timers.c ****         ListItem_t xTimerListItem;                  /**< Standard linked list item as used by all k
  79:Middlewares/Third_Party/FreeRTOS/Source/timers.c ****         TickType_t xTimerPeriodInTicks;             /**< How quickly and often the timer expires. *
  80:Middlewares/Third_Party/FreeRTOS/Source/timers.c ****         void * pvTimerID;                           /**< An ID to identify the timer.  This allows 
  81:Middlewares/Third_Party/FreeRTOS/Source/timers.c ****         TimerCallbackFunction_t pxCallbackFunction; /**< The function that will be called when the 
  82:Middlewares/Third_Party/FreeRTOS/Source/timers.c ****         #if ( configUSE_TRACE_FACILITY == 1 )
  83:Middlewares/Third_Party/FreeRTOS/Source/timers.c ****             UBaseType_t uxTimerNumber;              /**< An ID assigned by trace tools such as Free
  84:Middlewares/Third_Party/FreeRTOS/Source/timers.c ****         #endif
  85:Middlewares/Third_Party/FreeRTOS/Source/timers.c ****         uint8_t ucStatus;                           /**< Holds bits to say if the timer was statica
  86:Middlewares/Third_Party/FreeRTOS/Source/timers.c ****     } xTIMER;
  87:Middlewares/Third_Party/FreeRTOS/Source/timers.c **** 
  88:Middlewares/Third_Party/FreeRTOS/Source/timers.c **** /* The old xTIMER name is maintained above then typedefed to the new Timer_t
  89:Middlewares/Third_Party/FreeRTOS/Source/timers.c ****  * name below to enable the use of older kernel aware debuggers. */
ARM GAS  C:\Users\main\AppData\Local\Temp\ccYPpv0e.s 			page 3


  90:Middlewares/Third_Party/FreeRTOS/Source/timers.c ****     typedef xTIMER Timer_t;
  91:Middlewares/Third_Party/FreeRTOS/Source/timers.c **** 
  92:Middlewares/Third_Party/FreeRTOS/Source/timers.c **** /* The definition of messages that can be sent and received on the timer queue.
  93:Middlewares/Third_Party/FreeRTOS/Source/timers.c ****  * Two types of message can be queued - messages that manipulate a software timer,
  94:Middlewares/Third_Party/FreeRTOS/Source/timers.c ****  * and messages that request the execution of a non-timer related callback.  The
  95:Middlewares/Third_Party/FreeRTOS/Source/timers.c ****  * two message types are defined in two separate structures, xTimerParametersType
  96:Middlewares/Third_Party/FreeRTOS/Source/timers.c ****  * and xCallbackParametersType respectively. */
  97:Middlewares/Third_Party/FreeRTOS/Source/timers.c ****     typedef struct tmrTimerParameters
  98:Middlewares/Third_Party/FreeRTOS/Source/timers.c ****     {
  99:Middlewares/Third_Party/FreeRTOS/Source/timers.c ****         TickType_t xMessageValue; /**< An optional value used by a subset of commands, for example,
 100:Middlewares/Third_Party/FreeRTOS/Source/timers.c ****         Timer_t * pxTimer;        /**< The timer to which the command will be applied. */
 101:Middlewares/Third_Party/FreeRTOS/Source/timers.c ****     } TimerParameter_t;
 102:Middlewares/Third_Party/FreeRTOS/Source/timers.c **** 
 103:Middlewares/Third_Party/FreeRTOS/Source/timers.c **** 
 104:Middlewares/Third_Party/FreeRTOS/Source/timers.c ****     typedef struct tmrCallbackParameters
 105:Middlewares/Third_Party/FreeRTOS/Source/timers.c ****     {
 106:Middlewares/Third_Party/FreeRTOS/Source/timers.c ****         PendedFunction_t pxCallbackFunction; /* << The callback function to execute. */
 107:Middlewares/Third_Party/FreeRTOS/Source/timers.c ****         void * pvParameter1;                 /* << The value that will be used as the callback func
 108:Middlewares/Third_Party/FreeRTOS/Source/timers.c ****         uint32_t ulParameter2;               /* << The value that will be used as the callback func
 109:Middlewares/Third_Party/FreeRTOS/Source/timers.c ****     } CallbackParameters_t;
 110:Middlewares/Third_Party/FreeRTOS/Source/timers.c **** 
 111:Middlewares/Third_Party/FreeRTOS/Source/timers.c **** /* The structure that contains the two message types, along with an identifier
 112:Middlewares/Third_Party/FreeRTOS/Source/timers.c ****  * that is used to determine which message type is valid. */
 113:Middlewares/Third_Party/FreeRTOS/Source/timers.c ****     typedef struct tmrTimerQueueMessage
 114:Middlewares/Third_Party/FreeRTOS/Source/timers.c ****     {
 115:Middlewares/Third_Party/FreeRTOS/Source/timers.c ****         BaseType_t xMessageID; /**< The command being sent to the timer service task. */
 116:Middlewares/Third_Party/FreeRTOS/Source/timers.c ****         union
 117:Middlewares/Third_Party/FreeRTOS/Source/timers.c ****         {
 118:Middlewares/Third_Party/FreeRTOS/Source/timers.c ****             TimerParameter_t xTimerParameters;
 119:Middlewares/Third_Party/FreeRTOS/Source/timers.c **** 
 120:Middlewares/Third_Party/FreeRTOS/Source/timers.c ****             /* Don't include xCallbackParameters if it is not going to be used as
 121:Middlewares/Third_Party/FreeRTOS/Source/timers.c ****              * it makes the structure (and therefore the timer queue) larger. */
 122:Middlewares/Third_Party/FreeRTOS/Source/timers.c ****             #if ( INCLUDE_xTimerPendFunctionCall == 1 )
 123:Middlewares/Third_Party/FreeRTOS/Source/timers.c ****                 CallbackParameters_t xCallbackParameters;
 124:Middlewares/Third_Party/FreeRTOS/Source/timers.c ****             #endif /* INCLUDE_xTimerPendFunctionCall */
 125:Middlewares/Third_Party/FreeRTOS/Source/timers.c ****         } u;
 126:Middlewares/Third_Party/FreeRTOS/Source/timers.c ****     } DaemonTaskMessage_t;
 127:Middlewares/Third_Party/FreeRTOS/Source/timers.c **** 
 128:Middlewares/Third_Party/FreeRTOS/Source/timers.c **** /*lint -save -e956 A manual analysis and inspection has been used to determine
 129:Middlewares/Third_Party/FreeRTOS/Source/timers.c ****  * which static variables must be declared volatile. */
 130:Middlewares/Third_Party/FreeRTOS/Source/timers.c **** 
 131:Middlewares/Third_Party/FreeRTOS/Source/timers.c **** /* The list in which active timers are stored.  Timers are referenced in expire
 132:Middlewares/Third_Party/FreeRTOS/Source/timers.c ****  * time order, with the nearest expiry time at the front of the list.  Only the
 133:Middlewares/Third_Party/FreeRTOS/Source/timers.c ****  * timer service task is allowed to access these lists.
 134:Middlewares/Third_Party/FreeRTOS/Source/timers.c ****  * xActiveTimerList1 and xActiveTimerList2 could be at function scope but that
 135:Middlewares/Third_Party/FreeRTOS/Source/timers.c ****  * breaks some kernel aware debuggers, and debuggers that reply on removing the
 136:Middlewares/Third_Party/FreeRTOS/Source/timers.c ****  * static qualifier. */
 137:Middlewares/Third_Party/FreeRTOS/Source/timers.c ****     PRIVILEGED_DATA static List_t xActiveTimerList1;
 138:Middlewares/Third_Party/FreeRTOS/Source/timers.c ****     PRIVILEGED_DATA static List_t xActiveTimerList2;
 139:Middlewares/Third_Party/FreeRTOS/Source/timers.c ****     PRIVILEGED_DATA static List_t * pxCurrentTimerList;
 140:Middlewares/Third_Party/FreeRTOS/Source/timers.c ****     PRIVILEGED_DATA static List_t * pxOverflowTimerList;
 141:Middlewares/Third_Party/FreeRTOS/Source/timers.c **** 
 142:Middlewares/Third_Party/FreeRTOS/Source/timers.c **** /* A queue that is used to send commands to the timer service task. */
 143:Middlewares/Third_Party/FreeRTOS/Source/timers.c ****     PRIVILEGED_DATA static QueueHandle_t xTimerQueue = NULL;
 144:Middlewares/Third_Party/FreeRTOS/Source/timers.c ****     PRIVILEGED_DATA static TaskHandle_t xTimerTaskHandle = NULL;
 145:Middlewares/Third_Party/FreeRTOS/Source/timers.c **** 
 146:Middlewares/Third_Party/FreeRTOS/Source/timers.c **** /*lint -restore */
ARM GAS  C:\Users\main\AppData\Local\Temp\ccYPpv0e.s 			page 4


 147:Middlewares/Third_Party/FreeRTOS/Source/timers.c **** 
 148:Middlewares/Third_Party/FreeRTOS/Source/timers.c **** /*-----------------------------------------------------------*/
 149:Middlewares/Third_Party/FreeRTOS/Source/timers.c **** 
 150:Middlewares/Third_Party/FreeRTOS/Source/timers.c **** /*
 151:Middlewares/Third_Party/FreeRTOS/Source/timers.c ****  * Initialise the infrastructure used by the timer service task if it has not
 152:Middlewares/Third_Party/FreeRTOS/Source/timers.c ****  * been initialised already.
 153:Middlewares/Third_Party/FreeRTOS/Source/timers.c ****  */
 154:Middlewares/Third_Party/FreeRTOS/Source/timers.c ****     static void prvCheckForValidListAndQueue( void ) PRIVILEGED_FUNCTION;
 155:Middlewares/Third_Party/FreeRTOS/Source/timers.c **** 
 156:Middlewares/Third_Party/FreeRTOS/Source/timers.c **** /*
 157:Middlewares/Third_Party/FreeRTOS/Source/timers.c ****  * The timer service task (daemon).  Timer functionality is controlled by this
 158:Middlewares/Third_Party/FreeRTOS/Source/timers.c ****  * task.  Other tasks communicate with the timer service task using the
 159:Middlewares/Third_Party/FreeRTOS/Source/timers.c ****  * xTimerQueue queue.
 160:Middlewares/Third_Party/FreeRTOS/Source/timers.c ****  */
 161:Middlewares/Third_Party/FreeRTOS/Source/timers.c ****     static portTASK_FUNCTION_PROTO( prvTimerTask, pvParameters ) PRIVILEGED_FUNCTION;
 162:Middlewares/Third_Party/FreeRTOS/Source/timers.c **** 
 163:Middlewares/Third_Party/FreeRTOS/Source/timers.c **** /*
 164:Middlewares/Third_Party/FreeRTOS/Source/timers.c ****  * Called by the timer service task to interpret and process a command it
 165:Middlewares/Third_Party/FreeRTOS/Source/timers.c ****  * received on the timer queue.
 166:Middlewares/Third_Party/FreeRTOS/Source/timers.c ****  */
 167:Middlewares/Third_Party/FreeRTOS/Source/timers.c ****     static void prvProcessReceivedCommands( void ) PRIVILEGED_FUNCTION;
 168:Middlewares/Third_Party/FreeRTOS/Source/timers.c **** 
 169:Middlewares/Third_Party/FreeRTOS/Source/timers.c **** /*
 170:Middlewares/Third_Party/FreeRTOS/Source/timers.c ****  * Insert the timer into either xActiveTimerList1, or xActiveTimerList2,
 171:Middlewares/Third_Party/FreeRTOS/Source/timers.c ****  * depending on if the expire time causes a timer counter overflow.
 172:Middlewares/Third_Party/FreeRTOS/Source/timers.c ****  */
 173:Middlewares/Third_Party/FreeRTOS/Source/timers.c ****     static BaseType_t prvInsertTimerInActiveList( Timer_t * const pxTimer,
 174:Middlewares/Third_Party/FreeRTOS/Source/timers.c ****                                                   const TickType_t xNextExpiryTime,
 175:Middlewares/Third_Party/FreeRTOS/Source/timers.c ****                                                   const TickType_t xTimeNow,
 176:Middlewares/Third_Party/FreeRTOS/Source/timers.c ****                                                   const TickType_t xCommandTime ) PRIVILEGED_FUNCTI
 177:Middlewares/Third_Party/FreeRTOS/Source/timers.c **** 
 178:Middlewares/Third_Party/FreeRTOS/Source/timers.c **** /*
 179:Middlewares/Third_Party/FreeRTOS/Source/timers.c ****  * Reload the specified auto-reload timer.  If the reloading is backlogged,
 180:Middlewares/Third_Party/FreeRTOS/Source/timers.c ****  * clear the backlog, calling the callback for each additional reload.  When
 181:Middlewares/Third_Party/FreeRTOS/Source/timers.c ****  * this function returns, the next expiry time is after xTimeNow.
 182:Middlewares/Third_Party/FreeRTOS/Source/timers.c ****  */
 183:Middlewares/Third_Party/FreeRTOS/Source/timers.c ****     static void prvReloadTimer( Timer_t * const pxTimer,
 184:Middlewares/Third_Party/FreeRTOS/Source/timers.c ****                                 TickType_t xExpiredTime,
 185:Middlewares/Third_Party/FreeRTOS/Source/timers.c ****                                 const TickType_t xTimeNow ) PRIVILEGED_FUNCTION;
 186:Middlewares/Third_Party/FreeRTOS/Source/timers.c **** 
 187:Middlewares/Third_Party/FreeRTOS/Source/timers.c **** /*
 188:Middlewares/Third_Party/FreeRTOS/Source/timers.c ****  * An active timer has reached its expire time.  Reload the timer if it is an
 189:Middlewares/Third_Party/FreeRTOS/Source/timers.c ****  * auto-reload timer, then call its callback.
 190:Middlewares/Third_Party/FreeRTOS/Source/timers.c ****  */
 191:Middlewares/Third_Party/FreeRTOS/Source/timers.c ****     static void prvProcessExpiredTimer( const TickType_t xNextExpireTime,
 192:Middlewares/Third_Party/FreeRTOS/Source/timers.c ****                                         const TickType_t xTimeNow ) PRIVILEGED_FUNCTION;
 193:Middlewares/Third_Party/FreeRTOS/Source/timers.c **** 
 194:Middlewares/Third_Party/FreeRTOS/Source/timers.c **** /*
 195:Middlewares/Third_Party/FreeRTOS/Source/timers.c ****  * The tick count has overflowed.  Switch the timer lists after ensuring the
 196:Middlewares/Third_Party/FreeRTOS/Source/timers.c ****  * current timer list does not still reference some timers.
 197:Middlewares/Third_Party/FreeRTOS/Source/timers.c ****  */
 198:Middlewares/Third_Party/FreeRTOS/Source/timers.c ****     static void prvSwitchTimerLists( void ) PRIVILEGED_FUNCTION;
 199:Middlewares/Third_Party/FreeRTOS/Source/timers.c **** 
 200:Middlewares/Third_Party/FreeRTOS/Source/timers.c **** /*
 201:Middlewares/Third_Party/FreeRTOS/Source/timers.c ****  * Obtain the current tick count, setting *pxTimerListsWereSwitched to pdTRUE
 202:Middlewares/Third_Party/FreeRTOS/Source/timers.c ****  * if a tick count overflow occurred since prvSampleTimeNow() was last called.
 203:Middlewares/Third_Party/FreeRTOS/Source/timers.c ****  */
ARM GAS  C:\Users\main\AppData\Local\Temp\ccYPpv0e.s 			page 5


 204:Middlewares/Third_Party/FreeRTOS/Source/timers.c ****     static TickType_t prvSampleTimeNow( BaseType_t * const pxTimerListsWereSwitched ) PRIVILEGED_FU
 205:Middlewares/Third_Party/FreeRTOS/Source/timers.c **** 
 206:Middlewares/Third_Party/FreeRTOS/Source/timers.c **** /*
 207:Middlewares/Third_Party/FreeRTOS/Source/timers.c ****  * If the timer list contains any active timers then return the expire time of
 208:Middlewares/Third_Party/FreeRTOS/Source/timers.c ****  * the timer that will expire first and set *pxListWasEmpty to false.  If the
 209:Middlewares/Third_Party/FreeRTOS/Source/timers.c ****  * timer list does not contain any timers then return 0 and set *pxListWasEmpty
 210:Middlewares/Third_Party/FreeRTOS/Source/timers.c ****  * to pdTRUE.
 211:Middlewares/Third_Party/FreeRTOS/Source/timers.c ****  */
 212:Middlewares/Third_Party/FreeRTOS/Source/timers.c ****     static TickType_t prvGetNextExpireTime( BaseType_t * const pxListWasEmpty ) PRIVILEGED_FUNCTION
 213:Middlewares/Third_Party/FreeRTOS/Source/timers.c **** 
 214:Middlewares/Third_Party/FreeRTOS/Source/timers.c **** /*
 215:Middlewares/Third_Party/FreeRTOS/Source/timers.c ****  * If a timer has expired, process it.  Otherwise, block the timer service task
 216:Middlewares/Third_Party/FreeRTOS/Source/timers.c ****  * until either a timer does expire or a command is received.
 217:Middlewares/Third_Party/FreeRTOS/Source/timers.c ****  */
 218:Middlewares/Third_Party/FreeRTOS/Source/timers.c ****     static void prvProcessTimerOrBlockTask( const TickType_t xNextExpireTime,
 219:Middlewares/Third_Party/FreeRTOS/Source/timers.c ****                                             BaseType_t xListWasEmpty ) PRIVILEGED_FUNCTION;
 220:Middlewares/Third_Party/FreeRTOS/Source/timers.c **** 
 221:Middlewares/Third_Party/FreeRTOS/Source/timers.c **** /*
 222:Middlewares/Third_Party/FreeRTOS/Source/timers.c ****  * Called after a Timer_t structure has been allocated either statically or
 223:Middlewares/Third_Party/FreeRTOS/Source/timers.c ****  * dynamically to fill in the structure's members.
 224:Middlewares/Third_Party/FreeRTOS/Source/timers.c ****  */
 225:Middlewares/Third_Party/FreeRTOS/Source/timers.c ****     static void prvInitialiseNewTimer( const char * const pcTimerName, /*lint !e971 Unqualified cha
 226:Middlewares/Third_Party/FreeRTOS/Source/timers.c ****                                        const TickType_t xTimerPeriodInTicks,
 227:Middlewares/Third_Party/FreeRTOS/Source/timers.c ****                                        const BaseType_t xAutoReload,
 228:Middlewares/Third_Party/FreeRTOS/Source/timers.c ****                                        void * const pvTimerID,
 229:Middlewares/Third_Party/FreeRTOS/Source/timers.c ****                                        TimerCallbackFunction_t pxCallbackFunction,
 230:Middlewares/Third_Party/FreeRTOS/Source/timers.c ****                                        Timer_t * pxNewTimer ) PRIVILEGED_FUNCTION;
 231:Middlewares/Third_Party/FreeRTOS/Source/timers.c **** /*-----------------------------------------------------------*/
 232:Middlewares/Third_Party/FreeRTOS/Source/timers.c **** 
 233:Middlewares/Third_Party/FreeRTOS/Source/timers.c ****     BaseType_t xTimerCreateTimerTask( void )
 234:Middlewares/Third_Party/FreeRTOS/Source/timers.c ****     {
 235:Middlewares/Third_Party/FreeRTOS/Source/timers.c ****         BaseType_t xReturn = pdFAIL;
 236:Middlewares/Third_Party/FreeRTOS/Source/timers.c **** 
 237:Middlewares/Third_Party/FreeRTOS/Source/timers.c ****         /* This function is called when the scheduler is started if
 238:Middlewares/Third_Party/FreeRTOS/Source/timers.c ****          * configUSE_TIMERS is set to 1.  Check that the infrastructure used by the
 239:Middlewares/Third_Party/FreeRTOS/Source/timers.c ****          * timer service task has been created/initialised.  If timers have already
 240:Middlewares/Third_Party/FreeRTOS/Source/timers.c ****          * been created then the initialisation will already have been performed. */
 241:Middlewares/Third_Party/FreeRTOS/Source/timers.c ****         prvCheckForValidListAndQueue();
 242:Middlewares/Third_Party/FreeRTOS/Source/timers.c **** 
 243:Middlewares/Third_Party/FreeRTOS/Source/timers.c ****         if( xTimerQueue != NULL )
 244:Middlewares/Third_Party/FreeRTOS/Source/timers.c ****         {
 245:Middlewares/Third_Party/FreeRTOS/Source/timers.c ****             #if ( configSUPPORT_STATIC_ALLOCATION == 1 )
 246:Middlewares/Third_Party/FreeRTOS/Source/timers.c ****             {
 247:Middlewares/Third_Party/FreeRTOS/Source/timers.c ****                 StaticTask_t * pxTimerTaskTCBBuffer = NULL;
 248:Middlewares/Third_Party/FreeRTOS/Source/timers.c ****                 StackType_t * pxTimerTaskStackBuffer = NULL;
 249:Middlewares/Third_Party/FreeRTOS/Source/timers.c ****                 uint32_t ulTimerTaskStackSize;
 250:Middlewares/Third_Party/FreeRTOS/Source/timers.c **** 
 251:Middlewares/Third_Party/FreeRTOS/Source/timers.c ****                 vApplicationGetTimerTaskMemory( &pxTimerTaskTCBBuffer, &pxTimerTaskStackBuffer, &ul
 252:Middlewares/Third_Party/FreeRTOS/Source/timers.c ****                 xTimerTaskHandle = xTaskCreateStatic( prvTimerTask,
 253:Middlewares/Third_Party/FreeRTOS/Source/timers.c ****                                                       configTIMER_SERVICE_TASK_NAME,
 254:Middlewares/Third_Party/FreeRTOS/Source/timers.c ****                                                       ulTimerTaskStackSize,
 255:Middlewares/Third_Party/FreeRTOS/Source/timers.c ****                                                       NULL,
 256:Middlewares/Third_Party/FreeRTOS/Source/timers.c ****                                                       ( ( UBaseType_t ) configTIMER_TASK_PRIORITY )
 257:Middlewares/Third_Party/FreeRTOS/Source/timers.c ****                                                       pxTimerTaskStackBuffer,
 258:Middlewares/Third_Party/FreeRTOS/Source/timers.c ****                                                       pxTimerTaskTCBBuffer );
 259:Middlewares/Third_Party/FreeRTOS/Source/timers.c **** 
 260:Middlewares/Third_Party/FreeRTOS/Source/timers.c ****                 if( xTimerTaskHandle != NULL )
ARM GAS  C:\Users\main\AppData\Local\Temp\ccYPpv0e.s 			page 6


 261:Middlewares/Third_Party/FreeRTOS/Source/timers.c ****                 {
 262:Middlewares/Third_Party/FreeRTOS/Source/timers.c ****                     xReturn = pdPASS;
 263:Middlewares/Third_Party/FreeRTOS/Source/timers.c ****                 }
 264:Middlewares/Third_Party/FreeRTOS/Source/timers.c ****             }
 265:Middlewares/Third_Party/FreeRTOS/Source/timers.c ****             #else /* if ( configSUPPORT_STATIC_ALLOCATION == 1 ) */
 266:Middlewares/Third_Party/FreeRTOS/Source/timers.c ****             {
 267:Middlewares/Third_Party/FreeRTOS/Source/timers.c ****                 xReturn = xTaskCreate( prvTimerTask,
 268:Middlewares/Third_Party/FreeRTOS/Source/timers.c ****                                        configTIMER_SERVICE_TASK_NAME,
 269:Middlewares/Third_Party/FreeRTOS/Source/timers.c ****                                        configTIMER_TASK_STACK_DEPTH,
 270:Middlewares/Third_Party/FreeRTOS/Source/timers.c ****                                        NULL,
 271:Middlewares/Third_Party/FreeRTOS/Source/timers.c ****                                        ( ( UBaseType_t ) configTIMER_TASK_PRIORITY ) | portPRIVILEG
 272:Middlewares/Third_Party/FreeRTOS/Source/timers.c ****                                        &xTimerTaskHandle );
 273:Middlewares/Third_Party/FreeRTOS/Source/timers.c ****             }
 274:Middlewares/Third_Party/FreeRTOS/Source/timers.c ****             #endif /* configSUPPORT_STATIC_ALLOCATION */
 275:Middlewares/Third_Party/FreeRTOS/Source/timers.c ****         }
 276:Middlewares/Third_Party/FreeRTOS/Source/timers.c ****         else
 277:Middlewares/Third_Party/FreeRTOS/Source/timers.c ****         {
 278:Middlewares/Third_Party/FreeRTOS/Source/timers.c ****             mtCOVERAGE_TEST_MARKER();
 279:Middlewares/Third_Party/FreeRTOS/Source/timers.c ****         }
 280:Middlewares/Third_Party/FreeRTOS/Source/timers.c **** 
 281:Middlewares/Third_Party/FreeRTOS/Source/timers.c ****         configASSERT( xReturn );
 282:Middlewares/Third_Party/FreeRTOS/Source/timers.c ****         return xReturn;
 283:Middlewares/Third_Party/FreeRTOS/Source/timers.c ****     }
 284:Middlewares/Third_Party/FreeRTOS/Source/timers.c **** /*-----------------------------------------------------------*/
 285:Middlewares/Third_Party/FreeRTOS/Source/timers.c **** 
 286:Middlewares/Third_Party/FreeRTOS/Source/timers.c ****     #if ( configSUPPORT_DYNAMIC_ALLOCATION == 1 )
 287:Middlewares/Third_Party/FreeRTOS/Source/timers.c **** 
 288:Middlewares/Third_Party/FreeRTOS/Source/timers.c ****         TimerHandle_t xTimerCreate( const char * const pcTimerName, /*lint !e971 Unqualified char t
 289:Middlewares/Third_Party/FreeRTOS/Source/timers.c ****                                     const TickType_t xTimerPeriodInTicks,
 290:Middlewares/Third_Party/FreeRTOS/Source/timers.c ****                                     const BaseType_t xAutoReload,
 291:Middlewares/Third_Party/FreeRTOS/Source/timers.c ****                                     void * const pvTimerID,
 292:Middlewares/Third_Party/FreeRTOS/Source/timers.c ****                                     TimerCallbackFunction_t pxCallbackFunction )
 293:Middlewares/Third_Party/FreeRTOS/Source/timers.c ****         {
 294:Middlewares/Third_Party/FreeRTOS/Source/timers.c ****             Timer_t * pxNewTimer;
 295:Middlewares/Third_Party/FreeRTOS/Source/timers.c **** 
 296:Middlewares/Third_Party/FreeRTOS/Source/timers.c ****             pxNewTimer = ( Timer_t * ) pvPortMalloc( sizeof( Timer_t ) ); /*lint !e9087 !e9079 All 
 297:Middlewares/Third_Party/FreeRTOS/Source/timers.c **** 
 298:Middlewares/Third_Party/FreeRTOS/Source/timers.c ****             if( pxNewTimer != NULL )
 299:Middlewares/Third_Party/FreeRTOS/Source/timers.c ****             {
 300:Middlewares/Third_Party/FreeRTOS/Source/timers.c ****                 /* Status is thus far zero as the timer is not created statically
 301:Middlewares/Third_Party/FreeRTOS/Source/timers.c ****                  * and has not been started.  The auto-reload bit may get set in
 302:Middlewares/Third_Party/FreeRTOS/Source/timers.c ****                  * prvInitialiseNewTimer. */
 303:Middlewares/Third_Party/FreeRTOS/Source/timers.c ****                 pxNewTimer->ucStatus = 0x00;
 304:Middlewares/Third_Party/FreeRTOS/Source/timers.c ****                 prvInitialiseNewTimer( pcTimerName, xTimerPeriodInTicks, xAutoReload, pvTimerID, px
 305:Middlewares/Third_Party/FreeRTOS/Source/timers.c ****             }
 306:Middlewares/Third_Party/FreeRTOS/Source/timers.c **** 
 307:Middlewares/Third_Party/FreeRTOS/Source/timers.c ****             return pxNewTimer;
 308:Middlewares/Third_Party/FreeRTOS/Source/timers.c ****         }
 309:Middlewares/Third_Party/FreeRTOS/Source/timers.c **** 
 310:Middlewares/Third_Party/FreeRTOS/Source/timers.c ****     #endif /* configSUPPORT_DYNAMIC_ALLOCATION */
 311:Middlewares/Third_Party/FreeRTOS/Source/timers.c **** /*-----------------------------------------------------------*/
 312:Middlewares/Third_Party/FreeRTOS/Source/timers.c **** 
 313:Middlewares/Third_Party/FreeRTOS/Source/timers.c ****     #if ( configSUPPORT_STATIC_ALLOCATION == 1 )
 314:Middlewares/Third_Party/FreeRTOS/Source/timers.c **** 
 315:Middlewares/Third_Party/FreeRTOS/Source/timers.c ****         TimerHandle_t xTimerCreateStatic( const char * const pcTimerName, /*lint !e971 Unqualified 
 316:Middlewares/Third_Party/FreeRTOS/Source/timers.c ****                                           const TickType_t xTimerPeriodInTicks,
 317:Middlewares/Third_Party/FreeRTOS/Source/timers.c ****                                           const BaseType_t xAutoReload,
ARM GAS  C:\Users\main\AppData\Local\Temp\ccYPpv0e.s 			page 7


 318:Middlewares/Third_Party/FreeRTOS/Source/timers.c ****                                           void * const pvTimerID,
 319:Middlewares/Third_Party/FreeRTOS/Source/timers.c ****                                           TimerCallbackFunction_t pxCallbackFunction,
 320:Middlewares/Third_Party/FreeRTOS/Source/timers.c ****                                           StaticTimer_t * pxTimerBuffer )
 321:Middlewares/Third_Party/FreeRTOS/Source/timers.c ****         {
 322:Middlewares/Third_Party/FreeRTOS/Source/timers.c ****             Timer_t * pxNewTimer;
 323:Middlewares/Third_Party/FreeRTOS/Source/timers.c **** 
 324:Middlewares/Third_Party/FreeRTOS/Source/timers.c ****             #if ( configASSERT_DEFINED == 1 )
 325:Middlewares/Third_Party/FreeRTOS/Source/timers.c ****             {
 326:Middlewares/Third_Party/FreeRTOS/Source/timers.c ****                 /* Sanity check that the size of the structure used to declare a
 327:Middlewares/Third_Party/FreeRTOS/Source/timers.c ****                  * variable of type StaticTimer_t equals the size of the real timer
 328:Middlewares/Third_Party/FreeRTOS/Source/timers.c ****                  * structure. */
 329:Middlewares/Third_Party/FreeRTOS/Source/timers.c ****                 volatile size_t xSize = sizeof( StaticTimer_t );
 330:Middlewares/Third_Party/FreeRTOS/Source/timers.c ****                 configASSERT( xSize == sizeof( Timer_t ) );
 331:Middlewares/Third_Party/FreeRTOS/Source/timers.c ****                 ( void ) xSize; /* Keeps lint quiet when configASSERT() is not defined. */
 332:Middlewares/Third_Party/FreeRTOS/Source/timers.c ****             }
 333:Middlewares/Third_Party/FreeRTOS/Source/timers.c ****             #endif /* configASSERT_DEFINED */
 334:Middlewares/Third_Party/FreeRTOS/Source/timers.c **** 
 335:Middlewares/Third_Party/FreeRTOS/Source/timers.c ****             /* A pointer to a StaticTimer_t structure MUST be provided, use it. */
 336:Middlewares/Third_Party/FreeRTOS/Source/timers.c ****             configASSERT( pxTimerBuffer );
 337:Middlewares/Third_Party/FreeRTOS/Source/timers.c ****             pxNewTimer = ( Timer_t * ) pxTimerBuffer; /*lint !e740 !e9087 StaticTimer_t is a pointe
 338:Middlewares/Third_Party/FreeRTOS/Source/timers.c **** 
 339:Middlewares/Third_Party/FreeRTOS/Source/timers.c ****             if( pxNewTimer != NULL )
 340:Middlewares/Third_Party/FreeRTOS/Source/timers.c ****             {
 341:Middlewares/Third_Party/FreeRTOS/Source/timers.c ****                 /* Timers can be created statically or dynamically so note this
 342:Middlewares/Third_Party/FreeRTOS/Source/timers.c ****                  * timer was created statically in case it is later deleted.  The
 343:Middlewares/Third_Party/FreeRTOS/Source/timers.c ****                  * auto-reload bit may get set in prvInitialiseNewTimer(). */
 344:Middlewares/Third_Party/FreeRTOS/Source/timers.c ****                 pxNewTimer->ucStatus = tmrSTATUS_IS_STATICALLY_ALLOCATED;
 345:Middlewares/Third_Party/FreeRTOS/Source/timers.c **** 
 346:Middlewares/Third_Party/FreeRTOS/Source/timers.c ****                 prvInitialiseNewTimer( pcTimerName, xTimerPeriodInTicks, xAutoReload, pvTimerID, px
 347:Middlewares/Third_Party/FreeRTOS/Source/timers.c ****             }
 348:Middlewares/Third_Party/FreeRTOS/Source/timers.c **** 
 349:Middlewares/Third_Party/FreeRTOS/Source/timers.c ****             return pxNewTimer;
 350:Middlewares/Third_Party/FreeRTOS/Source/timers.c ****         }
 351:Middlewares/Third_Party/FreeRTOS/Source/timers.c **** 
 352:Middlewares/Third_Party/FreeRTOS/Source/timers.c ****     #endif /* configSUPPORT_STATIC_ALLOCATION */
 353:Middlewares/Third_Party/FreeRTOS/Source/timers.c **** /*-----------------------------------------------------------*/
 354:Middlewares/Third_Party/FreeRTOS/Source/timers.c **** 
 355:Middlewares/Third_Party/FreeRTOS/Source/timers.c ****     static void prvInitialiseNewTimer( const char * const pcTimerName, /*lint !e971 Unqualified cha
 356:Middlewares/Third_Party/FreeRTOS/Source/timers.c ****                                        const TickType_t xTimerPeriodInTicks,
 357:Middlewares/Third_Party/FreeRTOS/Source/timers.c ****                                        const BaseType_t xAutoReload,
 358:Middlewares/Third_Party/FreeRTOS/Source/timers.c ****                                        void * const pvTimerID,
 359:Middlewares/Third_Party/FreeRTOS/Source/timers.c ****                                        TimerCallbackFunction_t pxCallbackFunction,
 360:Middlewares/Third_Party/FreeRTOS/Source/timers.c ****                                        Timer_t * pxNewTimer )
 361:Middlewares/Third_Party/FreeRTOS/Source/timers.c ****     {
 362:Middlewares/Third_Party/FreeRTOS/Source/timers.c ****         /* 0 is not a valid value for xTimerPeriodInTicks. */
 363:Middlewares/Third_Party/FreeRTOS/Source/timers.c ****         configASSERT( ( xTimerPeriodInTicks > 0 ) );
 364:Middlewares/Third_Party/FreeRTOS/Source/timers.c **** 
 365:Middlewares/Third_Party/FreeRTOS/Source/timers.c ****         /* Ensure the infrastructure used by the timer service task has been
 366:Middlewares/Third_Party/FreeRTOS/Source/timers.c ****          * created/initialised. */
 367:Middlewares/Third_Party/FreeRTOS/Source/timers.c ****         prvCheckForValidListAndQueue();
 368:Middlewares/Third_Party/FreeRTOS/Source/timers.c **** 
 369:Middlewares/Third_Party/FreeRTOS/Source/timers.c ****         /* Initialise the timer structure members using the function
 370:Middlewares/Third_Party/FreeRTOS/Source/timers.c ****          * parameters. */
 371:Middlewares/Third_Party/FreeRTOS/Source/timers.c ****         pxNewTimer->pcTimerName = pcTimerName;
 372:Middlewares/Third_Party/FreeRTOS/Source/timers.c ****         pxNewTimer->xTimerPeriodInTicks = xTimerPeriodInTicks;
 373:Middlewares/Third_Party/FreeRTOS/Source/timers.c ****         pxNewTimer->pvTimerID = pvTimerID;
 374:Middlewares/Third_Party/FreeRTOS/Source/timers.c ****         pxNewTimer->pxCallbackFunction = pxCallbackFunction;
ARM GAS  C:\Users\main\AppData\Local\Temp\ccYPpv0e.s 			page 8


 375:Middlewares/Third_Party/FreeRTOS/Source/timers.c ****         vListInitialiseItem( &( pxNewTimer->xTimerListItem ) );
 376:Middlewares/Third_Party/FreeRTOS/Source/timers.c **** 
 377:Middlewares/Third_Party/FreeRTOS/Source/timers.c ****         if( xAutoReload != pdFALSE )
 378:Middlewares/Third_Party/FreeRTOS/Source/timers.c ****         {
 379:Middlewares/Third_Party/FreeRTOS/Source/timers.c ****             pxNewTimer->ucStatus |= tmrSTATUS_IS_AUTORELOAD;
 380:Middlewares/Third_Party/FreeRTOS/Source/timers.c ****         }
 381:Middlewares/Third_Party/FreeRTOS/Source/timers.c **** 
 382:Middlewares/Third_Party/FreeRTOS/Source/timers.c ****         traceTIMER_CREATE( pxNewTimer );
 383:Middlewares/Third_Party/FreeRTOS/Source/timers.c ****     }
 384:Middlewares/Third_Party/FreeRTOS/Source/timers.c **** /*-----------------------------------------------------------*/
 385:Middlewares/Third_Party/FreeRTOS/Source/timers.c **** 
 386:Middlewares/Third_Party/FreeRTOS/Source/timers.c ****     BaseType_t xTimerGenericCommand( TimerHandle_t xTimer,
 387:Middlewares/Third_Party/FreeRTOS/Source/timers.c ****                                      const BaseType_t xCommandID,
 388:Middlewares/Third_Party/FreeRTOS/Source/timers.c ****                                      const TickType_t xOptionalValue,
 389:Middlewares/Third_Party/FreeRTOS/Source/timers.c ****                                      BaseType_t * const pxHigherPriorityTaskWoken,
 390:Middlewares/Third_Party/FreeRTOS/Source/timers.c ****                                      const TickType_t xTicksToWait )
 391:Middlewares/Third_Party/FreeRTOS/Source/timers.c ****     {
 392:Middlewares/Third_Party/FreeRTOS/Source/timers.c ****         BaseType_t xReturn = pdFAIL;
 393:Middlewares/Third_Party/FreeRTOS/Source/timers.c ****         DaemonTaskMessage_t xMessage;
 394:Middlewares/Third_Party/FreeRTOS/Source/timers.c **** 
 395:Middlewares/Third_Party/FreeRTOS/Source/timers.c ****         configASSERT( xTimer );
 396:Middlewares/Third_Party/FreeRTOS/Source/timers.c **** 
 397:Middlewares/Third_Party/FreeRTOS/Source/timers.c ****         /* Send a message to the timer service task to perform a particular action
 398:Middlewares/Third_Party/FreeRTOS/Source/timers.c ****          * on a particular timer definition. */
 399:Middlewares/Third_Party/FreeRTOS/Source/timers.c ****         if( xTimerQueue != NULL )
 400:Middlewares/Third_Party/FreeRTOS/Source/timers.c ****         {
 401:Middlewares/Third_Party/FreeRTOS/Source/timers.c ****             /* Send a command to the timer service task to start the xTimer timer. */
 402:Middlewares/Third_Party/FreeRTOS/Source/timers.c ****             xMessage.xMessageID = xCommandID;
 403:Middlewares/Third_Party/FreeRTOS/Source/timers.c ****             xMessage.u.xTimerParameters.xMessageValue = xOptionalValue;
 404:Middlewares/Third_Party/FreeRTOS/Source/timers.c ****             xMessage.u.xTimerParameters.pxTimer = xTimer;
 405:Middlewares/Third_Party/FreeRTOS/Source/timers.c **** 
 406:Middlewares/Third_Party/FreeRTOS/Source/timers.c ****             if( xCommandID < tmrFIRST_FROM_ISR_COMMAND )
 407:Middlewares/Third_Party/FreeRTOS/Source/timers.c ****             {
 408:Middlewares/Third_Party/FreeRTOS/Source/timers.c ****                 if( xTaskGetSchedulerState() == taskSCHEDULER_RUNNING )
 409:Middlewares/Third_Party/FreeRTOS/Source/timers.c ****                 {
 410:Middlewares/Third_Party/FreeRTOS/Source/timers.c ****                     xReturn = xQueueSendToBack( xTimerQueue, &xMessage, xTicksToWait );
 411:Middlewares/Third_Party/FreeRTOS/Source/timers.c ****                 }
 412:Middlewares/Third_Party/FreeRTOS/Source/timers.c ****                 else
 413:Middlewares/Third_Party/FreeRTOS/Source/timers.c ****                 {
 414:Middlewares/Third_Party/FreeRTOS/Source/timers.c ****                     xReturn = xQueueSendToBack( xTimerQueue, &xMessage, tmrNO_DELAY );
 415:Middlewares/Third_Party/FreeRTOS/Source/timers.c ****                 }
 416:Middlewares/Third_Party/FreeRTOS/Source/timers.c ****             }
 417:Middlewares/Third_Party/FreeRTOS/Source/timers.c ****             else
 418:Middlewares/Third_Party/FreeRTOS/Source/timers.c ****             {
 419:Middlewares/Third_Party/FreeRTOS/Source/timers.c ****                 xReturn = xQueueSendToBackFromISR( xTimerQueue, &xMessage, pxHigherPriorityTaskWoke
 420:Middlewares/Third_Party/FreeRTOS/Source/timers.c ****             }
 421:Middlewares/Third_Party/FreeRTOS/Source/timers.c **** 
 422:Middlewares/Third_Party/FreeRTOS/Source/timers.c ****             traceTIMER_COMMAND_SEND( xTimer, xCommandID, xOptionalValue, xReturn );
 423:Middlewares/Third_Party/FreeRTOS/Source/timers.c ****         }
 424:Middlewares/Third_Party/FreeRTOS/Source/timers.c ****         else
 425:Middlewares/Third_Party/FreeRTOS/Source/timers.c ****         {
 426:Middlewares/Third_Party/FreeRTOS/Source/timers.c ****             mtCOVERAGE_TEST_MARKER();
 427:Middlewares/Third_Party/FreeRTOS/Source/timers.c ****         }
 428:Middlewares/Third_Party/FreeRTOS/Source/timers.c **** 
 429:Middlewares/Third_Party/FreeRTOS/Source/timers.c ****         return xReturn;
 430:Middlewares/Third_Party/FreeRTOS/Source/timers.c ****     }
 431:Middlewares/Third_Party/FreeRTOS/Source/timers.c **** /*-----------------------------------------------------------*/
ARM GAS  C:\Users\main\AppData\Local\Temp\ccYPpv0e.s 			page 9


 432:Middlewares/Third_Party/FreeRTOS/Source/timers.c **** 
 433:Middlewares/Third_Party/FreeRTOS/Source/timers.c ****     TaskHandle_t xTimerGetTimerDaemonTaskHandle( void )
 434:Middlewares/Third_Party/FreeRTOS/Source/timers.c ****     {
 435:Middlewares/Third_Party/FreeRTOS/Source/timers.c ****         /* If xTimerGetTimerDaemonTaskHandle() is called before the scheduler has been
 436:Middlewares/Third_Party/FreeRTOS/Source/timers.c ****          * started, then xTimerTaskHandle will be NULL. */
 437:Middlewares/Third_Party/FreeRTOS/Source/timers.c ****         configASSERT( ( xTimerTaskHandle != NULL ) );
 438:Middlewares/Third_Party/FreeRTOS/Source/timers.c ****         return xTimerTaskHandle;
 439:Middlewares/Third_Party/FreeRTOS/Source/timers.c ****     }
 440:Middlewares/Third_Party/FreeRTOS/Source/timers.c **** /*-----------------------------------------------------------*/
 441:Middlewares/Third_Party/FreeRTOS/Source/timers.c **** 
 442:Middlewares/Third_Party/FreeRTOS/Source/timers.c ****     TickType_t xTimerGetPeriod( TimerHandle_t xTimer )
 443:Middlewares/Third_Party/FreeRTOS/Source/timers.c ****     {
 444:Middlewares/Third_Party/FreeRTOS/Source/timers.c ****         Timer_t * pxTimer = xTimer;
 445:Middlewares/Third_Party/FreeRTOS/Source/timers.c **** 
 446:Middlewares/Third_Party/FreeRTOS/Source/timers.c ****         configASSERT( xTimer );
 447:Middlewares/Third_Party/FreeRTOS/Source/timers.c ****         return pxTimer->xTimerPeriodInTicks;
 448:Middlewares/Third_Party/FreeRTOS/Source/timers.c ****     }
 449:Middlewares/Third_Party/FreeRTOS/Source/timers.c **** /*-----------------------------------------------------------*/
 450:Middlewares/Third_Party/FreeRTOS/Source/timers.c **** 
 451:Middlewares/Third_Party/FreeRTOS/Source/timers.c ****     void vTimerSetReloadMode( TimerHandle_t xTimer,
 452:Middlewares/Third_Party/FreeRTOS/Source/timers.c ****                               const BaseType_t xAutoReload )
 453:Middlewares/Third_Party/FreeRTOS/Source/timers.c ****     {
 454:Middlewares/Third_Party/FreeRTOS/Source/timers.c ****         Timer_t * pxTimer = xTimer;
 455:Middlewares/Third_Party/FreeRTOS/Source/timers.c **** 
 456:Middlewares/Third_Party/FreeRTOS/Source/timers.c ****         configASSERT( xTimer );
 457:Middlewares/Third_Party/FreeRTOS/Source/timers.c ****         taskENTER_CRITICAL();
 458:Middlewares/Third_Party/FreeRTOS/Source/timers.c ****         {
 459:Middlewares/Third_Party/FreeRTOS/Source/timers.c ****             if( xAutoReload != pdFALSE )
 460:Middlewares/Third_Party/FreeRTOS/Source/timers.c ****             {
 461:Middlewares/Third_Party/FreeRTOS/Source/timers.c ****                 pxTimer->ucStatus |= tmrSTATUS_IS_AUTORELOAD;
 462:Middlewares/Third_Party/FreeRTOS/Source/timers.c ****             }
 463:Middlewares/Third_Party/FreeRTOS/Source/timers.c ****             else
 464:Middlewares/Third_Party/FreeRTOS/Source/timers.c ****             {
 465:Middlewares/Third_Party/FreeRTOS/Source/timers.c ****                 pxTimer->ucStatus &= ( ( uint8_t ) ~tmrSTATUS_IS_AUTORELOAD );
 466:Middlewares/Third_Party/FreeRTOS/Source/timers.c ****             }
 467:Middlewares/Third_Party/FreeRTOS/Source/timers.c ****         }
 468:Middlewares/Third_Party/FreeRTOS/Source/timers.c ****         taskEXIT_CRITICAL();
 469:Middlewares/Third_Party/FreeRTOS/Source/timers.c ****     }
 470:Middlewares/Third_Party/FreeRTOS/Source/timers.c **** /*-----------------------------------------------------------*/
 471:Middlewares/Third_Party/FreeRTOS/Source/timers.c **** 
 472:Middlewares/Third_Party/FreeRTOS/Source/timers.c ****     BaseType_t xTimerGetReloadMode( TimerHandle_t xTimer )
 473:Middlewares/Third_Party/FreeRTOS/Source/timers.c ****     {
 474:Middlewares/Third_Party/FreeRTOS/Source/timers.c ****         Timer_t * pxTimer = xTimer;
 475:Middlewares/Third_Party/FreeRTOS/Source/timers.c ****         BaseType_t xReturn;
 476:Middlewares/Third_Party/FreeRTOS/Source/timers.c **** 
 477:Middlewares/Third_Party/FreeRTOS/Source/timers.c ****         configASSERT( xTimer );
 478:Middlewares/Third_Party/FreeRTOS/Source/timers.c ****         taskENTER_CRITICAL();
 479:Middlewares/Third_Party/FreeRTOS/Source/timers.c ****         {
 480:Middlewares/Third_Party/FreeRTOS/Source/timers.c ****             if( ( pxTimer->ucStatus & tmrSTATUS_IS_AUTORELOAD ) == 0 )
 481:Middlewares/Third_Party/FreeRTOS/Source/timers.c ****             {
 482:Middlewares/Third_Party/FreeRTOS/Source/timers.c ****                 /* Not an auto-reload timer. */
 483:Middlewares/Third_Party/FreeRTOS/Source/timers.c ****                 xReturn = pdFALSE;
 484:Middlewares/Third_Party/FreeRTOS/Source/timers.c ****             }
 485:Middlewares/Third_Party/FreeRTOS/Source/timers.c ****             else
 486:Middlewares/Third_Party/FreeRTOS/Source/timers.c ****             {
 487:Middlewares/Third_Party/FreeRTOS/Source/timers.c ****                 /* Is an auto-reload timer. */
 488:Middlewares/Third_Party/FreeRTOS/Source/timers.c ****                 xReturn = pdTRUE;
ARM GAS  C:\Users\main\AppData\Local\Temp\ccYPpv0e.s 			page 10


 489:Middlewares/Third_Party/FreeRTOS/Source/timers.c ****             }
 490:Middlewares/Third_Party/FreeRTOS/Source/timers.c ****         }
 491:Middlewares/Third_Party/FreeRTOS/Source/timers.c ****         taskEXIT_CRITICAL();
 492:Middlewares/Third_Party/FreeRTOS/Source/timers.c **** 
 493:Middlewares/Third_Party/FreeRTOS/Source/timers.c ****         return xReturn;
 494:Middlewares/Third_Party/FreeRTOS/Source/timers.c ****     }
 495:Middlewares/Third_Party/FreeRTOS/Source/timers.c **** 
 496:Middlewares/Third_Party/FreeRTOS/Source/timers.c ****     UBaseType_t uxTimerGetReloadMode( TimerHandle_t xTimer )
 497:Middlewares/Third_Party/FreeRTOS/Source/timers.c ****     {
 498:Middlewares/Third_Party/FreeRTOS/Source/timers.c ****         return ( UBaseType_t ) xTimerGetReloadMode( xTimer );
 499:Middlewares/Third_Party/FreeRTOS/Source/timers.c ****     }
 500:Middlewares/Third_Party/FreeRTOS/Source/timers.c **** /*-----------------------------------------------------------*/
 501:Middlewares/Third_Party/FreeRTOS/Source/timers.c **** 
 502:Middlewares/Third_Party/FreeRTOS/Source/timers.c ****     TickType_t xTimerGetExpiryTime( TimerHandle_t xTimer )
 503:Middlewares/Third_Party/FreeRTOS/Source/timers.c ****     {
 504:Middlewares/Third_Party/FreeRTOS/Source/timers.c ****         Timer_t * pxTimer = xTimer;
 505:Middlewares/Third_Party/FreeRTOS/Source/timers.c ****         TickType_t xReturn;
 506:Middlewares/Third_Party/FreeRTOS/Source/timers.c **** 
 507:Middlewares/Third_Party/FreeRTOS/Source/timers.c ****         configASSERT( xTimer );
 508:Middlewares/Third_Party/FreeRTOS/Source/timers.c ****         xReturn = listGET_LIST_ITEM_VALUE( &( pxTimer->xTimerListItem ) );
 509:Middlewares/Third_Party/FreeRTOS/Source/timers.c ****         return xReturn;
 510:Middlewares/Third_Party/FreeRTOS/Source/timers.c ****     }
 511:Middlewares/Third_Party/FreeRTOS/Source/timers.c **** /*-----------------------------------------------------------*/
 512:Middlewares/Third_Party/FreeRTOS/Source/timers.c **** 
 513:Middlewares/Third_Party/FreeRTOS/Source/timers.c ****     #if ( configSUPPORT_STATIC_ALLOCATION == 1 )
 514:Middlewares/Third_Party/FreeRTOS/Source/timers.c ****         BaseType_t xTimerGetStaticBuffer( TimerHandle_t xTimer,
 515:Middlewares/Third_Party/FreeRTOS/Source/timers.c ****                                           StaticTimer_t ** ppxTimerBuffer )
 516:Middlewares/Third_Party/FreeRTOS/Source/timers.c ****         {
 517:Middlewares/Third_Party/FreeRTOS/Source/timers.c ****             BaseType_t xReturn;
 518:Middlewares/Third_Party/FreeRTOS/Source/timers.c ****             Timer_t * pxTimer = xTimer;
 519:Middlewares/Third_Party/FreeRTOS/Source/timers.c **** 
 520:Middlewares/Third_Party/FreeRTOS/Source/timers.c ****             configASSERT( ppxTimerBuffer != NULL );
 521:Middlewares/Third_Party/FreeRTOS/Source/timers.c **** 
 522:Middlewares/Third_Party/FreeRTOS/Source/timers.c ****             if( ( pxTimer->ucStatus & tmrSTATUS_IS_STATICALLY_ALLOCATED ) != 0 )
 523:Middlewares/Third_Party/FreeRTOS/Source/timers.c ****             {
 524:Middlewares/Third_Party/FreeRTOS/Source/timers.c ****                 *ppxTimerBuffer = ( StaticTimer_t * ) pxTimer;
 525:Middlewares/Third_Party/FreeRTOS/Source/timers.c ****                 xReturn = pdTRUE;
 526:Middlewares/Third_Party/FreeRTOS/Source/timers.c ****             }
 527:Middlewares/Third_Party/FreeRTOS/Source/timers.c ****             else
 528:Middlewares/Third_Party/FreeRTOS/Source/timers.c ****             {
 529:Middlewares/Third_Party/FreeRTOS/Source/timers.c ****                 xReturn = pdFALSE;
 530:Middlewares/Third_Party/FreeRTOS/Source/timers.c ****             }
 531:Middlewares/Third_Party/FreeRTOS/Source/timers.c **** 
 532:Middlewares/Third_Party/FreeRTOS/Source/timers.c ****             return xReturn;
 533:Middlewares/Third_Party/FreeRTOS/Source/timers.c ****         }
 534:Middlewares/Third_Party/FreeRTOS/Source/timers.c ****     #endif /* configSUPPORT_STATIC_ALLOCATION */
 535:Middlewares/Third_Party/FreeRTOS/Source/timers.c **** /*-----------------------------------------------------------*/
 536:Middlewares/Third_Party/FreeRTOS/Source/timers.c **** 
 537:Middlewares/Third_Party/FreeRTOS/Source/timers.c ****     const char * pcTimerGetName( TimerHandle_t xTimer ) /*lint !e971 Unqualified char types are all
 538:Middlewares/Third_Party/FreeRTOS/Source/timers.c ****     {
 539:Middlewares/Third_Party/FreeRTOS/Source/timers.c ****         Timer_t * pxTimer = xTimer;
 540:Middlewares/Third_Party/FreeRTOS/Source/timers.c **** 
 541:Middlewares/Third_Party/FreeRTOS/Source/timers.c ****         configASSERT( xTimer );
 542:Middlewares/Third_Party/FreeRTOS/Source/timers.c ****         return pxTimer->pcTimerName;
 543:Middlewares/Third_Party/FreeRTOS/Source/timers.c ****     }
 544:Middlewares/Third_Party/FreeRTOS/Source/timers.c **** /*-----------------------------------------------------------*/
 545:Middlewares/Third_Party/FreeRTOS/Source/timers.c **** 
ARM GAS  C:\Users\main\AppData\Local\Temp\ccYPpv0e.s 			page 11


 546:Middlewares/Third_Party/FreeRTOS/Source/timers.c ****     static void prvReloadTimer( Timer_t * const pxTimer,
 547:Middlewares/Third_Party/FreeRTOS/Source/timers.c ****                                 TickType_t xExpiredTime,
 548:Middlewares/Third_Party/FreeRTOS/Source/timers.c ****                                 const TickType_t xTimeNow )
 549:Middlewares/Third_Party/FreeRTOS/Source/timers.c ****     {
 550:Middlewares/Third_Party/FreeRTOS/Source/timers.c ****         /* Insert the timer into the appropriate list for the next expiry time.
 551:Middlewares/Third_Party/FreeRTOS/Source/timers.c ****          * If the next expiry time has already passed, advance the expiry time,
 552:Middlewares/Third_Party/FreeRTOS/Source/timers.c ****          * call the callback function, and try again. */
 553:Middlewares/Third_Party/FreeRTOS/Source/timers.c ****         while( prvInsertTimerInActiveList( pxTimer, ( xExpiredTime + pxTimer->xTimerPeriodInTicks )
 554:Middlewares/Third_Party/FreeRTOS/Source/timers.c ****         {
 555:Middlewares/Third_Party/FreeRTOS/Source/timers.c ****             /* Advance the expiry time. */
 556:Middlewares/Third_Party/FreeRTOS/Source/timers.c ****             xExpiredTime += pxTimer->xTimerPeriodInTicks;
 557:Middlewares/Third_Party/FreeRTOS/Source/timers.c **** 
 558:Middlewares/Third_Party/FreeRTOS/Source/timers.c ****             /* Call the timer callback. */
 559:Middlewares/Third_Party/FreeRTOS/Source/timers.c ****             traceTIMER_EXPIRED( pxTimer );
 560:Middlewares/Third_Party/FreeRTOS/Source/timers.c ****             pxTimer->pxCallbackFunction( ( TimerHandle_t ) pxTimer );
 561:Middlewares/Third_Party/FreeRTOS/Source/timers.c ****         }
 562:Middlewares/Third_Party/FreeRTOS/Source/timers.c ****     }
 563:Middlewares/Third_Party/FreeRTOS/Source/timers.c **** /*-----------------------------------------------------------*/
 564:Middlewares/Third_Party/FreeRTOS/Source/timers.c **** 
 565:Middlewares/Third_Party/FreeRTOS/Source/timers.c ****     static void prvProcessExpiredTimer( const TickType_t xNextExpireTime,
 566:Middlewares/Third_Party/FreeRTOS/Source/timers.c ****                                         const TickType_t xTimeNow )
 567:Middlewares/Third_Party/FreeRTOS/Source/timers.c ****     {
 568:Middlewares/Third_Party/FreeRTOS/Source/timers.c ****         Timer_t * const pxTimer = ( Timer_t * ) listGET_OWNER_OF_HEAD_ENTRY( pxCurrentTimerList ); 
 569:Middlewares/Third_Party/FreeRTOS/Source/timers.c **** 
 570:Middlewares/Third_Party/FreeRTOS/Source/timers.c ****         /* Remove the timer from the list of active timers.  A check has already
 571:Middlewares/Third_Party/FreeRTOS/Source/timers.c ****          * been performed to ensure the list is not empty. */
 572:Middlewares/Third_Party/FreeRTOS/Source/timers.c **** 
 573:Middlewares/Third_Party/FreeRTOS/Source/timers.c ****         ( void ) uxListRemove( &( pxTimer->xTimerListItem ) );
 574:Middlewares/Third_Party/FreeRTOS/Source/timers.c **** 
 575:Middlewares/Third_Party/FreeRTOS/Source/timers.c ****         /* If the timer is an auto-reload timer then calculate the next
 576:Middlewares/Third_Party/FreeRTOS/Source/timers.c ****          * expiry time and re-insert the timer in the list of active timers. */
 577:Middlewares/Third_Party/FreeRTOS/Source/timers.c ****         if( ( pxTimer->ucStatus & tmrSTATUS_IS_AUTORELOAD ) != 0 )
 578:Middlewares/Third_Party/FreeRTOS/Source/timers.c ****         {
 579:Middlewares/Third_Party/FreeRTOS/Source/timers.c ****             prvReloadTimer( pxTimer, xNextExpireTime, xTimeNow );
 580:Middlewares/Third_Party/FreeRTOS/Source/timers.c ****         }
 581:Middlewares/Third_Party/FreeRTOS/Source/timers.c ****         else
 582:Middlewares/Third_Party/FreeRTOS/Source/timers.c ****         {
 583:Middlewares/Third_Party/FreeRTOS/Source/timers.c ****             pxTimer->ucStatus &= ( ( uint8_t ) ~tmrSTATUS_IS_ACTIVE );
 584:Middlewares/Third_Party/FreeRTOS/Source/timers.c ****         }
 585:Middlewares/Third_Party/FreeRTOS/Source/timers.c **** 
 586:Middlewares/Third_Party/FreeRTOS/Source/timers.c ****         /* Call the timer callback. */
 587:Middlewares/Third_Party/FreeRTOS/Source/timers.c ****         traceTIMER_EXPIRED( pxTimer );
 588:Middlewares/Third_Party/FreeRTOS/Source/timers.c ****         pxTimer->pxCallbackFunction( ( TimerHandle_t ) pxTimer );
 589:Middlewares/Third_Party/FreeRTOS/Source/timers.c ****     }
 590:Middlewares/Third_Party/FreeRTOS/Source/timers.c **** /*-----------------------------------------------------------*/
 591:Middlewares/Third_Party/FreeRTOS/Source/timers.c **** 
 592:Middlewares/Third_Party/FreeRTOS/Source/timers.c ****     static portTASK_FUNCTION( prvTimerTask, pvParameters )
 593:Middlewares/Third_Party/FreeRTOS/Source/timers.c ****     {
 594:Middlewares/Third_Party/FreeRTOS/Source/timers.c ****         TickType_t xNextExpireTime;
 595:Middlewares/Third_Party/FreeRTOS/Source/timers.c ****         BaseType_t xListWasEmpty;
 596:Middlewares/Third_Party/FreeRTOS/Source/timers.c **** 
 597:Middlewares/Third_Party/FreeRTOS/Source/timers.c ****         /* Just to avoid compiler warnings. */
 598:Middlewares/Third_Party/FreeRTOS/Source/timers.c ****         ( void ) pvParameters;
 599:Middlewares/Third_Party/FreeRTOS/Source/timers.c **** 
 600:Middlewares/Third_Party/FreeRTOS/Source/timers.c ****         #if ( configUSE_DAEMON_TASK_STARTUP_HOOK == 1 )
 601:Middlewares/Third_Party/FreeRTOS/Source/timers.c ****         {
 602:Middlewares/Third_Party/FreeRTOS/Source/timers.c ****             /* Allow the application writer to execute some code in the context of
ARM GAS  C:\Users\main\AppData\Local\Temp\ccYPpv0e.s 			page 12


 603:Middlewares/Third_Party/FreeRTOS/Source/timers.c ****              * this task at the point the task starts executing.  This is useful if the
 604:Middlewares/Third_Party/FreeRTOS/Source/timers.c ****              * application includes initialisation code that would benefit from
 605:Middlewares/Third_Party/FreeRTOS/Source/timers.c ****              * executing after the scheduler has been started. */
 606:Middlewares/Third_Party/FreeRTOS/Source/timers.c ****             vApplicationDaemonTaskStartupHook();
 607:Middlewares/Third_Party/FreeRTOS/Source/timers.c ****         }
 608:Middlewares/Third_Party/FreeRTOS/Source/timers.c ****         #endif /* configUSE_DAEMON_TASK_STARTUP_HOOK */
 609:Middlewares/Third_Party/FreeRTOS/Source/timers.c **** 
 610:Middlewares/Third_Party/FreeRTOS/Source/timers.c ****         for( ; ; )
 611:Middlewares/Third_Party/FreeRTOS/Source/timers.c ****         {
 612:Middlewares/Third_Party/FreeRTOS/Source/timers.c ****             /* Query the timers list to see if it contains any timers, and if so,
 613:Middlewares/Third_Party/FreeRTOS/Source/timers.c ****              * obtain the time at which the next timer will expire. */
 614:Middlewares/Third_Party/FreeRTOS/Source/timers.c ****             xNextExpireTime = prvGetNextExpireTime( &xListWasEmpty );
 615:Middlewares/Third_Party/FreeRTOS/Source/timers.c **** 
 616:Middlewares/Third_Party/FreeRTOS/Source/timers.c ****             /* If a timer has expired, process it.  Otherwise, block this task
 617:Middlewares/Third_Party/FreeRTOS/Source/timers.c ****              * until either a timer does expire, or a command is received. */
 618:Middlewares/Third_Party/FreeRTOS/Source/timers.c ****             prvProcessTimerOrBlockTask( xNextExpireTime, xListWasEmpty );
 619:Middlewares/Third_Party/FreeRTOS/Source/timers.c **** 
 620:Middlewares/Third_Party/FreeRTOS/Source/timers.c ****             /* Empty the command queue. */
 621:Middlewares/Third_Party/FreeRTOS/Source/timers.c ****             prvProcessReceivedCommands();
 622:Middlewares/Third_Party/FreeRTOS/Source/timers.c ****         }
 623:Middlewares/Third_Party/FreeRTOS/Source/timers.c ****     }
 624:Middlewares/Third_Party/FreeRTOS/Source/timers.c **** /*-----------------------------------------------------------*/
 625:Middlewares/Third_Party/FreeRTOS/Source/timers.c **** 
 626:Middlewares/Third_Party/FreeRTOS/Source/timers.c ****     static void prvProcessTimerOrBlockTask( const TickType_t xNextExpireTime,
 627:Middlewares/Third_Party/FreeRTOS/Source/timers.c ****                                             BaseType_t xListWasEmpty )
 628:Middlewares/Third_Party/FreeRTOS/Source/timers.c ****     {
 629:Middlewares/Third_Party/FreeRTOS/Source/timers.c ****         TickType_t xTimeNow;
 630:Middlewares/Third_Party/FreeRTOS/Source/timers.c ****         BaseType_t xTimerListsWereSwitched;
 631:Middlewares/Third_Party/FreeRTOS/Source/timers.c **** 
 632:Middlewares/Third_Party/FreeRTOS/Source/timers.c ****         vTaskSuspendAll();
 633:Middlewares/Third_Party/FreeRTOS/Source/timers.c ****         {
 634:Middlewares/Third_Party/FreeRTOS/Source/timers.c ****             /* Obtain the time now to make an assessment as to whether the timer
 635:Middlewares/Third_Party/FreeRTOS/Source/timers.c ****              * has expired or not.  If obtaining the time causes the lists to switch
 636:Middlewares/Third_Party/FreeRTOS/Source/timers.c ****              * then don't process this timer as any timers that remained in the list
 637:Middlewares/Third_Party/FreeRTOS/Source/timers.c ****              * when the lists were switched will have been processed within the
 638:Middlewares/Third_Party/FreeRTOS/Source/timers.c ****              * prvSampleTimeNow() function. */
 639:Middlewares/Third_Party/FreeRTOS/Source/timers.c ****             xTimeNow = prvSampleTimeNow( &xTimerListsWereSwitched );
 640:Middlewares/Third_Party/FreeRTOS/Source/timers.c **** 
 641:Middlewares/Third_Party/FreeRTOS/Source/timers.c ****             if( xTimerListsWereSwitched == pdFALSE )
 642:Middlewares/Third_Party/FreeRTOS/Source/timers.c ****             {
 643:Middlewares/Third_Party/FreeRTOS/Source/timers.c ****                 /* The tick count has not overflowed, has the timer expired? */
 644:Middlewares/Third_Party/FreeRTOS/Source/timers.c ****                 if( ( xListWasEmpty == pdFALSE ) && ( xNextExpireTime <= xTimeNow ) )
 645:Middlewares/Third_Party/FreeRTOS/Source/timers.c ****                 {
 646:Middlewares/Third_Party/FreeRTOS/Source/timers.c ****                     ( void ) xTaskResumeAll();
 647:Middlewares/Third_Party/FreeRTOS/Source/timers.c ****                     prvProcessExpiredTimer( xNextExpireTime, xTimeNow );
 648:Middlewares/Third_Party/FreeRTOS/Source/timers.c ****                 }
 649:Middlewares/Third_Party/FreeRTOS/Source/timers.c ****                 else
 650:Middlewares/Third_Party/FreeRTOS/Source/timers.c ****                 {
 651:Middlewares/Third_Party/FreeRTOS/Source/timers.c ****                     /* The tick count has not overflowed, and the next expire
 652:Middlewares/Third_Party/FreeRTOS/Source/timers.c ****                      * time has not been reached yet.  This task should therefore
 653:Middlewares/Third_Party/FreeRTOS/Source/timers.c ****                      * block to wait for the next expire time or a command to be
 654:Middlewares/Third_Party/FreeRTOS/Source/timers.c ****                      * received - whichever comes first.  The following line cannot
 655:Middlewares/Third_Party/FreeRTOS/Source/timers.c ****                      * be reached unless xNextExpireTime > xTimeNow, except in the
 656:Middlewares/Third_Party/FreeRTOS/Source/timers.c ****                      * case when the current timer list is empty. */
 657:Middlewares/Third_Party/FreeRTOS/Source/timers.c ****                     if( xListWasEmpty != pdFALSE )
 658:Middlewares/Third_Party/FreeRTOS/Source/timers.c ****                     {
 659:Middlewares/Third_Party/FreeRTOS/Source/timers.c ****                         /* The current timer list is empty - is the overflow list
ARM GAS  C:\Users\main\AppData\Local\Temp\ccYPpv0e.s 			page 13


 660:Middlewares/Third_Party/FreeRTOS/Source/timers.c ****                          * also empty? */
 661:Middlewares/Third_Party/FreeRTOS/Source/timers.c ****                         xListWasEmpty = listLIST_IS_EMPTY( pxOverflowTimerList );
 662:Middlewares/Third_Party/FreeRTOS/Source/timers.c ****                     }
 663:Middlewares/Third_Party/FreeRTOS/Source/timers.c **** 
 664:Middlewares/Third_Party/FreeRTOS/Source/timers.c ****                     vQueueWaitForMessageRestricted( xTimerQueue, ( xNextExpireTime - xTimeNow ), xL
 665:Middlewares/Third_Party/FreeRTOS/Source/timers.c **** 
 666:Middlewares/Third_Party/FreeRTOS/Source/timers.c ****                     if( xTaskResumeAll() == pdFALSE )
 667:Middlewares/Third_Party/FreeRTOS/Source/timers.c ****                     {
 668:Middlewares/Third_Party/FreeRTOS/Source/timers.c ****                         /* Yield to wait for either a command to arrive, or the
 669:Middlewares/Third_Party/FreeRTOS/Source/timers.c ****                          * block time to expire.  If a command arrived between the
 670:Middlewares/Third_Party/FreeRTOS/Source/timers.c ****                          * critical section being exited and this yield then the yield
 671:Middlewares/Third_Party/FreeRTOS/Source/timers.c ****                          * will not cause the task to block. */
 672:Middlewares/Third_Party/FreeRTOS/Source/timers.c ****                         portYIELD_WITHIN_API();
 673:Middlewares/Third_Party/FreeRTOS/Source/timers.c ****                     }
 674:Middlewares/Third_Party/FreeRTOS/Source/timers.c ****                     else
 675:Middlewares/Third_Party/FreeRTOS/Source/timers.c ****                     {
 676:Middlewares/Third_Party/FreeRTOS/Source/timers.c ****                         mtCOVERAGE_TEST_MARKER();
 677:Middlewares/Third_Party/FreeRTOS/Source/timers.c ****                     }
 678:Middlewares/Third_Party/FreeRTOS/Source/timers.c ****                 }
 679:Middlewares/Third_Party/FreeRTOS/Source/timers.c ****             }
 680:Middlewares/Third_Party/FreeRTOS/Source/timers.c ****             else
 681:Middlewares/Third_Party/FreeRTOS/Source/timers.c ****             {
 682:Middlewares/Third_Party/FreeRTOS/Source/timers.c ****                 ( void ) xTaskResumeAll();
 683:Middlewares/Third_Party/FreeRTOS/Source/timers.c ****             }
 684:Middlewares/Third_Party/FreeRTOS/Source/timers.c ****         }
 685:Middlewares/Third_Party/FreeRTOS/Source/timers.c ****     }
 686:Middlewares/Third_Party/FreeRTOS/Source/timers.c **** /*-----------------------------------------------------------*/
 687:Middlewares/Third_Party/FreeRTOS/Source/timers.c **** 
 688:Middlewares/Third_Party/FreeRTOS/Source/timers.c ****     static TickType_t prvGetNextExpireTime( BaseType_t * const pxListWasEmpty )
 689:Middlewares/Third_Party/FreeRTOS/Source/timers.c ****     {
  27              		.loc 1 689 5 view -0
  28              		.cfi_startproc
  29              		@ args = 0, pretend = 0, frame = 0
  30              		@ frame_needed = 0, uses_anonymous_args = 0
  31              		@ link register save eliminated.
 690:Middlewares/Third_Party/FreeRTOS/Source/timers.c ****         TickType_t xNextExpireTime;
  32              		.loc 1 690 9 view .LVU1
 691:Middlewares/Third_Party/FreeRTOS/Source/timers.c **** 
 692:Middlewares/Third_Party/FreeRTOS/Source/timers.c ****         /* Timers are listed in expiry time order, with the head of the list
 693:Middlewares/Third_Party/FreeRTOS/Source/timers.c ****          * referencing the task that will expire first.  Obtain the time at which
 694:Middlewares/Third_Party/FreeRTOS/Source/timers.c ****          * the timer with the nearest expiry time will expire.  If there are no
 695:Middlewares/Third_Party/FreeRTOS/Source/timers.c ****          * active timers then just set the next expire time to 0.  That will cause
 696:Middlewares/Third_Party/FreeRTOS/Source/timers.c ****          * this task to unblock when the tick count overflows, at which point the
 697:Middlewares/Third_Party/FreeRTOS/Source/timers.c ****          * timer lists will be switched and the next expiry time can be
 698:Middlewares/Third_Party/FreeRTOS/Source/timers.c ****          * re-assessed.  */
 699:Middlewares/Third_Party/FreeRTOS/Source/timers.c ****         *pxListWasEmpty = listLIST_IS_EMPTY( pxCurrentTimerList );
  33              		.loc 1 699 9 view .LVU2
  34              		.loc 1 699 27 is_stmt 0 view .LVU3
  35 0000 074B     		ldr	r3, .L6
  36 0002 1A68     		ldr	r2, [r3]
  37 0004 1368     		ldr	r3, [r2]
  38 0006 002B     		cmp	r3, #0
  39 0008 06D1     		bne	.L4
  40 000a 0133     		adds	r3, r3, #1
  41              	.L2:
  42              		.loc 1 699 25 discriminator 4 view .LVU4
  43 000c 0360     		str	r3, [r0]
ARM GAS  C:\Users\main\AppData\Local\Temp\ccYPpv0e.s 			page 14


 700:Middlewares/Third_Party/FreeRTOS/Source/timers.c **** 
 701:Middlewares/Third_Party/FreeRTOS/Source/timers.c ****         if( *pxListWasEmpty == pdFALSE )
  44              		.loc 1 701 9 is_stmt 1 discriminator 4 view .LVU5
  45              		.loc 1 701 11 is_stmt 0 discriminator 4 view .LVU6
  46 000e 002B     		cmp	r3, #0
  47 0010 04D1     		bne	.L5
 702:Middlewares/Third_Party/FreeRTOS/Source/timers.c ****         {
 703:Middlewares/Third_Party/FreeRTOS/Source/timers.c ****             xNextExpireTime = listGET_ITEM_VALUE_OF_HEAD_ENTRY( pxCurrentTimerList );
  48              		.loc 1 703 13 is_stmt 1 view .LVU7
  49              		.loc 1 703 31 is_stmt 0 view .LVU8
  50 0012 D368     		ldr	r3, [r2, #12]
  51              		.loc 1 703 29 view .LVU9
  52 0014 1868     		ldr	r0, [r3]
  53              	.LVL1:
  54              	.L1:
 704:Middlewares/Third_Party/FreeRTOS/Source/timers.c ****         }
 705:Middlewares/Third_Party/FreeRTOS/Source/timers.c ****         else
 706:Middlewares/Third_Party/FreeRTOS/Source/timers.c ****         {
 707:Middlewares/Third_Party/FreeRTOS/Source/timers.c ****             /* Ensure the task unblocks when the tick count rolls over. */
 708:Middlewares/Third_Party/FreeRTOS/Source/timers.c ****             xNextExpireTime = ( TickType_t ) 0U;
 709:Middlewares/Third_Party/FreeRTOS/Source/timers.c ****         }
 710:Middlewares/Third_Party/FreeRTOS/Source/timers.c **** 
 711:Middlewares/Third_Party/FreeRTOS/Source/timers.c ****         return xNextExpireTime;
 712:Middlewares/Third_Party/FreeRTOS/Source/timers.c ****     }
  55              		.loc 1 712 5 view .LVU10
  56              		@ sp needed
  57 0016 7047     		bx	lr
  58              	.LVL2:
  59              	.L4:
 699:Middlewares/Third_Party/FreeRTOS/Source/timers.c **** 
  60              		.loc 1 699 27 view .LVU11
  61 0018 0023     		movs	r3, #0
  62 001a F7E7     		b	.L2
  63              	.L5:
 708:Middlewares/Third_Party/FreeRTOS/Source/timers.c ****         }
  64              		.loc 1 708 29 view .LVU12
  65 001c 0020     		movs	r0, #0
  66              	.LVL3:
 711:Middlewares/Third_Party/FreeRTOS/Source/timers.c ****     }
  67              		.loc 1 711 9 is_stmt 1 view .LVU13
 711:Middlewares/Third_Party/FreeRTOS/Source/timers.c ****     }
  68              		.loc 1 711 16 is_stmt 0 view .LVU14
  69 001e FAE7     		b	.L1
  70              	.L7:
  71              		.align	2
  72              	.L6:
  73 0020 00000000 		.word	.LANCHOR0
  74              		.cfi_endproc
  75              	.LFE18:
  77              		.section	.text.prvInsertTimerInActiveList,"ax",%progbits
  78              		.align	1
  79              		.syntax unified
  80              		.code	16
  81              		.thumb_func
  83              	prvInsertTimerInActiveList:
  84              	.LVL4:
  85              	.LFB20:
ARM GAS  C:\Users\main\AppData\Local\Temp\ccYPpv0e.s 			page 15


 713:Middlewares/Third_Party/FreeRTOS/Source/timers.c **** /*-----------------------------------------------------------*/
 714:Middlewares/Third_Party/FreeRTOS/Source/timers.c **** 
 715:Middlewares/Third_Party/FreeRTOS/Source/timers.c ****     static TickType_t prvSampleTimeNow( BaseType_t * const pxTimerListsWereSwitched )
 716:Middlewares/Third_Party/FreeRTOS/Source/timers.c ****     {
 717:Middlewares/Third_Party/FreeRTOS/Source/timers.c ****         TickType_t xTimeNow;
 718:Middlewares/Third_Party/FreeRTOS/Source/timers.c ****         PRIVILEGED_DATA static TickType_t xLastTime = ( TickType_t ) 0U; /*lint !e956 Variable is o
 719:Middlewares/Third_Party/FreeRTOS/Source/timers.c **** 
 720:Middlewares/Third_Party/FreeRTOS/Source/timers.c ****         xTimeNow = xTaskGetTickCount();
 721:Middlewares/Third_Party/FreeRTOS/Source/timers.c **** 
 722:Middlewares/Third_Party/FreeRTOS/Source/timers.c ****         if( xTimeNow < xLastTime )
 723:Middlewares/Third_Party/FreeRTOS/Source/timers.c ****         {
 724:Middlewares/Third_Party/FreeRTOS/Source/timers.c ****             prvSwitchTimerLists();
 725:Middlewares/Third_Party/FreeRTOS/Source/timers.c ****             *pxTimerListsWereSwitched = pdTRUE;
 726:Middlewares/Third_Party/FreeRTOS/Source/timers.c ****         }
 727:Middlewares/Third_Party/FreeRTOS/Source/timers.c ****         else
 728:Middlewares/Third_Party/FreeRTOS/Source/timers.c ****         {
 729:Middlewares/Third_Party/FreeRTOS/Source/timers.c ****             *pxTimerListsWereSwitched = pdFALSE;
 730:Middlewares/Third_Party/FreeRTOS/Source/timers.c ****         }
 731:Middlewares/Third_Party/FreeRTOS/Source/timers.c **** 
 732:Middlewares/Third_Party/FreeRTOS/Source/timers.c ****         xLastTime = xTimeNow;
 733:Middlewares/Third_Party/FreeRTOS/Source/timers.c **** 
 734:Middlewares/Third_Party/FreeRTOS/Source/timers.c ****         return xTimeNow;
 735:Middlewares/Third_Party/FreeRTOS/Source/timers.c ****     }
 736:Middlewares/Third_Party/FreeRTOS/Source/timers.c **** /*-----------------------------------------------------------*/
 737:Middlewares/Third_Party/FreeRTOS/Source/timers.c **** 
 738:Middlewares/Third_Party/FreeRTOS/Source/timers.c ****     static BaseType_t prvInsertTimerInActiveList( Timer_t * const pxTimer,
 739:Middlewares/Third_Party/FreeRTOS/Source/timers.c ****                                                   const TickType_t xNextExpiryTime,
 740:Middlewares/Third_Party/FreeRTOS/Source/timers.c ****                                                   const TickType_t xTimeNow,
 741:Middlewares/Third_Party/FreeRTOS/Source/timers.c ****                                                   const TickType_t xCommandTime )
 742:Middlewares/Third_Party/FreeRTOS/Source/timers.c ****     {
  86              		.loc 1 742 5 is_stmt 1 view -0
  87              		.cfi_startproc
  88              		@ args = 0, pretend = 0, frame = 0
  89              		@ frame_needed = 0, uses_anonymous_args = 0
  90              		.loc 1 742 5 is_stmt 0 view .LVU16
  91 0000 10B5     		push	{r4, lr}
  92              	.LCFI0:
  93              		.cfi_def_cfa_offset 8
  94              		.cfi_offset 4, -8
  95              		.cfi_offset 14, -4
 743:Middlewares/Third_Party/FreeRTOS/Source/timers.c ****         BaseType_t xProcessTimerNow = pdFALSE;
  96              		.loc 1 743 9 is_stmt 1 view .LVU17
  97              	.LVL5:
 744:Middlewares/Third_Party/FreeRTOS/Source/timers.c **** 
 745:Middlewares/Third_Party/FreeRTOS/Source/timers.c ****         listSET_LIST_ITEM_VALUE( &( pxTimer->xTimerListItem ), xNextExpiryTime );
  98              		.loc 1 745 9 view .LVU18
  99 0002 4160     		str	r1, [r0, #4]
 746:Middlewares/Third_Party/FreeRTOS/Source/timers.c ****         listSET_LIST_ITEM_OWNER( &( pxTimer->xTimerListItem ), pxTimer );
 100              		.loc 1 746 9 view .LVU19
 101 0004 0061     		str	r0, [r0, #16]
 747:Middlewares/Third_Party/FreeRTOS/Source/timers.c **** 
 748:Middlewares/Third_Party/FreeRTOS/Source/timers.c ****         if( xNextExpiryTime <= xTimeNow )
 102              		.loc 1 748 9 view .LVU20
 103              		.loc 1 748 11 is_stmt 0 view .LVU21
 104 0006 9142     		cmp	r1, r2
 105 0008 0CD8     		bhi	.L9
 749:Middlewares/Third_Party/FreeRTOS/Source/timers.c ****         {
ARM GAS  C:\Users\main\AppData\Local\Temp\ccYPpv0e.s 			page 16


 750:Middlewares/Third_Party/FreeRTOS/Source/timers.c ****             /* Has the expiry time elapsed between the command to start/reset a
 751:Middlewares/Third_Party/FreeRTOS/Source/timers.c ****              * timer was issued, and the time the command was processed? */
 752:Middlewares/Third_Party/FreeRTOS/Source/timers.c ****             if( ( ( TickType_t ) ( xTimeNow - xCommandTime ) ) >= pxTimer->xTimerPeriodInTicks ) /*
 106              		.loc 1 752 13 is_stmt 1 view .LVU22
 107              		.loc 1 752 19 is_stmt 0 view .LVU23
 108 000a D21A     		subs	r2, r2, r3
 109              	.LVL6:
 110              		.loc 1 752 15 view .LVU24
 111 000c 8369     		ldr	r3, [r0, #24]
 112              	.LVL7:
 113              		.loc 1 752 15 view .LVU25
 114 000e 9A42     		cmp	r2, r3
 115 0010 01D3     		bcc	.L14
 753:Middlewares/Third_Party/FreeRTOS/Source/timers.c ****             {
 754:Middlewares/Third_Party/FreeRTOS/Source/timers.c ****                 /* The time between a command being issued and the command being
 755:Middlewares/Third_Party/FreeRTOS/Source/timers.c ****                  * processed actually exceeds the timers period.  */
 756:Middlewares/Third_Party/FreeRTOS/Source/timers.c ****                 xProcessTimerNow = pdTRUE;
 116              		.loc 1 756 34 view .LVU26
 117 0012 0120     		movs	r0, #1
 118              	.LVL8:
 119              	.L8:
 757:Middlewares/Third_Party/FreeRTOS/Source/timers.c ****             }
 758:Middlewares/Third_Party/FreeRTOS/Source/timers.c ****             else
 759:Middlewares/Third_Party/FreeRTOS/Source/timers.c ****             {
 760:Middlewares/Third_Party/FreeRTOS/Source/timers.c ****                 vListInsert( pxOverflowTimerList, &( pxTimer->xTimerListItem ) );
 761:Middlewares/Third_Party/FreeRTOS/Source/timers.c ****             }
 762:Middlewares/Third_Party/FreeRTOS/Source/timers.c ****         }
 763:Middlewares/Third_Party/FreeRTOS/Source/timers.c ****         else
 764:Middlewares/Third_Party/FreeRTOS/Source/timers.c ****         {
 765:Middlewares/Third_Party/FreeRTOS/Source/timers.c ****             if( ( xTimeNow < xCommandTime ) && ( xNextExpiryTime >= xCommandTime ) )
 766:Middlewares/Third_Party/FreeRTOS/Source/timers.c ****             {
 767:Middlewares/Third_Party/FreeRTOS/Source/timers.c ****                 /* If, since the command was issued, the tick count has overflowed
 768:Middlewares/Third_Party/FreeRTOS/Source/timers.c ****                  * but the expiry time has not, then the timer must have already passed
 769:Middlewares/Third_Party/FreeRTOS/Source/timers.c ****                  * its expiry time and should be processed immediately. */
 770:Middlewares/Third_Party/FreeRTOS/Source/timers.c ****                 xProcessTimerNow = pdTRUE;
 771:Middlewares/Third_Party/FreeRTOS/Source/timers.c ****             }
 772:Middlewares/Third_Party/FreeRTOS/Source/timers.c ****             else
 773:Middlewares/Third_Party/FreeRTOS/Source/timers.c ****             {
 774:Middlewares/Third_Party/FreeRTOS/Source/timers.c ****                 vListInsert( pxCurrentTimerList, &( pxTimer->xTimerListItem ) );
 775:Middlewares/Third_Party/FreeRTOS/Source/timers.c ****             }
 776:Middlewares/Third_Party/FreeRTOS/Source/timers.c ****         }
 777:Middlewares/Third_Party/FreeRTOS/Source/timers.c **** 
 778:Middlewares/Third_Party/FreeRTOS/Source/timers.c ****         return xProcessTimerNow;
 779:Middlewares/Third_Party/FreeRTOS/Source/timers.c ****     }
 120              		.loc 1 779 5 view .LVU27
 121              		@ sp needed
 122 0014 10BD     		pop	{r4, pc}
 123              	.LVL9:
 124              	.L14:
 760:Middlewares/Third_Party/FreeRTOS/Source/timers.c ****             }
 125              		.loc 1 760 17 is_stmt 1 view .LVU28
 126 0016 011D     		adds	r1, r0, #4
 127              	.LVL10:
 760:Middlewares/Third_Party/FreeRTOS/Source/timers.c ****             }
 128              		.loc 1 760 17 is_stmt 0 view .LVU29
 129 0018 094B     		ldr	r3, .L15
 130 001a 1868     		ldr	r0, [r3]
ARM GAS  C:\Users\main\AppData\Local\Temp\ccYPpv0e.s 			page 17


 131              	.LVL11:
 760:Middlewares/Third_Party/FreeRTOS/Source/timers.c ****             }
 132              		.loc 1 760 17 view .LVU30
 133 001c FFF7FEFF 		bl	vListInsert
 134              	.LVL12:
 743:Middlewares/Third_Party/FreeRTOS/Source/timers.c **** 
 135              		.loc 1 743 20 view .LVU31
 136 0020 0020     		movs	r0, #0
 137 0022 F7E7     		b	.L8
 138              	.LVL13:
 139              	.L9:
 765:Middlewares/Third_Party/FreeRTOS/Source/timers.c ****             {
 140              		.loc 1 765 13 is_stmt 1 view .LVU32
 765:Middlewares/Third_Party/FreeRTOS/Source/timers.c ****             {
 141              		.loc 1 765 15 is_stmt 0 view .LVU33
 142 0024 9A42     		cmp	r2, r3
 143 0026 01D2     		bcs	.L11
 765:Middlewares/Third_Party/FreeRTOS/Source/timers.c ****             {
 144              		.loc 1 765 45 discriminator 1 view .LVU34
 145 0028 9942     		cmp	r1, r3
 146 002a 06D2     		bcs	.L13
 147              	.L11:
 774:Middlewares/Third_Party/FreeRTOS/Source/timers.c ****             }
 148              		.loc 1 774 17 is_stmt 1 view .LVU35
 149 002c 011D     		adds	r1, r0, #4
 150              	.LVL14:
 774:Middlewares/Third_Party/FreeRTOS/Source/timers.c ****             }
 151              		.loc 1 774 17 is_stmt 0 view .LVU36
 152 002e 054B     		ldr	r3, .L15+4
 153              	.LVL15:
 774:Middlewares/Third_Party/FreeRTOS/Source/timers.c ****             }
 154              		.loc 1 774 17 view .LVU37
 155 0030 1868     		ldr	r0, [r3]
 156              	.LVL16:
 774:Middlewares/Third_Party/FreeRTOS/Source/timers.c ****             }
 157              		.loc 1 774 17 view .LVU38
 158 0032 FFF7FEFF 		bl	vListInsert
 159              	.LVL17:
 743:Middlewares/Third_Party/FreeRTOS/Source/timers.c **** 
 160              		.loc 1 743 20 view .LVU39
 161 0036 0020     		movs	r0, #0
 162 0038 ECE7     		b	.L8
 163              	.LVL18:
 164              	.L13:
 770:Middlewares/Third_Party/FreeRTOS/Source/timers.c ****             }
 165              		.loc 1 770 34 view .LVU40
 166 003a 0120     		movs	r0, #1
 167              	.LVL19:
 778:Middlewares/Third_Party/FreeRTOS/Source/timers.c ****     }
 168              		.loc 1 778 9 is_stmt 1 view .LVU41
 778:Middlewares/Third_Party/FreeRTOS/Source/timers.c ****     }
 169              		.loc 1 778 16 is_stmt 0 view .LVU42
 170 003c EAE7     		b	.L8
 171              	.L16:
 172 003e C046     		.align	2
 173              	.L15:
 174 0040 00000000 		.word	.LANCHOR1
ARM GAS  C:\Users\main\AppData\Local\Temp\ccYPpv0e.s 			page 18


 175 0044 00000000 		.word	.LANCHOR0
 176              		.cfi_endproc
 177              	.LFE20:
 179              		.section	.text.prvReloadTimer,"ax",%progbits
 180              		.align	1
 181              		.syntax unified
 182              		.code	16
 183              		.thumb_func
 185              	prvReloadTimer:
 186              	.LVL20:
 187              	.LFB14:
 549:Middlewares/Third_Party/FreeRTOS/Source/timers.c ****         /* Insert the timer into the appropriate list for the next expiry time.
 188              		.loc 1 549 5 is_stmt 1 view -0
 189              		.cfi_startproc
 190              		@ args = 0, pretend = 0, frame = 0
 191              		@ frame_needed = 0, uses_anonymous_args = 0
 549:Middlewares/Third_Party/FreeRTOS/Source/timers.c ****         /* Insert the timer into the appropriate list for the next expiry time.
 192              		.loc 1 549 5 is_stmt 0 view .LVU44
 193 0000 70B5     		push	{r4, r5, r6, lr}
 194              	.LCFI1:
 195              		.cfi_def_cfa_offset 16
 196              		.cfi_offset 4, -16
 197              		.cfi_offset 5, -12
 198              		.cfi_offset 6, -8
 199              		.cfi_offset 14, -4
 200 0002 0400     		movs	r4, r0
 201 0004 0D00     		movs	r5, r1
 202 0006 1600     		movs	r6, r2
 553:Middlewares/Third_Party/FreeRTOS/Source/timers.c ****         {
 203              		.loc 1 553 9 is_stmt 1 view .LVU45
 553:Middlewares/Third_Party/FreeRTOS/Source/timers.c ****         {
 204              		.loc 1 553 14 is_stmt 0 view .LVU46
 205 0008 05E0     		b	.L18
 206              	.LVL21:
 207              	.L19:
 556:Middlewares/Third_Party/FreeRTOS/Source/timers.c **** 
 208              		.loc 1 556 13 is_stmt 1 view .LVU47
 556:Middlewares/Third_Party/FreeRTOS/Source/timers.c **** 
 209              		.loc 1 556 26 is_stmt 0 view .LVU48
 210 000a A369     		ldr	r3, [r4, #24]
 211 000c 9C46     		mov	ip, r3
 212 000e 6544     		add	r5, r5, ip
 213              	.LVL22:
 559:Middlewares/Third_Party/FreeRTOS/Source/timers.c ****             pxTimer->pxCallbackFunction( ( TimerHandle_t ) pxTimer );
 214              		.loc 1 559 42 is_stmt 1 view .LVU49
 560:Middlewares/Third_Party/FreeRTOS/Source/timers.c ****         }
 215              		.loc 1 560 13 view .LVU50
 216 0010 2000     		movs	r0, r4
 217 0012 236A     		ldr	r3, [r4, #32]
 218 0014 9847     		blx	r3
 219              	.LVL23:
 220              	.L18:
 553:Middlewares/Third_Party/FreeRTOS/Source/timers.c ****         {
 221              		.loc 1 553 14 view .LVU51
 553:Middlewares/Third_Party/FreeRTOS/Source/timers.c ****         {
 222              		.loc 1 553 16 is_stmt 0 view .LVU52
 223 0016 A369     		ldr	r3, [r4, #24]
ARM GAS  C:\Users\main\AppData\Local\Temp\ccYPpv0e.s 			page 19


 224 0018 5919     		adds	r1, r3, r5
 225 001a 2B00     		movs	r3, r5
 226 001c 3200     		movs	r2, r6
 227 001e 2000     		movs	r0, r4
 228 0020 FFF7FEFF 		bl	prvInsertTimerInActiveList
 229              	.LVL24:
 553:Middlewares/Third_Party/FreeRTOS/Source/timers.c ****         {
 230              		.loc 1 553 14 view .LVU53
 231 0024 0028     		cmp	r0, #0
 232 0026 F0D1     		bne	.L19
 562:Middlewares/Third_Party/FreeRTOS/Source/timers.c **** /*-----------------------------------------------------------*/
 233              		.loc 1 562 5 view .LVU54
 234              		@ sp needed
 235              	.LVL25:
 236              	.LVL26:
 237              	.LVL27:
 562:Middlewares/Third_Party/FreeRTOS/Source/timers.c **** /*-----------------------------------------------------------*/
 238              		.loc 1 562 5 view .LVU55
 239 0028 70BD     		pop	{r4, r5, r6, pc}
 240              		.cfi_endproc
 241              	.LFE14:
 243              		.section	.text.prvProcessExpiredTimer,"ax",%progbits
 244              		.align	1
 245              		.syntax unified
 246              		.code	16
 247              		.thumb_func
 249              	prvProcessExpiredTimer:
 250              	.LVL28:
 251              	.LFB15:
 567:Middlewares/Third_Party/FreeRTOS/Source/timers.c ****         Timer_t * const pxTimer = ( Timer_t * ) listGET_OWNER_OF_HEAD_ENTRY( pxCurrentTimerList ); 
 252              		.loc 1 567 5 is_stmt 1 view -0
 253              		.cfi_startproc
 254              		@ args = 0, pretend = 0, frame = 0
 255              		@ frame_needed = 0, uses_anonymous_args = 0
 567:Middlewares/Third_Party/FreeRTOS/Source/timers.c ****         Timer_t * const pxTimer = ( Timer_t * ) listGET_OWNER_OF_HEAD_ENTRY( pxCurrentTimerList ); 
 256              		.loc 1 567 5 is_stmt 0 view .LVU57
 257 0000 70B5     		push	{r4, r5, r6, lr}
 258              	.LCFI2:
 259              		.cfi_def_cfa_offset 16
 260              		.cfi_offset 4, -16
 261              		.cfi_offset 5, -12
 262              		.cfi_offset 6, -8
 263              		.cfi_offset 14, -4
 264 0002 0500     		movs	r5, r0
 265 0004 0E00     		movs	r6, r1
 568:Middlewares/Third_Party/FreeRTOS/Source/timers.c **** 
 266              		.loc 1 568 9 is_stmt 1 view .LVU58
 568:Middlewares/Third_Party/FreeRTOS/Source/timers.c **** 
 267              		.loc 1 568 49 is_stmt 0 view .LVU59
 268 0006 0C4B     		ldr	r3, .L24
 269 0008 1B68     		ldr	r3, [r3]
 270 000a DB68     		ldr	r3, [r3, #12]
 568:Middlewares/Third_Party/FreeRTOS/Source/timers.c **** 
 271              		.loc 1 568 25 view .LVU60
 272 000c DC68     		ldr	r4, [r3, #12]
 273              	.LVL29:
 573:Middlewares/Third_Party/FreeRTOS/Source/timers.c **** 
ARM GAS  C:\Users\main\AppData\Local\Temp\ccYPpv0e.s 			page 20


 274              		.loc 1 573 9 is_stmt 1 view .LVU61
 573:Middlewares/Third_Party/FreeRTOS/Source/timers.c **** 
 275              		.loc 1 573 18 is_stmt 0 view .LVU62
 276 000e 201D     		adds	r0, r4, #4
 277              	.LVL30:
 573:Middlewares/Third_Party/FreeRTOS/Source/timers.c **** 
 278              		.loc 1 573 18 view .LVU63
 279 0010 FFF7FEFF 		bl	uxListRemove
 280              	.LVL31:
 577:Middlewares/Third_Party/FreeRTOS/Source/timers.c ****         {
 281              		.loc 1 577 9 is_stmt 1 view .LVU64
 577:Middlewares/Third_Party/FreeRTOS/Source/timers.c ****         {
 282              		.loc 1 577 22 is_stmt 0 view .LVU65
 283 0014 2823     		movs	r3, #40
 284 0016 E35C     		ldrb	r3, [r4, r3]
 577:Middlewares/Third_Party/FreeRTOS/Source/timers.c ****         {
 285              		.loc 1 577 11 view .LVU66
 286 0018 5A07     		lsls	r2, r3, #29
 287 001a 07D4     		bmi	.L23
 583:Middlewares/Third_Party/FreeRTOS/Source/timers.c ****         }
 288              		.loc 1 583 13 is_stmt 1 view .LVU67
 583:Middlewares/Third_Party/FreeRTOS/Source/timers.c ****         }
 289              		.loc 1 583 31 is_stmt 0 view .LVU68
 290 001c 0122     		movs	r2, #1
 291 001e 9343     		bics	r3, r2
 292 0020 2732     		adds	r2, r2, #39
 293 0022 A354     		strb	r3, [r4, r2]
 294              	.L22:
 587:Middlewares/Third_Party/FreeRTOS/Source/timers.c ****         pxTimer->pxCallbackFunction( ( TimerHandle_t ) pxTimer );
 295              		.loc 1 587 38 is_stmt 1 view .LVU69
 588:Middlewares/Third_Party/FreeRTOS/Source/timers.c ****     }
 296              		.loc 1 588 9 view .LVU70
 588:Middlewares/Third_Party/FreeRTOS/Source/timers.c ****     }
 297              		.loc 1 588 16 is_stmt 0 view .LVU71
 298 0024 236A     		ldr	r3, [r4, #32]
 588:Middlewares/Third_Party/FreeRTOS/Source/timers.c ****     }
 299              		.loc 1 588 9 view .LVU72
 300 0026 2000     		movs	r0, r4
 301 0028 9847     		blx	r3
 302              	.LVL32:
 589:Middlewares/Third_Party/FreeRTOS/Source/timers.c **** /*-----------------------------------------------------------*/
 303              		.loc 1 589 5 view .LVU73
 304              		@ sp needed
 305              	.LVL33:
 306              	.LVL34:
 307              	.LVL35:
 589:Middlewares/Third_Party/FreeRTOS/Source/timers.c **** /*-----------------------------------------------------------*/
 308              		.loc 1 589 5 view .LVU74
 309 002a 70BD     		pop	{r4, r5, r6, pc}
 310              	.LVL36:
 311              	.L23:
 579:Middlewares/Third_Party/FreeRTOS/Source/timers.c ****         }
 312              		.loc 1 579 13 is_stmt 1 view .LVU75
 313 002c 3200     		movs	r2, r6
 314 002e 2900     		movs	r1, r5
 315 0030 2000     		movs	r0, r4
 316 0032 FFF7FEFF 		bl	prvReloadTimer
ARM GAS  C:\Users\main\AppData\Local\Temp\ccYPpv0e.s 			page 21


 317              	.LVL37:
 318 0036 F5E7     		b	.L22
 319              	.L25:
 320              		.align	2
 321              	.L24:
 322 0038 00000000 		.word	.LANCHOR0
 323              		.cfi_endproc
 324              	.LFE15:
 326              		.section	.text.prvSwitchTimerLists,"ax",%progbits
 327              		.align	1
 328              		.syntax unified
 329              		.code	16
 330              		.thumb_func
 332              	prvSwitchTimerLists:
 333              	.LFB22:
 780:Middlewares/Third_Party/FreeRTOS/Source/timers.c **** /*-----------------------------------------------------------*/
 781:Middlewares/Third_Party/FreeRTOS/Source/timers.c **** 
 782:Middlewares/Third_Party/FreeRTOS/Source/timers.c ****     static void prvProcessReceivedCommands( void )
 783:Middlewares/Third_Party/FreeRTOS/Source/timers.c ****     {
 784:Middlewares/Third_Party/FreeRTOS/Source/timers.c ****         DaemonTaskMessage_t xMessage;
 785:Middlewares/Third_Party/FreeRTOS/Source/timers.c ****         Timer_t * pxTimer;
 786:Middlewares/Third_Party/FreeRTOS/Source/timers.c ****         BaseType_t xTimerListsWereSwitched;
 787:Middlewares/Third_Party/FreeRTOS/Source/timers.c ****         TickType_t xTimeNow;
 788:Middlewares/Third_Party/FreeRTOS/Source/timers.c **** 
 789:Middlewares/Third_Party/FreeRTOS/Source/timers.c ****         while( xQueueReceive( xTimerQueue, &xMessage, tmrNO_DELAY ) != pdFAIL ) /*lint !e603 xMessa
 790:Middlewares/Third_Party/FreeRTOS/Source/timers.c ****         {
 791:Middlewares/Third_Party/FreeRTOS/Source/timers.c ****             #if ( INCLUDE_xTimerPendFunctionCall == 1 )
 792:Middlewares/Third_Party/FreeRTOS/Source/timers.c ****             {
 793:Middlewares/Third_Party/FreeRTOS/Source/timers.c ****                 /* Negative commands are pended function calls rather than timer
 794:Middlewares/Third_Party/FreeRTOS/Source/timers.c ****                  * commands. */
 795:Middlewares/Third_Party/FreeRTOS/Source/timers.c ****                 if( xMessage.xMessageID < ( BaseType_t ) 0 )
 796:Middlewares/Third_Party/FreeRTOS/Source/timers.c ****                 {
 797:Middlewares/Third_Party/FreeRTOS/Source/timers.c ****                     const CallbackParameters_t * const pxCallback = &( xMessage.u.xCallbackParamete
 798:Middlewares/Third_Party/FreeRTOS/Source/timers.c **** 
 799:Middlewares/Third_Party/FreeRTOS/Source/timers.c ****                     /* The timer uses the xCallbackParameters member to request a
 800:Middlewares/Third_Party/FreeRTOS/Source/timers.c ****                      * callback be executed.  Check the callback is not NULL. */
 801:Middlewares/Third_Party/FreeRTOS/Source/timers.c ****                     configASSERT( pxCallback );
 802:Middlewares/Third_Party/FreeRTOS/Source/timers.c **** 
 803:Middlewares/Third_Party/FreeRTOS/Source/timers.c ****                     /* Call the function. */
 804:Middlewares/Third_Party/FreeRTOS/Source/timers.c ****                     pxCallback->pxCallbackFunction( pxCallback->pvParameter1, pxCallback->ulParamet
 805:Middlewares/Third_Party/FreeRTOS/Source/timers.c ****                 }
 806:Middlewares/Third_Party/FreeRTOS/Source/timers.c ****                 else
 807:Middlewares/Third_Party/FreeRTOS/Source/timers.c ****                 {
 808:Middlewares/Third_Party/FreeRTOS/Source/timers.c ****                     mtCOVERAGE_TEST_MARKER();
 809:Middlewares/Third_Party/FreeRTOS/Source/timers.c ****                 }
 810:Middlewares/Third_Party/FreeRTOS/Source/timers.c ****             }
 811:Middlewares/Third_Party/FreeRTOS/Source/timers.c ****             #endif /* INCLUDE_xTimerPendFunctionCall */
 812:Middlewares/Third_Party/FreeRTOS/Source/timers.c **** 
 813:Middlewares/Third_Party/FreeRTOS/Source/timers.c ****             /* Commands that are positive are timer commands rather than pended
 814:Middlewares/Third_Party/FreeRTOS/Source/timers.c ****              * function calls. */
 815:Middlewares/Third_Party/FreeRTOS/Source/timers.c ****             if( xMessage.xMessageID >= ( BaseType_t ) 0 )
 816:Middlewares/Third_Party/FreeRTOS/Source/timers.c ****             {
 817:Middlewares/Third_Party/FreeRTOS/Source/timers.c ****                 /* The messages uses the xTimerParameters member to work on a
 818:Middlewares/Third_Party/FreeRTOS/Source/timers.c ****                  * software timer. */
 819:Middlewares/Third_Party/FreeRTOS/Source/timers.c ****                 pxTimer = xMessage.u.xTimerParameters.pxTimer;
 820:Middlewares/Third_Party/FreeRTOS/Source/timers.c **** 
 821:Middlewares/Third_Party/FreeRTOS/Source/timers.c ****                 if( listIS_CONTAINED_WITHIN( NULL, &( pxTimer->xTimerListItem ) ) == pdFALSE ) /*li
ARM GAS  C:\Users\main\AppData\Local\Temp\ccYPpv0e.s 			page 22


 822:Middlewares/Third_Party/FreeRTOS/Source/timers.c ****                 {
 823:Middlewares/Third_Party/FreeRTOS/Source/timers.c ****                     /* The timer is in a list, remove it. */
 824:Middlewares/Third_Party/FreeRTOS/Source/timers.c ****                     ( void ) uxListRemove( &( pxTimer->xTimerListItem ) );
 825:Middlewares/Third_Party/FreeRTOS/Source/timers.c ****                 }
 826:Middlewares/Third_Party/FreeRTOS/Source/timers.c ****                 else
 827:Middlewares/Third_Party/FreeRTOS/Source/timers.c ****                 {
 828:Middlewares/Third_Party/FreeRTOS/Source/timers.c ****                     mtCOVERAGE_TEST_MARKER();
 829:Middlewares/Third_Party/FreeRTOS/Source/timers.c ****                 }
 830:Middlewares/Third_Party/FreeRTOS/Source/timers.c **** 
 831:Middlewares/Third_Party/FreeRTOS/Source/timers.c ****                 traceTIMER_COMMAND_RECEIVED( pxTimer, xMessage.xMessageID, xMessage.u.xTimerParamet
 832:Middlewares/Third_Party/FreeRTOS/Source/timers.c **** 
 833:Middlewares/Third_Party/FreeRTOS/Source/timers.c ****                 /* In this case the xTimerListsWereSwitched parameter is not used, but
 834:Middlewares/Third_Party/FreeRTOS/Source/timers.c ****                  *  it must be present in the function call.  prvSampleTimeNow() must be
 835:Middlewares/Third_Party/FreeRTOS/Source/timers.c ****                  *  called after the message is received from xTimerQueue so there is no
 836:Middlewares/Third_Party/FreeRTOS/Source/timers.c ****                  *  possibility of a higher priority task adding a message to the message
 837:Middlewares/Third_Party/FreeRTOS/Source/timers.c ****                  *  queue with a time that is ahead of the timer daemon task (because it
 838:Middlewares/Third_Party/FreeRTOS/Source/timers.c ****                  *  pre-empted the timer daemon task after the xTimeNow value was set). */
 839:Middlewares/Third_Party/FreeRTOS/Source/timers.c ****                 xTimeNow = prvSampleTimeNow( &xTimerListsWereSwitched );
 840:Middlewares/Third_Party/FreeRTOS/Source/timers.c **** 
 841:Middlewares/Third_Party/FreeRTOS/Source/timers.c ****                 switch( xMessage.xMessageID )
 842:Middlewares/Third_Party/FreeRTOS/Source/timers.c ****                 {
 843:Middlewares/Third_Party/FreeRTOS/Source/timers.c ****                     case tmrCOMMAND_START:
 844:Middlewares/Third_Party/FreeRTOS/Source/timers.c ****                     case tmrCOMMAND_START_FROM_ISR:
 845:Middlewares/Third_Party/FreeRTOS/Source/timers.c ****                     case tmrCOMMAND_RESET:
 846:Middlewares/Third_Party/FreeRTOS/Source/timers.c ****                     case tmrCOMMAND_RESET_FROM_ISR:
 847:Middlewares/Third_Party/FreeRTOS/Source/timers.c ****                         /* Start or restart a timer. */
 848:Middlewares/Third_Party/FreeRTOS/Source/timers.c ****                         pxTimer->ucStatus |= tmrSTATUS_IS_ACTIVE;
 849:Middlewares/Third_Party/FreeRTOS/Source/timers.c **** 
 850:Middlewares/Third_Party/FreeRTOS/Source/timers.c ****                         if( prvInsertTimerInActiveList( pxTimer, xMessage.u.xTimerParameters.xMessa
 851:Middlewares/Third_Party/FreeRTOS/Source/timers.c ****                         {
 852:Middlewares/Third_Party/FreeRTOS/Source/timers.c ****                             /* The timer expired before it was added to the active
 853:Middlewares/Third_Party/FreeRTOS/Source/timers.c ****                              * timer list.  Process it now. */
 854:Middlewares/Third_Party/FreeRTOS/Source/timers.c ****                             if( ( pxTimer->ucStatus & tmrSTATUS_IS_AUTORELOAD ) != 0 )
 855:Middlewares/Third_Party/FreeRTOS/Source/timers.c ****                             {
 856:Middlewares/Third_Party/FreeRTOS/Source/timers.c ****                                 prvReloadTimer( pxTimer, xMessage.u.xTimerParameters.xMessageValue 
 857:Middlewares/Third_Party/FreeRTOS/Source/timers.c ****                             }
 858:Middlewares/Third_Party/FreeRTOS/Source/timers.c ****                             else
 859:Middlewares/Third_Party/FreeRTOS/Source/timers.c ****                             {
 860:Middlewares/Third_Party/FreeRTOS/Source/timers.c ****                                 pxTimer->ucStatus &= ( ( uint8_t ) ~tmrSTATUS_IS_ACTIVE );
 861:Middlewares/Third_Party/FreeRTOS/Source/timers.c ****                             }
 862:Middlewares/Third_Party/FreeRTOS/Source/timers.c **** 
 863:Middlewares/Third_Party/FreeRTOS/Source/timers.c ****                             /* Call the timer callback. */
 864:Middlewares/Third_Party/FreeRTOS/Source/timers.c ****                             traceTIMER_EXPIRED( pxTimer );
 865:Middlewares/Third_Party/FreeRTOS/Source/timers.c ****                             pxTimer->pxCallbackFunction( ( TimerHandle_t ) pxTimer );
 866:Middlewares/Third_Party/FreeRTOS/Source/timers.c ****                         }
 867:Middlewares/Third_Party/FreeRTOS/Source/timers.c ****                         else
 868:Middlewares/Third_Party/FreeRTOS/Source/timers.c ****                         {
 869:Middlewares/Third_Party/FreeRTOS/Source/timers.c ****                             mtCOVERAGE_TEST_MARKER();
 870:Middlewares/Third_Party/FreeRTOS/Source/timers.c ****                         }
 871:Middlewares/Third_Party/FreeRTOS/Source/timers.c **** 
 872:Middlewares/Third_Party/FreeRTOS/Source/timers.c ****                         break;
 873:Middlewares/Third_Party/FreeRTOS/Source/timers.c **** 
 874:Middlewares/Third_Party/FreeRTOS/Source/timers.c ****                     case tmrCOMMAND_STOP:
 875:Middlewares/Third_Party/FreeRTOS/Source/timers.c ****                     case tmrCOMMAND_STOP_FROM_ISR:
 876:Middlewares/Third_Party/FreeRTOS/Source/timers.c ****                         /* The timer has already been removed from the active list. */
 877:Middlewares/Third_Party/FreeRTOS/Source/timers.c ****                         pxTimer->ucStatus &= ( ( uint8_t ) ~tmrSTATUS_IS_ACTIVE );
 878:Middlewares/Third_Party/FreeRTOS/Source/timers.c ****                         break;
ARM GAS  C:\Users\main\AppData\Local\Temp\ccYPpv0e.s 			page 23


 879:Middlewares/Third_Party/FreeRTOS/Source/timers.c **** 
 880:Middlewares/Third_Party/FreeRTOS/Source/timers.c ****                     case tmrCOMMAND_CHANGE_PERIOD:
 881:Middlewares/Third_Party/FreeRTOS/Source/timers.c ****                     case tmrCOMMAND_CHANGE_PERIOD_FROM_ISR:
 882:Middlewares/Third_Party/FreeRTOS/Source/timers.c ****                         pxTimer->ucStatus |= tmrSTATUS_IS_ACTIVE;
 883:Middlewares/Third_Party/FreeRTOS/Source/timers.c ****                         pxTimer->xTimerPeriodInTicks = xMessage.u.xTimerParameters.xMessageValue;
 884:Middlewares/Third_Party/FreeRTOS/Source/timers.c ****                         configASSERT( ( pxTimer->xTimerPeriodInTicks > 0 ) );
 885:Middlewares/Third_Party/FreeRTOS/Source/timers.c **** 
 886:Middlewares/Third_Party/FreeRTOS/Source/timers.c ****                         /* The new period does not really have a reference, and can
 887:Middlewares/Third_Party/FreeRTOS/Source/timers.c ****                          * be longer or shorter than the old one.  The command time is
 888:Middlewares/Third_Party/FreeRTOS/Source/timers.c ****                          * therefore set to the current time, and as the period cannot
 889:Middlewares/Third_Party/FreeRTOS/Source/timers.c ****                          * be zero the next expiry time can only be in the future,
 890:Middlewares/Third_Party/FreeRTOS/Source/timers.c ****                          * meaning (unlike for the xTimerStart() case above) there is
 891:Middlewares/Third_Party/FreeRTOS/Source/timers.c ****                          * no fail case that needs to be handled here. */
 892:Middlewares/Third_Party/FreeRTOS/Source/timers.c ****                         ( void ) prvInsertTimerInActiveList( pxTimer, ( xTimeNow + pxTimer->xTimerP
 893:Middlewares/Third_Party/FreeRTOS/Source/timers.c ****                         break;
 894:Middlewares/Third_Party/FreeRTOS/Source/timers.c **** 
 895:Middlewares/Third_Party/FreeRTOS/Source/timers.c ****                     case tmrCOMMAND_DELETE:
 896:Middlewares/Third_Party/FreeRTOS/Source/timers.c ****                         #if ( configSUPPORT_DYNAMIC_ALLOCATION == 1 )
 897:Middlewares/Third_Party/FreeRTOS/Source/timers.c ****                         {
 898:Middlewares/Third_Party/FreeRTOS/Source/timers.c ****                             /* The timer has already been removed from the active list,
 899:Middlewares/Third_Party/FreeRTOS/Source/timers.c ****                              * just free up the memory if the memory was dynamically
 900:Middlewares/Third_Party/FreeRTOS/Source/timers.c ****                              * allocated. */
 901:Middlewares/Third_Party/FreeRTOS/Source/timers.c ****                             if( ( pxTimer->ucStatus & tmrSTATUS_IS_STATICALLY_ALLOCATED ) == ( uint
 902:Middlewares/Third_Party/FreeRTOS/Source/timers.c ****                             {
 903:Middlewares/Third_Party/FreeRTOS/Source/timers.c ****                                 vPortFree( pxTimer );
 904:Middlewares/Third_Party/FreeRTOS/Source/timers.c ****                             }
 905:Middlewares/Third_Party/FreeRTOS/Source/timers.c ****                             else
 906:Middlewares/Third_Party/FreeRTOS/Source/timers.c ****                             {
 907:Middlewares/Third_Party/FreeRTOS/Source/timers.c ****                                 pxTimer->ucStatus &= ( ( uint8_t ) ~tmrSTATUS_IS_ACTIVE );
 908:Middlewares/Third_Party/FreeRTOS/Source/timers.c ****                             }
 909:Middlewares/Third_Party/FreeRTOS/Source/timers.c ****                         }
 910:Middlewares/Third_Party/FreeRTOS/Source/timers.c ****                         #else /* if ( configSUPPORT_DYNAMIC_ALLOCATION == 1 ) */
 911:Middlewares/Third_Party/FreeRTOS/Source/timers.c ****                         {
 912:Middlewares/Third_Party/FreeRTOS/Source/timers.c ****                             /* If dynamic allocation is not enabled, the memory
 913:Middlewares/Third_Party/FreeRTOS/Source/timers.c ****                              * could not have been dynamically allocated. So there is
 914:Middlewares/Third_Party/FreeRTOS/Source/timers.c ****                              * no need to free the memory - just mark the timer as
 915:Middlewares/Third_Party/FreeRTOS/Source/timers.c ****                              * "not active". */
 916:Middlewares/Third_Party/FreeRTOS/Source/timers.c ****                             pxTimer->ucStatus &= ( ( uint8_t ) ~tmrSTATUS_IS_ACTIVE );
 917:Middlewares/Third_Party/FreeRTOS/Source/timers.c ****                         }
 918:Middlewares/Third_Party/FreeRTOS/Source/timers.c ****                         #endif /* configSUPPORT_DYNAMIC_ALLOCATION */
 919:Middlewares/Third_Party/FreeRTOS/Source/timers.c ****                         break;
 920:Middlewares/Third_Party/FreeRTOS/Source/timers.c **** 
 921:Middlewares/Third_Party/FreeRTOS/Source/timers.c ****                     default:
 922:Middlewares/Third_Party/FreeRTOS/Source/timers.c ****                         /* Don't expect to get here. */
 923:Middlewares/Third_Party/FreeRTOS/Source/timers.c ****                         break;
 924:Middlewares/Third_Party/FreeRTOS/Source/timers.c ****                 }
 925:Middlewares/Third_Party/FreeRTOS/Source/timers.c ****             }
 926:Middlewares/Third_Party/FreeRTOS/Source/timers.c ****         }
 927:Middlewares/Third_Party/FreeRTOS/Source/timers.c ****     }
 928:Middlewares/Third_Party/FreeRTOS/Source/timers.c **** /*-----------------------------------------------------------*/
 929:Middlewares/Third_Party/FreeRTOS/Source/timers.c **** 
 930:Middlewares/Third_Party/FreeRTOS/Source/timers.c ****     static void prvSwitchTimerLists( void )
 931:Middlewares/Third_Party/FreeRTOS/Source/timers.c ****     {
 334              		.loc 1 931 5 view -0
 335              		.cfi_startproc
 336              		@ args = 0, pretend = 0, frame = 0
 337              		@ frame_needed = 0, uses_anonymous_args = 0
ARM GAS  C:\Users\main\AppData\Local\Temp\ccYPpv0e.s 			page 24


 338 0000 10B5     		push	{r4, lr}
 339              	.LCFI3:
 340              		.cfi_def_cfa_offset 8
 341              		.cfi_offset 4, -8
 342              		.cfi_offset 14, -4
 932:Middlewares/Third_Party/FreeRTOS/Source/timers.c ****         TickType_t xNextExpireTime;
 343              		.loc 1 932 9 view .LVU77
 933:Middlewares/Third_Party/FreeRTOS/Source/timers.c ****         List_t * pxTemp;
 344              		.loc 1 933 9 view .LVU78
 934:Middlewares/Third_Party/FreeRTOS/Source/timers.c **** 
 935:Middlewares/Third_Party/FreeRTOS/Source/timers.c ****         /* The tick count has overflowed.  The timer lists must be switched.
 936:Middlewares/Third_Party/FreeRTOS/Source/timers.c ****          * If there are any timers still referenced from the current timer list
 937:Middlewares/Third_Party/FreeRTOS/Source/timers.c ****          * then they must have expired and should be processed before the lists
 938:Middlewares/Third_Party/FreeRTOS/Source/timers.c ****          * are switched. */
 939:Middlewares/Third_Party/FreeRTOS/Source/timers.c ****         while( listLIST_IS_EMPTY( pxCurrentTimerList ) == pdFALSE )
 345              		.loc 1 939 9 view .LVU79
 346              		.loc 1 939 14 is_stmt 0 view .LVU80
 347 0002 05E0     		b	.L27
 348              	.L28:
 940:Middlewares/Third_Party/FreeRTOS/Source/timers.c ****         {
 941:Middlewares/Third_Party/FreeRTOS/Source/timers.c ****             xNextExpireTime = listGET_ITEM_VALUE_OF_HEAD_ENTRY( pxCurrentTimerList );
 349              		.loc 1 941 13 is_stmt 1 view .LVU81
 350              		.loc 1 941 31 is_stmt 0 view .LVU82
 351 0004 DB68     		ldr	r3, [r3, #12]
 352              		.loc 1 941 29 view .LVU83
 353 0006 1868     		ldr	r0, [r3]
 354              	.LVL38:
 942:Middlewares/Third_Party/FreeRTOS/Source/timers.c **** 
 943:Middlewares/Third_Party/FreeRTOS/Source/timers.c ****             /* Process the expired timer.  For auto-reload timers, be careful to
 944:Middlewares/Third_Party/FreeRTOS/Source/timers.c ****              * process only expirations that occur on the current list.  Further
 945:Middlewares/Third_Party/FreeRTOS/Source/timers.c ****              * expirations must wait until after the lists are switched. */
 946:Middlewares/Third_Party/FreeRTOS/Source/timers.c ****             prvProcessExpiredTimer( xNextExpireTime, tmrMAX_TIME_BEFORE_OVERFLOW );
 355              		.loc 1 946 13 is_stmt 1 view .LVU84
 356 0008 0121     		movs	r1, #1
 357 000a 4942     		rsbs	r1, r1, #0
 358 000c FFF7FEFF 		bl	prvProcessExpiredTimer
 359              	.LVL39:
 360              	.L27:
 939:Middlewares/Third_Party/FreeRTOS/Source/timers.c ****         {
 361              		.loc 1 939 14 view .LVU85
 939:Middlewares/Third_Party/FreeRTOS/Source/timers.c ****         {
 362              		.loc 1 939 16 is_stmt 0 view .LVU86
 363 0010 054B     		ldr	r3, .L29
 364 0012 1B68     		ldr	r3, [r3]
 365 0014 1A68     		ldr	r2, [r3]
 939:Middlewares/Third_Party/FreeRTOS/Source/timers.c ****         {
 366              		.loc 1 939 14 view .LVU87
 367 0016 002A     		cmp	r2, #0
 368 0018 F4D1     		bne	.L28
 947:Middlewares/Third_Party/FreeRTOS/Source/timers.c ****         }
 948:Middlewares/Third_Party/FreeRTOS/Source/timers.c **** 
 949:Middlewares/Third_Party/FreeRTOS/Source/timers.c ****         pxTemp = pxCurrentTimerList;
 369              		.loc 1 949 9 is_stmt 1 view .LVU88
 370              	.LVL40:
 950:Middlewares/Third_Party/FreeRTOS/Source/timers.c ****         pxCurrentTimerList = pxOverflowTimerList;
 371              		.loc 1 950 9 view .LVU89
 372              		.loc 1 950 28 is_stmt 0 view .LVU90
ARM GAS  C:\Users\main\AppData\Local\Temp\ccYPpv0e.s 			page 25


 373 001a 044A     		ldr	r2, .L29+4
 374 001c 0249     		ldr	r1, .L29
 375 001e 1068     		ldr	r0, [r2]
 376 0020 0860     		str	r0, [r1]
 951:Middlewares/Third_Party/FreeRTOS/Source/timers.c ****         pxOverflowTimerList = pxTemp;
 377              		.loc 1 951 9 is_stmt 1 view .LVU91
 378              		.loc 1 951 29 is_stmt 0 view .LVU92
 379 0022 1360     		str	r3, [r2]
 952:Middlewares/Third_Party/FreeRTOS/Source/timers.c ****     }
 380              		.loc 1 952 5 view .LVU93
 381              		@ sp needed
 382 0024 10BD     		pop	{r4, pc}
 383              	.L30:
 384 0026 C046     		.align	2
 385              	.L29:
 386 0028 00000000 		.word	.LANCHOR0
 387 002c 00000000 		.word	.LANCHOR1
 388              		.cfi_endproc
 389              	.LFE22:
 391              		.section	.text.prvSampleTimeNow,"ax",%progbits
 392              		.align	1
 393              		.syntax unified
 394              		.code	16
 395              		.thumb_func
 397              	prvSampleTimeNow:
 398              	.LVL41:
 399              	.LFB19:
 716:Middlewares/Third_Party/FreeRTOS/Source/timers.c ****         TickType_t xTimeNow;
 400              		.loc 1 716 5 is_stmt 1 view -0
 401              		.cfi_startproc
 402              		@ args = 0, pretend = 0, frame = 0
 403              		@ frame_needed = 0, uses_anonymous_args = 0
 716:Middlewares/Third_Party/FreeRTOS/Source/timers.c ****         TickType_t xTimeNow;
 404              		.loc 1 716 5 is_stmt 0 view .LVU95
 405 0000 70B5     		push	{r4, r5, r6, lr}
 406              	.LCFI4:
 407              		.cfi_def_cfa_offset 16
 408              		.cfi_offset 4, -16
 409              		.cfi_offset 5, -12
 410              		.cfi_offset 6, -8
 411              		.cfi_offset 14, -4
 412 0002 0500     		movs	r5, r0
 717:Middlewares/Third_Party/FreeRTOS/Source/timers.c ****         PRIVILEGED_DATA static TickType_t xLastTime = ( TickType_t ) 0U; /*lint !e956 Variable is o
 413              		.loc 1 717 9 is_stmt 1 view .LVU96
 718:Middlewares/Third_Party/FreeRTOS/Source/timers.c **** 
 414              		.loc 1 718 25 view .LVU97
 720:Middlewares/Third_Party/FreeRTOS/Source/timers.c **** 
 415              		.loc 1 720 9 view .LVU98
 720:Middlewares/Third_Party/FreeRTOS/Source/timers.c **** 
 416              		.loc 1 720 20 is_stmt 0 view .LVU99
 417 0004 FFF7FEFF 		bl	xTaskGetTickCount
 418              	.LVL42:
 720:Middlewares/Third_Party/FreeRTOS/Source/timers.c **** 
 419              		.loc 1 720 20 view .LVU100
 420 0008 0400     		movs	r4, r0
 421              	.LVL43:
 722:Middlewares/Third_Party/FreeRTOS/Source/timers.c ****         {
ARM GAS  C:\Users\main\AppData\Local\Temp\ccYPpv0e.s 			page 26


 422              		.loc 1 722 9 is_stmt 1 view .LVU101
 722:Middlewares/Third_Party/FreeRTOS/Source/timers.c ****         {
 423              		.loc 1 722 22 is_stmt 0 view .LVU102
 424 000a 074B     		ldr	r3, .L35
 425 000c 1B68     		ldr	r3, [r3]
 722:Middlewares/Third_Party/FreeRTOS/Source/timers.c ****         {
 426              		.loc 1 722 11 view .LVU103
 427 000e 8342     		cmp	r3, r0
 428 0010 05D8     		bhi	.L34
 729:Middlewares/Third_Party/FreeRTOS/Source/timers.c ****         }
 429              		.loc 1 729 13 is_stmt 1 view .LVU104
 729:Middlewares/Third_Party/FreeRTOS/Source/timers.c ****         }
 430              		.loc 1 729 39 is_stmt 0 view .LVU105
 431 0012 0023     		movs	r3, #0
 432 0014 2B60     		str	r3, [r5]
 433              	.LVL44:
 434              	.L33:
 732:Middlewares/Third_Party/FreeRTOS/Source/timers.c **** 
 435              		.loc 1 732 9 is_stmt 1 view .LVU106
 732:Middlewares/Third_Party/FreeRTOS/Source/timers.c **** 
 436              		.loc 1 732 19 is_stmt 0 view .LVU107
 437 0016 044B     		ldr	r3, .L35
 438 0018 1C60     		str	r4, [r3]
 734:Middlewares/Third_Party/FreeRTOS/Source/timers.c ****     }
 439              		.loc 1 734 9 is_stmt 1 view .LVU108
 735:Middlewares/Third_Party/FreeRTOS/Source/timers.c **** /*-----------------------------------------------------------*/
 440              		.loc 1 735 5 is_stmt 0 view .LVU109
 441 001a 2000     		movs	r0, r4
 442              		@ sp needed
 443              	.LVL45:
 444              	.LVL46:
 735:Middlewares/Third_Party/FreeRTOS/Source/timers.c **** /*-----------------------------------------------------------*/
 445              		.loc 1 735 5 view .LVU110
 446 001c 70BD     		pop	{r4, r5, r6, pc}
 447              	.LVL47:
 448              	.L34:
 724:Middlewares/Third_Party/FreeRTOS/Source/timers.c ****             *pxTimerListsWereSwitched = pdTRUE;
 449              		.loc 1 724 13 is_stmt 1 view .LVU111
 450 001e FFF7FEFF 		bl	prvSwitchTimerLists
 451              	.LVL48:
 725:Middlewares/Third_Party/FreeRTOS/Source/timers.c ****         }
 452              		.loc 1 725 13 view .LVU112
 725:Middlewares/Third_Party/FreeRTOS/Source/timers.c ****         }
 453              		.loc 1 725 39 is_stmt 0 view .LVU113
 454 0022 0123     		movs	r3, #1
 455 0024 2B60     		str	r3, [r5]
 456 0026 F6E7     		b	.L33
 457              	.L36:
 458              		.align	2
 459              	.L35:
 460 0028 00000000 		.word	.LANCHOR2
 461              		.cfi_endproc
 462              	.LFE19:
 464              		.section	.text.prvProcessTimerOrBlockTask,"ax",%progbits
 465              		.align	1
 466              		.syntax unified
 467              		.code	16
ARM GAS  C:\Users\main\AppData\Local\Temp\ccYPpv0e.s 			page 27


 468              		.thumb_func
 470              	prvProcessTimerOrBlockTask:
 471              	.LVL49:
 472              	.LFB17:
 628:Middlewares/Third_Party/FreeRTOS/Source/timers.c ****         TickType_t xTimeNow;
 473              		.loc 1 628 5 is_stmt 1 view -0
 474              		.cfi_startproc
 475              		@ args = 0, pretend = 0, frame = 8
 476              		@ frame_needed = 0, uses_anonymous_args = 0
 628:Middlewares/Third_Party/FreeRTOS/Source/timers.c ****         TickType_t xTimeNow;
 477              		.loc 1 628 5 is_stmt 0 view .LVU115
 478 0000 70B5     		push	{r4, r5, r6, lr}
 479              	.LCFI5:
 480              		.cfi_def_cfa_offset 16
 481              		.cfi_offset 4, -16
 482              		.cfi_offset 5, -12
 483              		.cfi_offset 6, -8
 484              		.cfi_offset 14, -4
 485 0002 82B0     		sub	sp, sp, #8
 486              	.LCFI6:
 487              		.cfi_def_cfa_offset 24
 488 0004 0400     		movs	r4, r0
 489 0006 0D00     		movs	r5, r1
 629:Middlewares/Third_Party/FreeRTOS/Source/timers.c ****         BaseType_t xTimerListsWereSwitched;
 490              		.loc 1 629 9 is_stmt 1 view .LVU116
 630:Middlewares/Third_Party/FreeRTOS/Source/timers.c **** 
 491              		.loc 1 630 9 view .LVU117
 632:Middlewares/Third_Party/FreeRTOS/Source/timers.c ****         {
 492              		.loc 1 632 9 view .LVU118
 493 0008 FFF7FEFF 		bl	vTaskSuspendAll
 494              	.LVL50:
 639:Middlewares/Third_Party/FreeRTOS/Source/timers.c **** 
 495              		.loc 1 639 13 view .LVU119
 639:Middlewares/Third_Party/FreeRTOS/Source/timers.c **** 
 496              		.loc 1 639 24 is_stmt 0 view .LVU120
 497 000c 01A8     		add	r0, sp, #4
 498 000e FFF7FEFF 		bl	prvSampleTimeNow
 499              	.LVL51:
 500 0012 0600     		movs	r6, r0
 501              	.LVL52:
 641:Middlewares/Third_Party/FreeRTOS/Source/timers.c ****             {
 502              		.loc 1 641 13 is_stmt 1 view .LVU121
 641:Middlewares/Third_Party/FreeRTOS/Source/timers.c ****             {
 503              		.loc 1 641 41 is_stmt 0 view .LVU122
 504 0014 019B     		ldr	r3, [sp, #4]
 641:Middlewares/Third_Party/FreeRTOS/Source/timers.c ****             {
 505              		.loc 1 641 15 view .LVU123
 506 0016 002B     		cmp	r3, #0
 507 0018 23D1     		bne	.L38
 644:Middlewares/Third_Party/FreeRTOS/Source/timers.c ****                 {
 508              		.loc 1 644 17 is_stmt 1 view .LVU124
 644:Middlewares/Third_Party/FreeRTOS/Source/timers.c ****                 {
 509              		.loc 1 644 19 is_stmt 0 view .LVU125
 510 001a 002D     		cmp	r5, #0
 511 001c 01D1     		bne	.L39
 644:Middlewares/Third_Party/FreeRTOS/Source/timers.c ****                 {
 512              		.loc 1 644 50 discriminator 1 view .LVU126
ARM GAS  C:\Users\main\AppData\Local\Temp\ccYPpv0e.s 			page 28


 513 001e A042     		cmp	r0, r4
 514 0020 13D2     		bcs	.L43
 515              	.L39:
 657:Middlewares/Third_Party/FreeRTOS/Source/timers.c ****                     {
 516              		.loc 1 657 21 is_stmt 1 view .LVU127
 657:Middlewares/Third_Party/FreeRTOS/Source/timers.c ****                     {
 517              		.loc 1 657 23 is_stmt 0 view .LVU128
 518 0022 002D     		cmp	r5, #0
 519 0024 05D0     		beq	.L41
 661:Middlewares/Third_Party/FreeRTOS/Source/timers.c ****                     }
 520              		.loc 1 661 25 is_stmt 1 view .LVU129
 661:Middlewares/Third_Party/FreeRTOS/Source/timers.c ****                     }
 521              		.loc 1 661 41 is_stmt 0 view .LVU130
 522 0026 104A     		ldr	r2, .L45
 523 0028 1268     		ldr	r2, [r2]
 524 002a 1268     		ldr	r2, [r2]
 525 002c 002A     		cmp	r2, #0
 526 002e 13D1     		bne	.L42
 527 0030 0125     		movs	r5, #1
 528              	.LVL53:
 529              	.L41:
 664:Middlewares/Third_Party/FreeRTOS/Source/timers.c **** 
 530              		.loc 1 664 21 is_stmt 1 view .LVU131
 531 0032 A11B     		subs	r1, r4, r6
 532 0034 0D4B     		ldr	r3, .L45+4
 533 0036 1868     		ldr	r0, [r3]
 534              	.LVL54:
 664:Middlewares/Third_Party/FreeRTOS/Source/timers.c **** 
 535              		.loc 1 664 21 is_stmt 0 view .LVU132
 536 0038 2A00     		movs	r2, r5
 537 003a FFF7FEFF 		bl	vQueueWaitForMessageRestricted
 538              	.LVL55:
 666:Middlewares/Third_Party/FreeRTOS/Source/timers.c ****                     {
 539              		.loc 1 666 21 is_stmt 1 view .LVU133
 666:Middlewares/Third_Party/FreeRTOS/Source/timers.c ****                     {
 540              		.loc 1 666 25 is_stmt 0 view .LVU134
 541 003e FFF7FEFF 		bl	xTaskResumeAll
 542              	.LVL56:
 666:Middlewares/Third_Party/FreeRTOS/Source/timers.c ****                     {
 543              		.loc 1 666 23 view .LVU135
 544 0042 0028     		cmp	r0, #0
 545 0044 0AD0     		beq	.L44
 546              	.L37:
 685:Middlewares/Third_Party/FreeRTOS/Source/timers.c **** /*-----------------------------------------------------------*/
 547              		.loc 1 685 5 view .LVU136
 548 0046 02B0     		add	sp, sp, #8
 549              		@ sp needed
 550              	.LVL57:
 551              	.LVL58:
 552              	.LVL59:
 685:Middlewares/Third_Party/FreeRTOS/Source/timers.c **** /*-----------------------------------------------------------*/
 553              		.loc 1 685 5 view .LVU137
 554 0048 70BD     		pop	{r4, r5, r6, pc}
 555              	.LVL60:
 556              	.L43:
 646:Middlewares/Third_Party/FreeRTOS/Source/timers.c ****                     prvProcessExpiredTimer( xNextExpireTime, xTimeNow );
 557              		.loc 1 646 21 is_stmt 1 view .LVU138
ARM GAS  C:\Users\main\AppData\Local\Temp\ccYPpv0e.s 			page 29


 646:Middlewares/Third_Party/FreeRTOS/Source/timers.c ****                     prvProcessExpiredTimer( xNextExpireTime, xTimeNow );
 558              		.loc 1 646 30 is_stmt 0 view .LVU139
 559 004a FFF7FEFF 		bl	xTaskResumeAll
 560              	.LVL61:
 647:Middlewares/Third_Party/FreeRTOS/Source/timers.c ****                 }
 561              		.loc 1 647 21 is_stmt 1 view .LVU140
 562 004e 3100     		movs	r1, r6
 563 0050 2000     		movs	r0, r4
 564 0052 FFF7FEFF 		bl	prvProcessExpiredTimer
 565              	.LVL62:
 566 0056 F6E7     		b	.L37
 567              	.LVL63:
 568              	.L42:
 661:Middlewares/Third_Party/FreeRTOS/Source/timers.c ****                     }
 569              		.loc 1 661 41 is_stmt 0 view .LVU141
 570 0058 1D00     		movs	r5, r3
 571              	.LVL64:
 661:Middlewares/Third_Party/FreeRTOS/Source/timers.c ****                     }
 572              		.loc 1 661 41 view .LVU142
 573 005a EAE7     		b	.L41
 574              	.LVL65:
 575              	.L44:
 672:Middlewares/Third_Party/FreeRTOS/Source/timers.c ****                     }
 576              		.loc 1 672 25 is_stmt 1 view .LVU143
 577 005c FFF7FEFF 		bl	vPortYield
 578              	.LVL66:
 579 0060 F1E7     		b	.L37
 580              	.LVL67:
 581              	.L38:
 682:Middlewares/Third_Party/FreeRTOS/Source/timers.c ****             }
 582              		.loc 1 682 17 view .LVU144
 682:Middlewares/Third_Party/FreeRTOS/Source/timers.c ****             }
 583              		.loc 1 682 26 is_stmt 0 view .LVU145
 584 0062 FFF7FEFF 		bl	xTaskResumeAll
 585              	.LVL68:
 685:Middlewares/Third_Party/FreeRTOS/Source/timers.c **** /*-----------------------------------------------------------*/
 586              		.loc 1 685 5 view .LVU146
 587 0066 EEE7     		b	.L37
 588              	.L46:
 589              		.align	2
 590              	.L45:
 591 0068 00000000 		.word	.LANCHOR1
 592 006c 00000000 		.word	.LANCHOR3
 593              		.cfi_endproc
 594              	.LFE17:
 596              		.section	.text.prvProcessReceivedCommands,"ax",%progbits
 597              		.align	1
 598              		.syntax unified
 599              		.code	16
 600              		.thumb_func
 602              	prvProcessReceivedCommands:
 603              	.LFB21:
 783:Middlewares/Third_Party/FreeRTOS/Source/timers.c ****         DaemonTaskMessage_t xMessage;
 604              		.loc 1 783 5 is_stmt 1 view -0
 605              		.cfi_startproc
 606              		@ args = 0, pretend = 0, frame = 24
 607              		@ frame_needed = 0, uses_anonymous_args = 0
ARM GAS  C:\Users\main\AppData\Local\Temp\ccYPpv0e.s 			page 30


 608 0000 30B5     		push	{r4, r5, lr}
 609              	.LCFI7:
 610              		.cfi_def_cfa_offset 12
 611              		.cfi_offset 4, -12
 612              		.cfi_offset 5, -8
 613              		.cfi_offset 14, -4
 614 0002 87B0     		sub	sp, sp, #28
 615              	.LCFI8:
 616              		.cfi_def_cfa_offset 40
 784:Middlewares/Third_Party/FreeRTOS/Source/timers.c ****         Timer_t * pxTimer;
 617              		.loc 1 784 9 view .LVU148
 785:Middlewares/Third_Party/FreeRTOS/Source/timers.c ****         BaseType_t xTimerListsWereSwitched;
 618              		.loc 1 785 9 view .LVU149
 786:Middlewares/Third_Party/FreeRTOS/Source/timers.c ****         TickType_t xTimeNow;
 619              		.loc 1 786 9 view .LVU150
 787:Middlewares/Third_Party/FreeRTOS/Source/timers.c **** 
 620              		.loc 1 787 9 view .LVU151
 789:Middlewares/Third_Party/FreeRTOS/Source/timers.c ****         {
 621              		.loc 1 789 9 view .LVU152
 789:Middlewares/Third_Party/FreeRTOS/Source/timers.c ****         {
 622              		.loc 1 789 14 is_stmt 0 view .LVU153
 623 0004 02E0     		b	.L50
 624              	.L49:
 808:Middlewares/Third_Party/FreeRTOS/Source/timers.c ****                 }
 625              		.loc 1 808 45 is_stmt 1 view .LVU154
 815:Middlewares/Third_Party/FreeRTOS/Source/timers.c ****             {
 626              		.loc 1 815 13 view .LVU155
 815:Middlewares/Third_Party/FreeRTOS/Source/timers.c ****             {
 627              		.loc 1 815 15 is_stmt 0 view .LVU156
 628 0006 029B     		ldr	r3, [sp, #8]
 629 0008 002B     		cmp	r3, #0
 630 000a 0FDA     		bge	.L65
 631              	.L50:
 789:Middlewares/Third_Party/FreeRTOS/Source/timers.c ****         {
 632              		.loc 1 789 14 is_stmt 1 view .LVU157
 789:Middlewares/Third_Party/FreeRTOS/Source/timers.c ****         {
 633              		.loc 1 789 16 is_stmt 0 view .LVU158
 634 000c 364B     		ldr	r3, .L70
 635 000e 1868     		ldr	r0, [r3]
 636 0010 0022     		movs	r2, #0
 637 0012 02A9     		add	r1, sp, #8
 638 0014 FFF7FEFF 		bl	xQueueReceive
 639              	.LVL69:
 789:Middlewares/Third_Party/FreeRTOS/Source/timers.c ****         {
 640              		.loc 1 789 14 view .LVU159
 641 0018 0028     		cmp	r0, #0
 642 001a 63D0     		beq	.L66
 795:Middlewares/Third_Party/FreeRTOS/Source/timers.c ****                 {
 643              		.loc 1 795 17 is_stmt 1 view .LVU160
 795:Middlewares/Third_Party/FreeRTOS/Source/timers.c ****                 {
 644              		.loc 1 795 19 is_stmt 0 view .LVU161
 645 001c 029B     		ldr	r3, [sp, #8]
 646 001e 002B     		cmp	r3, #0
 647 0020 F1DA     		bge	.L49
 648              	.LBB2:
 797:Middlewares/Third_Party/FreeRTOS/Source/timers.c **** 
 649              		.loc 1 797 21 is_stmt 1 discriminator 2 view .LVU162
ARM GAS  C:\Users\main\AppData\Local\Temp\ccYPpv0e.s 			page 31


 650              	.LVL70:
 801:Middlewares/Third_Party/FreeRTOS/Source/timers.c **** 
 651              		.loc 1 801 21 discriminator 2 view .LVU163
 801:Middlewares/Third_Party/FreeRTOS/Source/timers.c **** 
 652              		.loc 1 801 47 discriminator 2 view .LVU164
 804:Middlewares/Third_Party/FreeRTOS/Source/timers.c ****                 }
 653              		.loc 1 804 21 discriminator 2 view .LVU165
 804:Middlewares/Third_Party/FreeRTOS/Source/timers.c ****                 }
 654              		.loc 1 804 31 is_stmt 0 discriminator 2 view .LVU166
 655 0022 039B     		ldr	r3, [sp, #12]
 804:Middlewares/Third_Party/FreeRTOS/Source/timers.c ****                 }
 656              		.loc 1 804 21 discriminator 2 view .LVU167
 657 0024 0599     		ldr	r1, [sp, #20]
 658 0026 0498     		ldr	r0, [sp, #16]
 659 0028 9847     		blx	r3
 660              	.LVL71:
 661              	.LBE2:
 662 002a ECE7     		b	.L49
 663              	.LVL72:
 664              	.L65:
 819:Middlewares/Third_Party/FreeRTOS/Source/timers.c **** 
 665              		.loc 1 819 17 is_stmt 1 view .LVU168
 819:Middlewares/Third_Party/FreeRTOS/Source/timers.c **** 
 666              		.loc 1 819 25 is_stmt 0 view .LVU169
 667 002c 049C     		ldr	r4, [sp, #16]
 668              	.LVL73:
 821:Middlewares/Third_Party/FreeRTOS/Source/timers.c ****                 {
 669              		.loc 1 821 17 is_stmt 1 view .LVU170
 821:Middlewares/Third_Party/FreeRTOS/Source/timers.c ****                 {
 670              		.loc 1 821 19 is_stmt 0 view .LVU171
 671 002e 6369     		ldr	r3, [r4, #20]
 672 0030 002B     		cmp	r3, #0
 673 0032 02D0     		beq	.L51
 824:Middlewares/Third_Party/FreeRTOS/Source/timers.c ****                 }
 674              		.loc 1 824 21 is_stmt 1 view .LVU172
 824:Middlewares/Third_Party/FreeRTOS/Source/timers.c ****                 }
 675              		.loc 1 824 30 is_stmt 0 view .LVU173
 676 0034 201D     		adds	r0, r4, #4
 677 0036 FFF7FEFF 		bl	uxListRemove
 678              	.LVL74:
 679              	.L51:
 828:Middlewares/Third_Party/FreeRTOS/Source/timers.c ****                 }
 680              		.loc 1 828 45 is_stmt 1 view .LVU174
 831:Middlewares/Third_Party/FreeRTOS/Source/timers.c **** 
 681              		.loc 1 831 119 view .LVU175
 839:Middlewares/Third_Party/FreeRTOS/Source/timers.c **** 
 682              		.loc 1 839 17 view .LVU176
 839:Middlewares/Third_Party/FreeRTOS/Source/timers.c **** 
 683              		.loc 1 839 28 is_stmt 0 view .LVU177
 684 003a 01A8     		add	r0, sp, #4
 685 003c FFF7FEFF 		bl	prvSampleTimeNow
 686              	.LVL75:
 687 0040 0500     		movs	r5, r0
 688              	.LVL76:
 841:Middlewares/Third_Party/FreeRTOS/Source/timers.c ****                 {
 689              		.loc 1 841 17 is_stmt 1 view .LVU178
 841:Middlewares/Third_Party/FreeRTOS/Source/timers.c ****                 {
ARM GAS  C:\Users\main\AppData\Local\Temp\ccYPpv0e.s 			page 32


 690              		.loc 1 841 33 is_stmt 0 view .LVU179
 691 0042 029B     		ldr	r3, [sp, #8]
 841:Middlewares/Third_Party/FreeRTOS/Source/timers.c ****                 {
 692              		.loc 1 841 17 view .LVU180
 693 0044 092B     		cmp	r3, #9
 694 0046 E1D8     		bhi	.L50
 695 0048 9B00     		lsls	r3, r3, #2
 696 004a 284A     		ldr	r2, .L70+4
 697 004c D358     		ldr	r3, [r2, r3]
 698 004e 9F46     		mov	pc, r3
 699              		.section	.rodata.prvProcessReceivedCommands,"a",%progbits
 700              		.align	2
 701              	.L54:
 702 0000 0C000000 		.word	.L50
 703 0004 50000000 		.word	.L56
 704 0008 50000000 		.word	.L56
 705 000c 9A000000 		.word	.L55
 706 0010 A6000000 		.word	.L53
 707 0014 CA000000 		.word	.L57
 708 0018 50000000 		.word	.L56
 709 001c 50000000 		.word	.L56
 710 0020 9A000000 		.word	.L55
 711 0024 A6000000 		.word	.L53
 712              		.section	.text.prvProcessReceivedCommands
 713              	.L56:
 848:Middlewares/Third_Party/FreeRTOS/Source/timers.c **** 
 714              		.loc 1 848 25 is_stmt 1 view .LVU181
 848:Middlewares/Third_Party/FreeRTOS/Source/timers.c **** 
 715              		.loc 1 848 43 is_stmt 0 view .LVU182
 716 0050 2822     		movs	r2, #40
 717 0052 A35C     		ldrb	r3, [r4, r2]
 718 0054 0121     		movs	r1, #1
 719 0056 0B43     		orrs	r3, r1
 720 0058 A354     		strb	r3, [r4, r2]
 850:Middlewares/Third_Party/FreeRTOS/Source/timers.c ****                         {
 721              		.loc 1 850 25 is_stmt 1 view .LVU183
 850:Middlewares/Third_Party/FreeRTOS/Source/timers.c ****                         {
 722              		.loc 1 850 29 is_stmt 0 view .LVU184
 723 005a 0399     		ldr	r1, [sp, #12]
 724 005c A369     		ldr	r3, [r4, #24]
 725 005e 9C46     		mov	ip, r3
 726 0060 6144     		add	r1, r1, ip
 727 0062 039B     		ldr	r3, [sp, #12]
 728 0064 0200     		movs	r2, r0
 729 0066 2000     		movs	r0, r4
 730              	.LVL77:
 850:Middlewares/Third_Party/FreeRTOS/Source/timers.c ****                         {
 731              		.loc 1 850 29 view .LVU185
 732 0068 FFF7FEFF 		bl	prvInsertTimerInActiveList
 733              	.LVL78:
 850:Middlewares/Third_Party/FreeRTOS/Source/timers.c ****                         {
 734              		.loc 1 850 27 view .LVU186
 735 006c 0028     		cmp	r0, #0
 736 006e CDD0     		beq	.L50
 854:Middlewares/Third_Party/FreeRTOS/Source/timers.c ****                             {
 737              		.loc 1 854 29 is_stmt 1 view .LVU187
 854:Middlewares/Third_Party/FreeRTOS/Source/timers.c ****                             {
ARM GAS  C:\Users\main\AppData\Local\Temp\ccYPpv0e.s 			page 33


 738              		.loc 1 854 42 is_stmt 0 view .LVU188
 739 0070 2823     		movs	r3, #40
 740 0072 E35C     		ldrb	r3, [r4, r3]
 854:Middlewares/Third_Party/FreeRTOS/Source/timers.c ****                             {
 741              		.loc 1 854 31 view .LVU189
 742 0074 5A07     		lsls	r2, r3, #29
 743 0076 07D4     		bmi	.L67
 860:Middlewares/Third_Party/FreeRTOS/Source/timers.c ****                             }
 744              		.loc 1 860 33 is_stmt 1 view .LVU190
 860:Middlewares/Third_Party/FreeRTOS/Source/timers.c ****                             }
 745              		.loc 1 860 51 is_stmt 0 view .LVU191
 746 0078 0122     		movs	r2, #1
 747 007a 9343     		bics	r3, r2
 748 007c 2732     		adds	r2, r2, #39
 749 007e A354     		strb	r3, [r4, r2]
 750              	.L60:
 864:Middlewares/Third_Party/FreeRTOS/Source/timers.c ****                             pxTimer->pxCallbackFunction( ( TimerHandle_t ) pxTimer );
 751              		.loc 1 864 58 is_stmt 1 view .LVU192
 865:Middlewares/Third_Party/FreeRTOS/Source/timers.c ****                         }
 752              		.loc 1 865 29 view .LVU193
 865:Middlewares/Third_Party/FreeRTOS/Source/timers.c ****                         }
 753              		.loc 1 865 36 is_stmt 0 view .LVU194
 754 0080 236A     		ldr	r3, [r4, #32]
 865:Middlewares/Third_Party/FreeRTOS/Source/timers.c ****                         }
 755              		.loc 1 865 29 view .LVU195
 756 0082 2000     		movs	r0, r4
 757 0084 9847     		blx	r3
 758              	.LVL79:
 759 0086 C1E7     		b	.L50
 760              	.L67:
 856:Middlewares/Third_Party/FreeRTOS/Source/timers.c ****                             }
 761              		.loc 1 856 33 is_stmt 1 view .LVU196
 762 0088 0399     		ldr	r1, [sp, #12]
 763 008a A369     		ldr	r3, [r4, #24]
 764 008c 9C46     		mov	ip, r3
 765 008e 6144     		add	r1, r1, ip
 766 0090 2A00     		movs	r2, r5
 767 0092 2000     		movs	r0, r4
 768 0094 FFF7FEFF 		bl	prvReloadTimer
 769              	.LVL80:
 770 0098 F2E7     		b	.L60
 771              	.LVL81:
 772              	.L55:
 877:Middlewares/Third_Party/FreeRTOS/Source/timers.c ****                         break;
 773              		.loc 1 877 25 view .LVU197
 877:Middlewares/Third_Party/FreeRTOS/Source/timers.c ****                         break;
 774              		.loc 1 877 43 is_stmt 0 view .LVU198
 775 009a 2822     		movs	r2, #40
 776 009c A35C     		ldrb	r3, [r4, r2]
 777 009e 0121     		movs	r1, #1
 778 00a0 8B43     		bics	r3, r1
 779 00a2 A354     		strb	r3, [r4, r2]
 878:Middlewares/Third_Party/FreeRTOS/Source/timers.c **** 
 780              		.loc 1 878 25 is_stmt 1 view .LVU199
 781 00a4 B2E7     		b	.L50
 782              	.L53:
 882:Middlewares/Third_Party/FreeRTOS/Source/timers.c ****                         pxTimer->xTimerPeriodInTicks = xMessage.u.xTimerParameters.xMessageValue;
ARM GAS  C:\Users\main\AppData\Local\Temp\ccYPpv0e.s 			page 34


 783              		.loc 1 882 25 view .LVU200
 882:Middlewares/Third_Party/FreeRTOS/Source/timers.c ****                         pxTimer->xTimerPeriodInTicks = xMessage.u.xTimerParameters.xMessageValue;
 784              		.loc 1 882 43 is_stmt 0 view .LVU201
 785 00a6 2822     		movs	r2, #40
 786 00a8 A35C     		ldrb	r3, [r4, r2]
 787 00aa 0121     		movs	r1, #1
 788 00ac 0B43     		orrs	r3, r1
 789 00ae A354     		strb	r3, [r4, r2]
 883:Middlewares/Third_Party/FreeRTOS/Source/timers.c ****                         configASSERT( ( pxTimer->xTimerPeriodInTicks > 0 ) );
 790              		.loc 1 883 25 is_stmt 1 view .LVU202
 883:Middlewares/Third_Party/FreeRTOS/Source/timers.c ****                         configASSERT( ( pxTimer->xTimerPeriodInTicks > 0 ) );
 791              		.loc 1 883 83 is_stmt 0 view .LVU203
 792 00b0 0399     		ldr	r1, [sp, #12]
 883:Middlewares/Third_Party/FreeRTOS/Source/timers.c ****                         configASSERT( ( pxTimer->xTimerPeriodInTicks > 0 ) );
 793              		.loc 1 883 54 view .LVU204
 794 00b2 A161     		str	r1, [r4, #24]
 884:Middlewares/Third_Party/FreeRTOS/Source/timers.c **** 
 795              		.loc 1 884 25 is_stmt 1 view .LVU205
 796 00b4 0029     		cmp	r1, #0
 797 00b6 06D0     		beq	.L68
 884:Middlewares/Third_Party/FreeRTOS/Source/timers.c **** 
 798              		.loc 1 884 77 discriminator 2 view .LVU206
 892:Middlewares/Third_Party/FreeRTOS/Source/timers.c ****                         break;
 799              		.loc 1 892 25 discriminator 2 view .LVU207
 892:Middlewares/Third_Party/FreeRTOS/Source/timers.c ****                         break;
 800              		.loc 1 892 34 is_stmt 0 discriminator 2 view .LVU208
 801 00b8 0918     		adds	r1, r1, r0
 802 00ba 0300     		movs	r3, r0
 803 00bc 0200     		movs	r2, r0
 804 00be 2000     		movs	r0, r4
 805              	.LVL82:
 892:Middlewares/Third_Party/FreeRTOS/Source/timers.c ****                         break;
 806              		.loc 1 892 34 discriminator 2 view .LVU209
 807 00c0 FFF7FEFF 		bl	prvInsertTimerInActiveList
 808              	.LVL83:
 893:Middlewares/Third_Party/FreeRTOS/Source/timers.c **** 
 809              		.loc 1 893 25 is_stmt 1 discriminator 2 view .LVU210
 810 00c4 A2E7     		b	.L50
 811              	.LVL84:
 812              	.L68:
 884:Middlewares/Third_Party/FreeRTOS/Source/timers.c **** 
 813              		.loc 1 884 25 discriminator 1 view .LVU211
 814              		.syntax divided
 815              	@ 884 "Middlewares/Third_Party/FreeRTOS/Source/timers.c" 1
 816 00c6 72B6     		 cpsid i 
 817              	@ 0 "" 2
 818              		.thumb
 819              		.syntax unified
 820              	.L62:
 884:Middlewares/Third_Party/FreeRTOS/Source/timers.c **** 
 821              		.loc 1 884 25 discriminator 2 view .LVU212
 884:Middlewares/Third_Party/FreeRTOS/Source/timers.c **** 
 822              		.loc 1 884 25 discriminator 2 view .LVU213
 884:Middlewares/Third_Party/FreeRTOS/Source/timers.c **** 
 823              		.loc 1 884 25 discriminator 2 view .LVU214
 824 00c8 FEE7     		b	.L62
 825              	.L57:
ARM GAS  C:\Users\main\AppData\Local\Temp\ccYPpv0e.s 			page 35


 901:Middlewares/Third_Party/FreeRTOS/Source/timers.c ****                             {
 826              		.loc 1 901 29 view .LVU215
 901:Middlewares/Third_Party/FreeRTOS/Source/timers.c ****                             {
 827              		.loc 1 901 42 is_stmt 0 view .LVU216
 828 00ca 2823     		movs	r3, #40
 829 00cc E35C     		ldrb	r3, [r4, r3]
 901:Middlewares/Third_Party/FreeRTOS/Source/timers.c ****                             {
 830              		.loc 1 901 31 view .LVU217
 831 00ce 9A07     		lsls	r2, r3, #30
 832 00d0 04D5     		bpl	.L69
 907:Middlewares/Third_Party/FreeRTOS/Source/timers.c ****                             }
 833              		.loc 1 907 33 is_stmt 1 view .LVU218
 907:Middlewares/Third_Party/FreeRTOS/Source/timers.c ****                             }
 834              		.loc 1 907 51 is_stmt 0 view .LVU219
 835 00d2 0122     		movs	r2, #1
 836 00d4 9343     		bics	r3, r2
 837 00d6 2732     		adds	r2, r2, #39
 838 00d8 A354     		strb	r3, [r4, r2]
 839 00da 97E7     		b	.L50
 840              	.L69:
 903:Middlewares/Third_Party/FreeRTOS/Source/timers.c ****                             }
 841              		.loc 1 903 33 is_stmt 1 view .LVU220
 842 00dc 2000     		movs	r0, r4
 843              	.LVL85:
 903:Middlewares/Third_Party/FreeRTOS/Source/timers.c ****                             }
 844              		.loc 1 903 33 is_stmt 0 view .LVU221
 845 00de FFF7FEFF 		bl	vPortFree
 846              	.LVL86:
 847 00e2 93E7     		b	.L50
 848              	.LVL87:
 849              	.L66:
 927:Middlewares/Third_Party/FreeRTOS/Source/timers.c **** /*-----------------------------------------------------------*/
 850              		.loc 1 927 5 view .LVU222
 851 00e4 07B0     		add	sp, sp, #28
 852              		@ sp needed
 853 00e6 30BD     		pop	{r4, r5, pc}
 854              	.L71:
 855              		.align	2
 856              	.L70:
 857 00e8 00000000 		.word	.LANCHOR3
 858 00ec 00000000 		.word	.L54
 859              		.cfi_endproc
 860              	.LFE21:
 862              		.section	.text.prvTimerTask,"ax",%progbits
 863              		.align	1
 864              		.syntax unified
 865              		.code	16
 866              		.thumb_func
 868              	prvTimerTask:
 869              	.LFB16:
 593:Middlewares/Third_Party/FreeRTOS/Source/timers.c ****         TickType_t xNextExpireTime;
 870              		.loc 1 593 5 is_stmt 1 view -0
 871              		.cfi_startproc
 872              		@ args = 0, pretend = 0, frame = 8
 873              		@ frame_needed = 0, uses_anonymous_args = 0
 874              	.LVL88:
 593:Middlewares/Third_Party/FreeRTOS/Source/timers.c ****         TickType_t xNextExpireTime;
ARM GAS  C:\Users\main\AppData\Local\Temp\ccYPpv0e.s 			page 36


 875              		.loc 1 593 5 is_stmt 0 view .LVU224
 876 0000 00B5     		push	{lr}
 877              	.LCFI9:
 878              		.cfi_def_cfa_offset 4
 879              		.cfi_offset 14, -4
 880 0002 83B0     		sub	sp, sp, #12
 881              	.LCFI10:
 882              		.cfi_def_cfa_offset 16
 883              	.LVL89:
 884              	.L73:
 594:Middlewares/Third_Party/FreeRTOS/Source/timers.c ****         BaseType_t xListWasEmpty;
 885              		.loc 1 594 9 is_stmt 1 discriminator 1 view .LVU225
 595:Middlewares/Third_Party/FreeRTOS/Source/timers.c **** 
 886              		.loc 1 595 9 discriminator 1 view .LVU226
 598:Middlewares/Third_Party/FreeRTOS/Source/timers.c **** 
 887              		.loc 1 598 9 discriminator 1 view .LVU227
 610:Middlewares/Third_Party/FreeRTOS/Source/timers.c ****         {
 888              		.loc 1 610 9 discriminator 1 view .LVU228
 614:Middlewares/Third_Party/FreeRTOS/Source/timers.c **** 
 889              		.loc 1 614 13 discriminator 1 view .LVU229
 614:Middlewares/Third_Party/FreeRTOS/Source/timers.c **** 
 890              		.loc 1 614 31 is_stmt 0 discriminator 1 view .LVU230
 891 0004 01A8     		add	r0, sp, #4
 892 0006 FFF7FEFF 		bl	prvGetNextExpireTime
 893              	.LVL90:
 618:Middlewares/Third_Party/FreeRTOS/Source/timers.c **** 
 894              		.loc 1 618 13 is_stmt 1 discriminator 1 view .LVU231
 895 000a 0199     		ldr	r1, [sp, #4]
 896 000c FFF7FEFF 		bl	prvProcessTimerOrBlockTask
 897              	.LVL91:
 621:Middlewares/Third_Party/FreeRTOS/Source/timers.c ****         }
 898              		.loc 1 621 13 discriminator 1 view .LVU232
 899 0010 FFF7FEFF 		bl	prvProcessReceivedCommands
 900              	.LVL92:
 610:Middlewares/Third_Party/FreeRTOS/Source/timers.c ****         {
 901              		.loc 1 610 16 discriminator 1 view .LVU233
 902 0014 F6E7     		b	.L73
 903              		.cfi_endproc
 904              	.LFE16:
 906              		.section	.rodata.prvCheckForValidListAndQueue.str1.4,"aMS",%progbits,1
 907              		.align	2
 908              	.LC18:
 909 0000 546D7251 		.ascii	"TmrQ\000"
 909      00
 910              		.section	.text.prvCheckForValidListAndQueue,"ax",%progbits
 911              		.align	1
 912              		.syntax unified
 913              		.code	16
 914              		.thumb_func
 916              	prvCheckForValidListAndQueue:
 917              	.LFB23:
 953:Middlewares/Third_Party/FreeRTOS/Source/timers.c **** /*-----------------------------------------------------------*/
 954:Middlewares/Third_Party/FreeRTOS/Source/timers.c **** 
 955:Middlewares/Third_Party/FreeRTOS/Source/timers.c ****     static void prvCheckForValidListAndQueue( void )
 956:Middlewares/Third_Party/FreeRTOS/Source/timers.c ****     {
 918              		.loc 1 956 5 view -0
 919              		.cfi_startproc
ARM GAS  C:\Users\main\AppData\Local\Temp\ccYPpv0e.s 			page 37


 920              		@ args = 0, pretend = 0, frame = 0
 921              		@ frame_needed = 0, uses_anonymous_args = 0
 922 0000 30B5     		push	{r4, r5, lr}
 923              	.LCFI11:
 924              		.cfi_def_cfa_offset 12
 925              		.cfi_offset 4, -12
 926              		.cfi_offset 5, -8
 927              		.cfi_offset 14, -4
 928 0002 83B0     		sub	sp, sp, #12
 929              	.LCFI12:
 930              		.cfi_def_cfa_offset 24
 957:Middlewares/Third_Party/FreeRTOS/Source/timers.c ****         /* Check that the list from which active timers are referenced, and the
 958:Middlewares/Third_Party/FreeRTOS/Source/timers.c ****          * queue used to communicate with the timer service, have been
 959:Middlewares/Third_Party/FreeRTOS/Source/timers.c ****          * initialised. */
 960:Middlewares/Third_Party/FreeRTOS/Source/timers.c ****         taskENTER_CRITICAL();
 931              		.loc 1 960 9 view .LVU235
 932 0004 FFF7FEFF 		bl	vPortEnterCritical
 933              	.LVL93:
 961:Middlewares/Third_Party/FreeRTOS/Source/timers.c ****         {
 962:Middlewares/Third_Party/FreeRTOS/Source/timers.c ****             if( xTimerQueue == NULL )
 934              		.loc 1 962 13 view .LVU236
 935              		.loc 1 962 29 is_stmt 0 view .LVU237
 936 0008 114B     		ldr	r3, .L77
 937 000a 1B68     		ldr	r3, [r3]
 938              		.loc 1 962 15 view .LVU238
 939 000c 002B     		cmp	r3, #0
 940 000e 03D0     		beq	.L76
 941              	.L75:
 963:Middlewares/Third_Party/FreeRTOS/Source/timers.c ****             {
 964:Middlewares/Third_Party/FreeRTOS/Source/timers.c ****                 vListInitialise( &xActiveTimerList1 );
 965:Middlewares/Third_Party/FreeRTOS/Source/timers.c ****                 vListInitialise( &xActiveTimerList2 );
 966:Middlewares/Third_Party/FreeRTOS/Source/timers.c ****                 pxCurrentTimerList = &xActiveTimerList1;
 967:Middlewares/Third_Party/FreeRTOS/Source/timers.c ****                 pxOverflowTimerList = &xActiveTimerList2;
 968:Middlewares/Third_Party/FreeRTOS/Source/timers.c **** 
 969:Middlewares/Third_Party/FreeRTOS/Source/timers.c ****                 #if ( configSUPPORT_STATIC_ALLOCATION == 1 )
 970:Middlewares/Third_Party/FreeRTOS/Source/timers.c ****                 {
 971:Middlewares/Third_Party/FreeRTOS/Source/timers.c ****                     /* The timer queue is allocated statically in case
 972:Middlewares/Third_Party/FreeRTOS/Source/timers.c ****                      * configSUPPORT_DYNAMIC_ALLOCATION is 0. */
 973:Middlewares/Third_Party/FreeRTOS/Source/timers.c ****                     PRIVILEGED_DATA static StaticQueue_t xStaticTimerQueue;                        
 974:Middlewares/Third_Party/FreeRTOS/Source/timers.c ****                     PRIVILEGED_DATA static uint8_t ucStaticTimerQueueStorage[ ( size_t ) configTIME
 975:Middlewares/Third_Party/FreeRTOS/Source/timers.c **** 
 976:Middlewares/Third_Party/FreeRTOS/Source/timers.c ****                     xTimerQueue = xQueueCreateStatic( ( UBaseType_t ) configTIMER_QUEUE_LENGTH, ( U
 977:Middlewares/Third_Party/FreeRTOS/Source/timers.c ****                 }
 978:Middlewares/Third_Party/FreeRTOS/Source/timers.c ****                 #else
 979:Middlewares/Third_Party/FreeRTOS/Source/timers.c ****                 {
 980:Middlewares/Third_Party/FreeRTOS/Source/timers.c ****                     xTimerQueue = xQueueCreate( ( UBaseType_t ) configTIMER_QUEUE_LENGTH, sizeof( D
 981:Middlewares/Third_Party/FreeRTOS/Source/timers.c ****                 }
 982:Middlewares/Third_Party/FreeRTOS/Source/timers.c ****                 #endif /* if ( configSUPPORT_STATIC_ALLOCATION == 1 ) */
 983:Middlewares/Third_Party/FreeRTOS/Source/timers.c **** 
 984:Middlewares/Third_Party/FreeRTOS/Source/timers.c ****                 #if ( configQUEUE_REGISTRY_SIZE > 0 )
 985:Middlewares/Third_Party/FreeRTOS/Source/timers.c ****                 {
 986:Middlewares/Third_Party/FreeRTOS/Source/timers.c ****                     if( xTimerQueue != NULL )
 987:Middlewares/Third_Party/FreeRTOS/Source/timers.c ****                     {
 988:Middlewares/Third_Party/FreeRTOS/Source/timers.c ****                         vQueueAddToRegistry( xTimerQueue, "TmrQ" );
 989:Middlewares/Third_Party/FreeRTOS/Source/timers.c ****                     }
 990:Middlewares/Third_Party/FreeRTOS/Source/timers.c ****                     else
 991:Middlewares/Third_Party/FreeRTOS/Source/timers.c ****                     {
ARM GAS  C:\Users\main\AppData\Local\Temp\ccYPpv0e.s 			page 38


 992:Middlewares/Third_Party/FreeRTOS/Source/timers.c ****                         mtCOVERAGE_TEST_MARKER();
 993:Middlewares/Third_Party/FreeRTOS/Source/timers.c ****                     }
 994:Middlewares/Third_Party/FreeRTOS/Source/timers.c ****                 }
 995:Middlewares/Third_Party/FreeRTOS/Source/timers.c ****                 #endif /* configQUEUE_REGISTRY_SIZE */
 996:Middlewares/Third_Party/FreeRTOS/Source/timers.c ****             }
 997:Middlewares/Third_Party/FreeRTOS/Source/timers.c ****             else
 998:Middlewares/Third_Party/FreeRTOS/Source/timers.c ****             {
 999:Middlewares/Third_Party/FreeRTOS/Source/timers.c ****                 mtCOVERAGE_TEST_MARKER();
 942              		.loc 1 999 41 is_stmt 1 view .LVU239
1000:Middlewares/Third_Party/FreeRTOS/Source/timers.c ****             }
1001:Middlewares/Third_Party/FreeRTOS/Source/timers.c ****         }
1002:Middlewares/Third_Party/FreeRTOS/Source/timers.c ****         taskEXIT_CRITICAL();
 943              		.loc 1 1002 9 view .LVU240
 944 0010 FFF7FEFF 		bl	vPortExitCritical
 945              	.LVL94:
1003:Middlewares/Third_Party/FreeRTOS/Source/timers.c ****     }
 946              		.loc 1 1003 5 is_stmt 0 view .LVU241
 947 0014 03B0     		add	sp, sp, #12
 948              		@ sp needed
 949 0016 30BD     		pop	{r4, r5, pc}
 950              	.L76:
 964:Middlewares/Third_Party/FreeRTOS/Source/timers.c ****                 vListInitialise( &xActiveTimerList2 );
 951              		.loc 1 964 17 is_stmt 1 view .LVU242
 952 0018 0E4D     		ldr	r5, .L77+4
 953 001a 2800     		movs	r0, r5
 954 001c FFF7FEFF 		bl	vListInitialise
 955              	.LVL95:
 965:Middlewares/Third_Party/FreeRTOS/Source/timers.c ****                 pxCurrentTimerList = &xActiveTimerList1;
 956              		.loc 1 965 17 view .LVU243
 957 0020 0D4C     		ldr	r4, .L77+8
 958 0022 2000     		movs	r0, r4
 959 0024 FFF7FEFF 		bl	vListInitialise
 960              	.LVL96:
 966:Middlewares/Third_Party/FreeRTOS/Source/timers.c ****                 pxOverflowTimerList = &xActiveTimerList2;
 961              		.loc 1 966 17 view .LVU244
 966:Middlewares/Third_Party/FreeRTOS/Source/timers.c ****                 pxOverflowTimerList = &xActiveTimerList2;
 962              		.loc 1 966 36 is_stmt 0 view .LVU245
 963 0028 0C4B     		ldr	r3, .L77+12
 964 002a 1D60     		str	r5, [r3]
 967:Middlewares/Third_Party/FreeRTOS/Source/timers.c **** 
 965              		.loc 1 967 17 is_stmt 1 view .LVU246
 967:Middlewares/Third_Party/FreeRTOS/Source/timers.c **** 
 966              		.loc 1 967 37 is_stmt 0 view .LVU247
 967 002c 0C4B     		ldr	r3, .L77+16
 968 002e 1C60     		str	r4, [r3]
 969              	.LBB3:
 973:Middlewares/Third_Party/FreeRTOS/Source/timers.c ****                     PRIVILEGED_DATA static uint8_t ucStaticTimerQueueStorage[ ( size_t ) configTIME
 970              		.loc 1 973 37 is_stmt 1 view .LVU248
 974:Middlewares/Third_Party/FreeRTOS/Source/timers.c **** 
 971              		.loc 1 974 37 view .LVU249
 976:Middlewares/Third_Party/FreeRTOS/Source/timers.c ****                 }
 972              		.loc 1 976 21 view .LVU250
 976:Middlewares/Third_Party/FreeRTOS/Source/timers.c ****                 }
 973              		.loc 1 976 35 is_stmt 0 view .LVU251
 974 0030 0023     		movs	r3, #0
 975 0032 0093     		str	r3, [sp]
 976 0034 0B4B     		ldr	r3, .L77+20
ARM GAS  C:\Users\main\AppData\Local\Temp\ccYPpv0e.s 			page 39


 977 0036 0C4A     		ldr	r2, .L77+24
 978 0038 1021     		movs	r1, #16
 979 003a 0A20     		movs	r0, #10
 980 003c FFF7FEFF 		bl	xQueueGenericCreateStatic
 981              	.LVL97:
 976:Middlewares/Third_Party/FreeRTOS/Source/timers.c ****                 }
 982              		.loc 1 976 33 view .LVU252
 983 0040 034B     		ldr	r3, .L77
 984 0042 1860     		str	r0, [r3]
 985              	.LBE3:
 986:Middlewares/Third_Party/FreeRTOS/Source/timers.c ****                     {
 986              		.loc 1 986 21 is_stmt 1 view .LVU253
 986:Middlewares/Third_Party/FreeRTOS/Source/timers.c ****                     {
 987              		.loc 1 986 23 is_stmt 0 view .LVU254
 988 0044 0028     		cmp	r0, #0
 989 0046 E3D0     		beq	.L75
 988:Middlewares/Third_Party/FreeRTOS/Source/timers.c ****                     }
 990              		.loc 1 988 25 is_stmt 1 view .LVU255
 991 0048 0849     		ldr	r1, .L77+28
 992 004a FFF7FEFF 		bl	vQueueAddToRegistry
 993              	.LVL98:
 994 004e DFE7     		b	.L75
 995              	.L78:
 996              		.align	2
 997              	.L77:
 998 0050 00000000 		.word	.LANCHOR3
 999 0054 00000000 		.word	.LANCHOR4
 1000 0058 00000000 		.word	.LANCHOR5
 1001 005c 00000000 		.word	.LANCHOR0
 1002 0060 00000000 		.word	.LANCHOR1
 1003 0064 00000000 		.word	.LANCHOR6
 1004 0068 00000000 		.word	ucStaticTimerQueueStorage.1
 1005 006c 00000000 		.word	.LC18
 1006              		.cfi_endproc
 1007              	.LFE23:
 1009              		.section	.text.prvInitialiseNewTimer,"ax",%progbits
 1010              		.align	1
 1011              		.syntax unified
 1012              		.code	16
 1013              		.thumb_func
 1015              	prvInitialiseNewTimer:
 1016              	.LVL99:
 1017              	.LFB4:
 361:Middlewares/Third_Party/FreeRTOS/Source/timers.c ****         /* 0 is not a valid value for xTimerPeriodInTicks. */
 1018              		.loc 1 361 5 view -0
 1019              		.cfi_startproc
 1020              		@ args = 8, pretend = 0, frame = 8
 1021              		@ frame_needed = 0, uses_anonymous_args = 0
 361:Middlewares/Third_Party/FreeRTOS/Source/timers.c ****         /* 0 is not a valid value for xTimerPeriodInTicks. */
 1022              		.loc 1 361 5 is_stmt 0 view .LVU257
 1023 0000 F0B5     		push	{r4, r5, r6, r7, lr}
 1024              	.LCFI13:
 1025              		.cfi_def_cfa_offset 20
 1026              		.cfi_offset 4, -20
 1027              		.cfi_offset 5, -16
 1028              		.cfi_offset 6, -12
 1029              		.cfi_offset 7, -8
ARM GAS  C:\Users\main\AppData\Local\Temp\ccYPpv0e.s 			page 40


 1030              		.cfi_offset 14, -4
 1031 0002 83B0     		sub	sp, sp, #12
 1032              	.LCFI14:
 1033              		.cfi_def_cfa_offset 32
 1034 0004 0600     		movs	r6, r0
 1035 0006 0C00     		movs	r4, r1
 1036 0008 0192     		str	r2, [sp, #4]
 1037 000a 1D00     		movs	r5, r3
 1038 000c 099F     		ldr	r7, [sp, #36]
 363:Middlewares/Third_Party/FreeRTOS/Source/timers.c **** 
 1039              		.loc 1 363 9 is_stmt 1 view .LVU258
 1040 000e 0029     		cmp	r1, #0
 1041 0010 01D1     		bne	.L80
 363:Middlewares/Third_Party/FreeRTOS/Source/timers.c **** 
 1042              		.loc 1 363 9 discriminator 1 view .LVU259
 1043              		.syntax divided
 1044              	@ 363 "Middlewares/Third_Party/FreeRTOS/Source/timers.c" 1
 1045 0012 72B6     		 cpsid i 
 1046              	@ 0 "" 2
 1047              		.thumb
 1048              		.syntax unified
 1049              	.L81:
 363:Middlewares/Third_Party/FreeRTOS/Source/timers.c **** 
 1050              		.loc 1 363 9 discriminator 1 view .LVU260
 363:Middlewares/Third_Party/FreeRTOS/Source/timers.c **** 
 1051              		.loc 1 363 9 discriminator 1 view .LVU261
 363:Middlewares/Third_Party/FreeRTOS/Source/timers.c **** 
 1052              		.loc 1 363 9 discriminator 1 view .LVU262
 1053 0014 FEE7     		b	.L81
 1054              	.L80:
 363:Middlewares/Third_Party/FreeRTOS/Source/timers.c **** 
 1055              		.loc 1 363 52 discriminator 2 view .LVU263
 367:Middlewares/Third_Party/FreeRTOS/Source/timers.c **** 
 1056              		.loc 1 367 9 discriminator 2 view .LVU264
 1057 0016 FFF7FEFF 		bl	prvCheckForValidListAndQueue
 1058              	.LVL100:
 371:Middlewares/Third_Party/FreeRTOS/Source/timers.c ****         pxNewTimer->xTimerPeriodInTicks = xTimerPeriodInTicks;
 1059              		.loc 1 371 9 discriminator 2 view .LVU265
 371:Middlewares/Third_Party/FreeRTOS/Source/timers.c ****         pxNewTimer->xTimerPeriodInTicks = xTimerPeriodInTicks;
 1060              		.loc 1 371 33 is_stmt 0 discriminator 2 view .LVU266
 1061 001a 3E60     		str	r6, [r7]
 372:Middlewares/Third_Party/FreeRTOS/Source/timers.c ****         pxNewTimer->pvTimerID = pvTimerID;
 1062              		.loc 1 372 9 is_stmt 1 discriminator 2 view .LVU267
 372:Middlewares/Third_Party/FreeRTOS/Source/timers.c ****         pxNewTimer->pvTimerID = pvTimerID;
 1063              		.loc 1 372 41 is_stmt 0 discriminator 2 view .LVU268
 1064 001c BC61     		str	r4, [r7, #24]
 373:Middlewares/Third_Party/FreeRTOS/Source/timers.c ****         pxNewTimer->pxCallbackFunction = pxCallbackFunction;
 1065              		.loc 1 373 9 is_stmt 1 discriminator 2 view .LVU269
 373:Middlewares/Third_Party/FreeRTOS/Source/timers.c ****         pxNewTimer->pxCallbackFunction = pxCallbackFunction;
 1066              		.loc 1 373 31 is_stmt 0 discriminator 2 view .LVU270
 1067 001e FD61     		str	r5, [r7, #28]
 374:Middlewares/Third_Party/FreeRTOS/Source/timers.c ****         vListInitialiseItem( &( pxNewTimer->xTimerListItem ) );
 1068              		.loc 1 374 9 is_stmt 1 discriminator 2 view .LVU271
 374:Middlewares/Third_Party/FreeRTOS/Source/timers.c ****         vListInitialiseItem( &( pxNewTimer->xTimerListItem ) );
 1069              		.loc 1 374 40 is_stmt 0 discriminator 2 view .LVU272
 1070 0020 089B     		ldr	r3, [sp, #32]
 1071 0022 3B62     		str	r3, [r7, #32]
ARM GAS  C:\Users\main\AppData\Local\Temp\ccYPpv0e.s 			page 41


 375:Middlewares/Third_Party/FreeRTOS/Source/timers.c **** 
 1072              		.loc 1 375 9 is_stmt 1 discriminator 2 view .LVU273
 1073 0024 381D     		adds	r0, r7, #4
 1074 0026 FFF7FEFF 		bl	vListInitialiseItem
 1075              	.LVL101:
 377:Middlewares/Third_Party/FreeRTOS/Source/timers.c ****         {
 1076              		.loc 1 377 9 discriminator 2 view .LVU274
 377:Middlewares/Third_Party/FreeRTOS/Source/timers.c ****         {
 1077              		.loc 1 377 11 is_stmt 0 discriminator 2 view .LVU275
 1078 002a 019B     		ldr	r3, [sp, #4]
 1079 002c 002B     		cmp	r3, #0
 1080 002e 04D0     		beq	.L79
 379:Middlewares/Third_Party/FreeRTOS/Source/timers.c ****         }
 1081              		.loc 1 379 13 is_stmt 1 view .LVU276
 379:Middlewares/Third_Party/FreeRTOS/Source/timers.c ****         }
 1082              		.loc 1 379 34 is_stmt 0 view .LVU277
 1083 0030 2822     		movs	r2, #40
 1084 0032 BB5C     		ldrb	r3, [r7, r2]
 1085 0034 0421     		movs	r1, #4
 1086 0036 0B43     		orrs	r3, r1
 1087 0038 BB54     		strb	r3, [r7, r2]
 382:Middlewares/Third_Party/FreeRTOS/Source/timers.c ****     }
 1088              		.loc 1 382 40 is_stmt 1 view .LVU278
 1089              	.L79:
 383:Middlewares/Third_Party/FreeRTOS/Source/timers.c **** /*-----------------------------------------------------------*/
 1090              		.loc 1 383 5 is_stmt 0 view .LVU279
 1091 003a 03B0     		add	sp, sp, #12
 1092              		@ sp needed
 1093              	.LVL102:
 1094              	.LVL103:
 1095              	.LVL104:
 383:Middlewares/Third_Party/FreeRTOS/Source/timers.c **** /*-----------------------------------------------------------*/
 1096              		.loc 1 383 5 view .LVU280
 1097 003c F0BD     		pop	{r4, r5, r6, r7, pc}
 1098              		.cfi_endproc
 1099              	.LFE4:
 1101              		.section	.rodata.xTimerCreateTimerTask.str1.4,"aMS",%progbits,1
 1102              		.align	2
 1103              	.LC21:
 1104 0000 546D7220 		.ascii	"Tmr Svc\000"
 1104      53766300 
 1105              		.section	.text.xTimerCreateTimerTask,"ax",%progbits
 1106              		.align	1
 1107              		.global	xTimerCreateTimerTask
 1108              		.syntax unified
 1109              		.code	16
 1110              		.thumb_func
 1112              	xTimerCreateTimerTask:
 1113              	.LFB1:
 234:Middlewares/Third_Party/FreeRTOS/Source/timers.c ****         BaseType_t xReturn = pdFAIL;
 1114              		.loc 1 234 5 is_stmt 1 view -0
 1115              		.cfi_startproc
 1116              		@ args = 0, pretend = 0, frame = 16
 1117              		@ frame_needed = 0, uses_anonymous_args = 0
 1118 0000 00B5     		push	{lr}
 1119              	.LCFI15:
 1120              		.cfi_def_cfa_offset 4
ARM GAS  C:\Users\main\AppData\Local\Temp\ccYPpv0e.s 			page 42


 1121              		.cfi_offset 14, -4
 1122 0002 89B0     		sub	sp, sp, #36
 1123              	.LCFI16:
 1124              		.cfi_def_cfa_offset 40
 235:Middlewares/Third_Party/FreeRTOS/Source/timers.c **** 
 1125              		.loc 1 235 9 view .LVU282
 1126              	.LVL105:
 241:Middlewares/Third_Party/FreeRTOS/Source/timers.c **** 
 1127              		.loc 1 241 9 view .LVU283
 1128 0004 FFF7FEFF 		bl	prvCheckForValidListAndQueue
 1129              	.LVL106:
 243:Middlewares/Third_Party/FreeRTOS/Source/timers.c ****         {
 1130              		.loc 1 243 9 view .LVU284
 243:Middlewares/Third_Party/FreeRTOS/Source/timers.c ****         {
 1131              		.loc 1 243 25 is_stmt 0 view .LVU285
 1132 0008 104B     		ldr	r3, .L88
 1133 000a 1B68     		ldr	r3, [r3]
 243:Middlewares/Third_Party/FreeRTOS/Source/timers.c ****         {
 1134              		.loc 1 243 11 view .LVU286
 1135 000c 002B     		cmp	r3, #0
 1136 000e 1AD0     		beq	.L84
 1137              	.LBB4:
 247:Middlewares/Third_Party/FreeRTOS/Source/timers.c ****                 StackType_t * pxTimerTaskStackBuffer = NULL;
 1138              		.loc 1 247 17 is_stmt 1 view .LVU287
 247:Middlewares/Third_Party/FreeRTOS/Source/timers.c ****                 StackType_t * pxTimerTaskStackBuffer = NULL;
 1139              		.loc 1 247 32 is_stmt 0 view .LVU288
 1140 0010 0023     		movs	r3, #0
 1141 0012 0593     		str	r3, [sp, #20]
 248:Middlewares/Third_Party/FreeRTOS/Source/timers.c ****                 uint32_t ulTimerTaskStackSize;
 1142              		.loc 1 248 17 is_stmt 1 view .LVU289
 248:Middlewares/Third_Party/FreeRTOS/Source/timers.c ****                 uint32_t ulTimerTaskStackSize;
 1143              		.loc 1 248 31 is_stmt 0 view .LVU290
 1144 0014 0693     		str	r3, [sp, #24]
 249:Middlewares/Third_Party/FreeRTOS/Source/timers.c **** 
 1145              		.loc 1 249 17 is_stmt 1 view .LVU291
 251:Middlewares/Third_Party/FreeRTOS/Source/timers.c ****                 xTimerTaskHandle = xTaskCreateStatic( prvTimerTask,
 1146              		.loc 1 251 17 view .LVU292
 1147 0016 07AA     		add	r2, sp, #28
 1148 0018 06A9     		add	r1, sp, #24
 1149 001a 05A8     		add	r0, sp, #20
 1150 001c FFF7FEFF 		bl	vApplicationGetTimerTaskMemory
 1151              	.LVL107:
 252:Middlewares/Third_Party/FreeRTOS/Source/timers.c ****                                                       configTIMER_SERVICE_TASK_NAME,
 1152              		.loc 1 252 17 view .LVU293
 252:Middlewares/Third_Party/FreeRTOS/Source/timers.c ****                                                       configTIMER_SERVICE_TASK_NAME,
 1153              		.loc 1 252 36 is_stmt 0 view .LVU294
 1154 0020 059B     		ldr	r3, [sp, #20]
 1155 0022 0293     		str	r3, [sp, #8]
 1156 0024 069B     		ldr	r3, [sp, #24]
 1157 0026 0193     		str	r3, [sp, #4]
 1158 0028 0223     		movs	r3, #2
 1159 002a 0093     		str	r3, [sp]
 1160 002c 0023     		movs	r3, #0
 1161 002e 079A     		ldr	r2, [sp, #28]
 1162 0030 0749     		ldr	r1, .L88+4
 1163 0032 0848     		ldr	r0, .L88+8
 1164 0034 FFF7FEFF 		bl	xTaskCreateStatic
ARM GAS  C:\Users\main\AppData\Local\Temp\ccYPpv0e.s 			page 43


 1165              	.LVL108:
 252:Middlewares/Third_Party/FreeRTOS/Source/timers.c ****                                                       configTIMER_SERVICE_TASK_NAME,
 1166              		.loc 1 252 34 view .LVU295
 1167 0038 074B     		ldr	r3, .L88+12
 1168 003a 1860     		str	r0, [r3]
 260:Middlewares/Third_Party/FreeRTOS/Source/timers.c ****                 {
 1169              		.loc 1 260 17 is_stmt 1 view .LVU296
 260:Middlewares/Third_Party/FreeRTOS/Source/timers.c ****                 {
 1170              		.loc 1 260 19 is_stmt 0 view .LVU297
 1171 003c 0028     		cmp	r0, #0
 1172 003e 02D0     		beq	.L84
 1173              	.LBE4:
 283:Middlewares/Third_Party/FreeRTOS/Source/timers.c **** /*-----------------------------------------------------------*/
 1174              		.loc 1 283 5 view .LVU298
 1175 0040 0120     		movs	r0, #1
 1176 0042 09B0     		add	sp, sp, #36
 1177              		@ sp needed
 1178 0044 00BD     		pop	{pc}
 1179              	.L84:
 1180              	.LVL109:
 281:Middlewares/Third_Party/FreeRTOS/Source/timers.c ****         return xReturn;
 1181              		.loc 1 281 9 is_stmt 1 discriminator 1 view .LVU299
 1182              		.syntax divided
 1183              	@ 281 "Middlewares/Third_Party/FreeRTOS/Source/timers.c" 1
 1184 0046 72B6     		 cpsid i 
 1185              	@ 0 "" 2
 1186              		.thumb
 1187              		.syntax unified
 1188              	.L86:
 281:Middlewares/Third_Party/FreeRTOS/Source/timers.c ****         return xReturn;
 1189              		.loc 1 281 9 discriminator 1 view .LVU300
 281:Middlewares/Third_Party/FreeRTOS/Source/timers.c ****         return xReturn;
 1190              		.loc 1 281 9 discriminator 1 view .LVU301
 281:Middlewares/Third_Party/FreeRTOS/Source/timers.c ****         return xReturn;
 1191              		.loc 1 281 9 discriminator 1 view .LVU302
 1192 0048 FEE7     		b	.L86
 1193              	.L89:
 1194 004a C046     		.align	2
 1195              	.L88:
 1196 004c 00000000 		.word	.LANCHOR3
 1197 0050 00000000 		.word	.LC21
 1198 0054 00000000 		.word	prvTimerTask
 1199 0058 00000000 		.word	.LANCHOR7
 1200              		.cfi_endproc
 1201              	.LFE1:
 1203              		.section	.text.xTimerCreate,"ax",%progbits
 1204              		.align	1
 1205              		.global	xTimerCreate
 1206              		.syntax unified
 1207              		.code	16
 1208              		.thumb_func
 1210              	xTimerCreate:
 1211              	.LVL110:
 1212              	.LFB2:
 293:Middlewares/Third_Party/FreeRTOS/Source/timers.c ****             Timer_t * pxNewTimer;
 1213              		.loc 1 293 9 view -0
 1214              		.cfi_startproc
ARM GAS  C:\Users\main\AppData\Local\Temp\ccYPpv0e.s 			page 44


 1215              		@ args = 4, pretend = 0, frame = 8
 1216              		@ frame_needed = 0, uses_anonymous_args = 0
 293:Middlewares/Third_Party/FreeRTOS/Source/timers.c ****             Timer_t * pxNewTimer;
 1217              		.loc 1 293 9 is_stmt 0 view .LVU304
 1218 0000 F0B5     		push	{r4, r5, r6, r7, lr}
 1219              	.LCFI17:
 1220              		.cfi_def_cfa_offset 20
 1221              		.cfi_offset 4, -20
 1222              		.cfi_offset 5, -16
 1223              		.cfi_offset 6, -12
 1224              		.cfi_offset 7, -8
 1225              		.cfi_offset 14, -4
 1226 0002 85B0     		sub	sp, sp, #20
 1227              	.LCFI18:
 1228              		.cfi_def_cfa_offset 40
 1229 0004 0390     		str	r0, [sp, #12]
 1230 0006 0D00     		movs	r5, r1
 1231 0008 1600     		movs	r6, r2
 1232 000a 1F00     		movs	r7, r3
 294:Middlewares/Third_Party/FreeRTOS/Source/timers.c **** 
 1233              		.loc 1 294 13 is_stmt 1 view .LVU305
 296:Middlewares/Third_Party/FreeRTOS/Source/timers.c **** 
 1234              		.loc 1 296 13 view .LVU306
 296:Middlewares/Third_Party/FreeRTOS/Source/timers.c **** 
 1235              		.loc 1 296 40 is_stmt 0 view .LVU307
 1236 000c 2C20     		movs	r0, #44
 1237              	.LVL111:
 296:Middlewares/Third_Party/FreeRTOS/Source/timers.c **** 
 1238              		.loc 1 296 40 view .LVU308
 1239 000e FFF7FEFF 		bl	pvPortMalloc
 1240              	.LVL112:
 296:Middlewares/Third_Party/FreeRTOS/Source/timers.c **** 
 1241              		.loc 1 296 40 view .LVU309
 1242 0012 041E     		subs	r4, r0, #0
 1243              	.LVL113:
 298:Middlewares/Third_Party/FreeRTOS/Source/timers.c ****             {
 1244              		.loc 1 298 13 is_stmt 1 view .LVU310
 298:Middlewares/Third_Party/FreeRTOS/Source/timers.c ****             {
 1245              		.loc 1 298 15 is_stmt 0 view .LVU311
 1246 0014 0BD0     		beq	.L90
 303:Middlewares/Third_Party/FreeRTOS/Source/timers.c ****                 prvInitialiseNewTimer( pcTimerName, xTimerPeriodInTicks, xAutoReload, pvTimerID, px
 1247              		.loc 1 303 17 is_stmt 1 view .LVU312
 303:Middlewares/Third_Party/FreeRTOS/Source/timers.c ****                 prvInitialiseNewTimer( pcTimerName, xTimerPeriodInTicks, xAutoReload, pvTimerID, px
 1248              		.loc 1 303 38 is_stmt 0 view .LVU313
 1249 0016 2823     		movs	r3, #40
 1250 0018 0022     		movs	r2, #0
 1251 001a C254     		strb	r2, [r0, r3]
 304:Middlewares/Third_Party/FreeRTOS/Source/timers.c ****             }
 1252              		.loc 1 304 17 is_stmt 1 view .LVU314
 1253 001c 0190     		str	r0, [sp, #4]
 1254 001e 0A9B     		ldr	r3, [sp, #40]
 1255 0020 0093     		str	r3, [sp]
 1256 0022 3B00     		movs	r3, r7
 1257 0024 3200     		movs	r2, r6
 1258 0026 2900     		movs	r1, r5
 1259 0028 0398     		ldr	r0, [sp, #12]
 1260              	.LVL114:
ARM GAS  C:\Users\main\AppData\Local\Temp\ccYPpv0e.s 			page 45


 304:Middlewares/Third_Party/FreeRTOS/Source/timers.c ****             }
 1261              		.loc 1 304 17 is_stmt 0 view .LVU315
 1262 002a FFF7FEFF 		bl	prvInitialiseNewTimer
 1263              	.LVL115:
 307:Middlewares/Third_Party/FreeRTOS/Source/timers.c ****         }
 1264              		.loc 1 307 13 is_stmt 1 view .LVU316
 1265              	.L90:
 308:Middlewares/Third_Party/FreeRTOS/Source/timers.c **** 
 1266              		.loc 1 308 9 is_stmt 0 view .LVU317
 1267 002e 2000     		movs	r0, r4
 1268 0030 05B0     		add	sp, sp, #20
 1269              		@ sp needed
 1270              	.LVL116:
 1271              	.LVL117:
 1272              	.LVL118:
 1273              	.LVL119:
 308:Middlewares/Third_Party/FreeRTOS/Source/timers.c **** 
 1274              		.loc 1 308 9 view .LVU318
 1275 0032 F0BD     		pop	{r4, r5, r6, r7, pc}
 1276              		.cfi_endproc
 1277              	.LFE2:
 1279              		.section	.text.xTimerCreateStatic,"ax",%progbits
 1280              		.align	1
 1281              		.global	xTimerCreateStatic
 1282              		.syntax unified
 1283              		.code	16
 1284              		.thumb_func
 1286              	xTimerCreateStatic:
 1287              	.LVL120:
 1288              	.LFB3:
 321:Middlewares/Third_Party/FreeRTOS/Source/timers.c ****             Timer_t * pxNewTimer;
 1289              		.loc 1 321 9 is_stmt 1 view -0
 1290              		.cfi_startproc
 1291              		@ args = 8, pretend = 0, frame = 8
 1292              		@ frame_needed = 0, uses_anonymous_args = 0
 321:Middlewares/Third_Party/FreeRTOS/Source/timers.c ****             Timer_t * pxNewTimer;
 1293              		.loc 1 321 9 is_stmt 0 view .LVU320
 1294 0000 70B5     		push	{r4, r5, r6, lr}
 1295              	.LCFI19:
 1296              		.cfi_def_cfa_offset 16
 1297              		.cfi_offset 4, -16
 1298              		.cfi_offset 5, -12
 1299              		.cfi_offset 6, -8
 1300              		.cfi_offset 14, -4
 1301 0002 84B0     		sub	sp, sp, #16
 1302              	.LCFI20:
 1303              		.cfi_def_cfa_offset 32
 322:Middlewares/Third_Party/FreeRTOS/Source/timers.c **** 
 1304              		.loc 1 322 13 is_stmt 1 view .LVU321
 1305              	.LBB5:
 329:Middlewares/Third_Party/FreeRTOS/Source/timers.c ****                 configASSERT( xSize == sizeof( Timer_t ) );
 1306              		.loc 1 329 17 view .LVU322
 329:Middlewares/Third_Party/FreeRTOS/Source/timers.c ****                 configASSERT( xSize == sizeof( Timer_t ) );
 1307              		.loc 1 329 33 is_stmt 0 view .LVU323
 1308 0004 2C24     		movs	r4, #44
 1309 0006 0394     		str	r4, [sp, #12]
 330:Middlewares/Third_Party/FreeRTOS/Source/timers.c ****                 ( void ) xSize; /* Keeps lint quiet when configASSERT() is not defined. */
ARM GAS  C:\Users\main\AppData\Local\Temp\ccYPpv0e.s 			page 46


 1310              		.loc 1 330 17 is_stmt 1 view .LVU324
 1311 0008 039C     		ldr	r4, [sp, #12]
 1312 000a 2C2C     		cmp	r4, #44
 1313 000c 01D0     		beq	.L93
 330:Middlewares/Third_Party/FreeRTOS/Source/timers.c ****                 ( void ) xSize; /* Keeps lint quiet when configASSERT() is not defined. */
 1314              		.loc 1 330 17 discriminator 1 view .LVU325
 1315              		.syntax divided
 1316              	@ 330 "Middlewares/Third_Party/FreeRTOS/Source/timers.c" 1
 1317 000e 72B6     		 cpsid i 
 1318              	@ 0 "" 2
 1319              		.thumb
 1320              		.syntax unified
 1321              	.L94:
 330:Middlewares/Third_Party/FreeRTOS/Source/timers.c ****                 ( void ) xSize; /* Keeps lint quiet when configASSERT() is not defined. */
 1322              		.loc 1 330 17 discriminator 1 view .LVU326
 330:Middlewares/Third_Party/FreeRTOS/Source/timers.c ****                 ( void ) xSize; /* Keeps lint quiet when configASSERT() is not defined. */
 1323              		.loc 1 330 17 discriminator 1 view .LVU327
 330:Middlewares/Third_Party/FreeRTOS/Source/timers.c ****                 ( void ) xSize; /* Keeps lint quiet when configASSERT() is not defined. */
 1324              		.loc 1 330 17 discriminator 1 view .LVU328
 1325 0010 FEE7     		b	.L94
 1326              	.L93:
 330:Middlewares/Third_Party/FreeRTOS/Source/timers.c ****                 ( void ) xSize; /* Keeps lint quiet when configASSERT() is not defined. */
 1327              		.loc 1 330 59 discriminator 2 view .LVU329
 331:Middlewares/Third_Party/FreeRTOS/Source/timers.c ****             }
 1328              		.loc 1 331 17 discriminator 2 view .LVU330
 1329 0012 039C     		ldr	r4, [sp, #12]
 1330              	.LBE5:
 336:Middlewares/Third_Party/FreeRTOS/Source/timers.c ****             pxNewTimer = ( Timer_t * ) pxTimerBuffer; /*lint !e740 !e9087 StaticTimer_t is a pointe
 1331              		.loc 1 336 13 discriminator 2 view .LVU331
 1332 0014 099C     		ldr	r4, [sp, #36]
 1333 0016 002C     		cmp	r4, #0
 1334 0018 0BD0     		beq	.L97
 336:Middlewares/Third_Party/FreeRTOS/Source/timers.c ****             pxNewTimer = ( Timer_t * ) pxTimerBuffer; /*lint !e740 !e9087 StaticTimer_t is a pointe
 1335              		.loc 1 336 42 view .LVU332
 337:Middlewares/Third_Party/FreeRTOS/Source/timers.c **** 
 1336              		.loc 1 337 13 view .LVU333
 1337              	.LVL121:
 339:Middlewares/Third_Party/FreeRTOS/Source/timers.c ****             {
 1338              		.loc 1 339 13 view .LVU334
 344:Middlewares/Third_Party/FreeRTOS/Source/timers.c **** 
 1339              		.loc 1 344 17 view .LVU335
 344:Middlewares/Third_Party/FreeRTOS/Source/timers.c **** 
 1340              		.loc 1 344 38 is_stmt 0 view .LVU336
 1341 001a 2824     		movs	r4, #40
 1342              	.LVL122:
 344:Middlewares/Third_Party/FreeRTOS/Source/timers.c **** 
 1343              		.loc 1 344 38 view .LVU337
 1344 001c 0225     		movs	r5, #2
 1345 001e 099E     		ldr	r6, [sp, #36]
 1346 0020 3555     		strb	r5, [r6, r4]
 346:Middlewares/Third_Party/FreeRTOS/Source/timers.c ****             }
 1347              		.loc 1 346 17 is_stmt 1 view .LVU338
 1348 0022 0196     		str	r6, [sp, #4]
 1349 0024 089C     		ldr	r4, [sp, #32]
 1350 0026 0094     		str	r4, [sp]
 1351 0028 FFF7FEFF 		bl	prvInitialiseNewTimer
 1352              	.LVL123:
ARM GAS  C:\Users\main\AppData\Local\Temp\ccYPpv0e.s 			page 47


 349:Middlewares/Third_Party/FreeRTOS/Source/timers.c ****         }
 1353              		.loc 1 349 13 view .LVU339
 350:Middlewares/Third_Party/FreeRTOS/Source/timers.c **** 
 1354              		.loc 1 350 9 is_stmt 0 view .LVU340
 1355 002c 0998     		ldr	r0, [sp, #36]
 1356 002e 04B0     		add	sp, sp, #16
 1357              		@ sp needed
 1358 0030 70BD     		pop	{r4, r5, r6, pc}
 1359              	.LVL124:
 1360              	.L97:
 336:Middlewares/Third_Party/FreeRTOS/Source/timers.c ****             pxNewTimer = ( Timer_t * ) pxTimerBuffer; /*lint !e740 !e9087 StaticTimer_t is a pointe
 1361              		.loc 1 336 13 is_stmt 1 discriminator 1 view .LVU341
 1362              		.syntax divided
 1363              	@ 336 "Middlewares/Third_Party/FreeRTOS/Source/timers.c" 1
 1364 0032 72B6     		 cpsid i 
 1365              	@ 0 "" 2
 1366              		.thumb
 1367              		.syntax unified
 1368              	.L96:
 336:Middlewares/Third_Party/FreeRTOS/Source/timers.c ****             pxNewTimer = ( Timer_t * ) pxTimerBuffer; /*lint !e740 !e9087 StaticTimer_t is a pointe
 1369              		.loc 1 336 13 discriminator 2 view .LVU342
 336:Middlewares/Third_Party/FreeRTOS/Source/timers.c ****             pxNewTimer = ( Timer_t * ) pxTimerBuffer; /*lint !e740 !e9087 StaticTimer_t is a pointe
 1370              		.loc 1 336 13 discriminator 2 view .LVU343
 336:Middlewares/Third_Party/FreeRTOS/Source/timers.c ****             pxNewTimer = ( Timer_t * ) pxTimerBuffer; /*lint !e740 !e9087 StaticTimer_t is a pointe
 1371              		.loc 1 336 13 discriminator 2 view .LVU344
 1372 0034 FEE7     		b	.L96
 1373              		.cfi_endproc
 1374              	.LFE3:
 1376              		.section	.text.xTimerGenericCommand,"ax",%progbits
 1377              		.align	1
 1378              		.global	xTimerGenericCommand
 1379              		.syntax unified
 1380              		.code	16
 1381              		.thumb_func
 1383              	xTimerGenericCommand:
 1384              	.LVL125:
 1385              	.LFB5:
 391:Middlewares/Third_Party/FreeRTOS/Source/timers.c ****         BaseType_t xReturn = pdFAIL;
 1386              		.loc 1 391 5 view -0
 1387              		.cfi_startproc
 1388              		@ args = 4, pretend = 0, frame = 16
 1389              		@ frame_needed = 0, uses_anonymous_args = 0
 391:Middlewares/Third_Party/FreeRTOS/Source/timers.c ****         BaseType_t xReturn = pdFAIL;
 1390              		.loc 1 391 5 is_stmt 0 view .LVU346
 1391 0000 30B5     		push	{r4, r5, lr}
 1392              	.LCFI21:
 1393              		.cfi_def_cfa_offset 12
 1394              		.cfi_offset 4, -12
 1395              		.cfi_offset 5, -8
 1396              		.cfi_offset 14, -4
 1397 0002 85B0     		sub	sp, sp, #20
 1398              	.LCFI22:
 1399              		.cfi_def_cfa_offset 32
 1400 0004 1C00     		movs	r4, r3
 392:Middlewares/Third_Party/FreeRTOS/Source/timers.c ****         DaemonTaskMessage_t xMessage;
 1401              		.loc 1 392 9 is_stmt 1 view .LVU347
 1402              	.LVL126:
ARM GAS  C:\Users\main\AppData\Local\Temp\ccYPpv0e.s 			page 48


 393:Middlewares/Third_Party/FreeRTOS/Source/timers.c **** 
 1403              		.loc 1 393 9 view .LVU348
 395:Middlewares/Third_Party/FreeRTOS/Source/timers.c **** 
 1404              		.loc 1 395 9 view .LVU349
 1405 0006 0028     		cmp	r0, #0
 1406 0008 14D0     		beq	.L105
 395:Middlewares/Third_Party/FreeRTOS/Source/timers.c **** 
 1407              		.loc 1 395 31 discriminator 2 view .LVU350
 399:Middlewares/Third_Party/FreeRTOS/Source/timers.c ****         {
 1408              		.loc 1 399 9 discriminator 2 view .LVU351
 399:Middlewares/Third_Party/FreeRTOS/Source/timers.c ****         {
 1409              		.loc 1 399 25 is_stmt 0 discriminator 2 view .LVU352
 1410 000a 144B     		ldr	r3, .L107
 1411              	.LVL127:
 399:Middlewares/Third_Party/FreeRTOS/Source/timers.c ****         {
 1412              		.loc 1 399 25 discriminator 2 view .LVU353
 1413 000c 1D68     		ldr	r5, [r3]
 399:Middlewares/Third_Party/FreeRTOS/Source/timers.c ****         {
 1414              		.loc 1 399 11 discriminator 2 view .LVU354
 1415 000e 002D     		cmp	r5, #0
 1416 0010 22D0     		beq	.L104
 402:Middlewares/Third_Party/FreeRTOS/Source/timers.c ****             xMessage.u.xTimerParameters.xMessageValue = xOptionalValue;
 1417              		.loc 1 402 13 is_stmt 1 view .LVU355
 402:Middlewares/Third_Party/FreeRTOS/Source/timers.c ****             xMessage.u.xTimerParameters.xMessageValue = xOptionalValue;
 1418              		.loc 1 402 33 is_stmt 0 view .LVU356
 1419 0012 0091     		str	r1, [sp]
 403:Middlewares/Third_Party/FreeRTOS/Source/timers.c ****             xMessage.u.xTimerParameters.pxTimer = xTimer;
 1420              		.loc 1 403 13 is_stmt 1 view .LVU357
 403:Middlewares/Third_Party/FreeRTOS/Source/timers.c ****             xMessage.u.xTimerParameters.pxTimer = xTimer;
 1421              		.loc 1 403 55 is_stmt 0 view .LVU358
 1422 0014 0192     		str	r2, [sp, #4]
 404:Middlewares/Third_Party/FreeRTOS/Source/timers.c **** 
 1423              		.loc 1 404 13 is_stmt 1 view .LVU359
 404:Middlewares/Third_Party/FreeRTOS/Source/timers.c **** 
 1424              		.loc 1 404 49 is_stmt 0 view .LVU360
 1425 0016 0290     		str	r0, [sp, #8]
 406:Middlewares/Third_Party/FreeRTOS/Source/timers.c ****             {
 1426              		.loc 1 406 13 is_stmt 1 view .LVU361
 406:Middlewares/Third_Party/FreeRTOS/Source/timers.c ****             {
 1427              		.loc 1 406 15 is_stmt 0 view .LVU362
 1428 0018 0529     		cmp	r1, #5
 1429 001a 15DC     		bgt	.L102
 408:Middlewares/Third_Party/FreeRTOS/Source/timers.c ****                 {
 1430              		.loc 1 408 17 is_stmt 1 view .LVU363
 408:Middlewares/Third_Party/FreeRTOS/Source/timers.c ****                 {
 1431              		.loc 1 408 21 is_stmt 0 view .LVU364
 1432 001c FFF7FEFF 		bl	xTaskGetSchedulerState
 1433              	.LVL128:
 408:Middlewares/Third_Party/FreeRTOS/Source/timers.c ****                 {
 1434              		.loc 1 408 19 view .LVU365
 1435 0020 0228     		cmp	r0, #2
 1436 0022 09D0     		beq	.L106
 414:Middlewares/Third_Party/FreeRTOS/Source/timers.c ****                 }
 1437              		.loc 1 414 21 is_stmt 1 view .LVU366
 414:Middlewares/Third_Party/FreeRTOS/Source/timers.c ****                 }
 1438              		.loc 1 414 31 is_stmt 0 view .LVU367
 1439 0024 0D4B     		ldr	r3, .L107
ARM GAS  C:\Users\main\AppData\Local\Temp\ccYPpv0e.s 			page 49


 1440 0026 1868     		ldr	r0, [r3]
 1441 0028 0023     		movs	r3, #0
 1442 002a 0022     		movs	r2, #0
 1443 002c 6946     		mov	r1, sp
 1444 002e FFF7FEFF 		bl	xQueueGenericSend
 1445              	.LVL129:
 414:Middlewares/Third_Party/FreeRTOS/Source/timers.c ****                 }
 1446              		.loc 1 414 31 view .LVU368
 1447 0032 0FE0     		b	.L98
 1448              	.LVL130:
 1449              	.L105:
 395:Middlewares/Third_Party/FreeRTOS/Source/timers.c **** 
 1450              		.loc 1 395 9 is_stmt 1 discriminator 1 view .LVU369
 1451              		.syntax divided
 1452              	@ 395 "Middlewares/Third_Party/FreeRTOS/Source/timers.c" 1
 1453 0034 72B6     		 cpsid i 
 1454              	@ 0 "" 2
 1455              		.thumb
 1456              		.syntax unified
 1457              	.L100:
 395:Middlewares/Third_Party/FreeRTOS/Source/timers.c **** 
 1458              		.loc 1 395 9 discriminator 1 view .LVU370
 395:Middlewares/Third_Party/FreeRTOS/Source/timers.c **** 
 1459              		.loc 1 395 9 discriminator 1 view .LVU371
 395:Middlewares/Third_Party/FreeRTOS/Source/timers.c **** 
 1460              		.loc 1 395 9 discriminator 1 view .LVU372
 1461 0036 FEE7     		b	.L100
 1462              	.LVL131:
 1463              	.L106:
 410:Middlewares/Third_Party/FreeRTOS/Source/timers.c ****                 }
 1464              		.loc 1 410 21 view .LVU373
 410:Middlewares/Third_Party/FreeRTOS/Source/timers.c ****                 }
 1465              		.loc 1 410 31 is_stmt 0 view .LVU374
 1466 0038 084B     		ldr	r3, .L107
 1467 003a 1868     		ldr	r0, [r3]
 1468 003c 0023     		movs	r3, #0
 1469 003e 089A     		ldr	r2, [sp, #32]
 1470 0040 6946     		mov	r1, sp
 1471 0042 FFF7FEFF 		bl	xQueueGenericSend
 1472              	.LVL132:
 410:Middlewares/Third_Party/FreeRTOS/Source/timers.c ****                 }
 1473              		.loc 1 410 31 view .LVU375
 1474 0046 05E0     		b	.L98
 1475              	.LVL133:
 1476              	.L102:
 419:Middlewares/Third_Party/FreeRTOS/Source/timers.c ****             }
 1477              		.loc 1 419 17 is_stmt 1 view .LVU376
 419:Middlewares/Third_Party/FreeRTOS/Source/timers.c ****             }
 1478              		.loc 1 419 27 is_stmt 0 view .LVU377
 1479 0048 0023     		movs	r3, #0
 1480 004a 2200     		movs	r2, r4
 1481              	.LVL134:
 419:Middlewares/Third_Party/FreeRTOS/Source/timers.c ****             }
 1482              		.loc 1 419 27 view .LVU378
 1483 004c 6946     		mov	r1, sp
 1484              	.LVL135:
 419:Middlewares/Third_Party/FreeRTOS/Source/timers.c ****             }
ARM GAS  C:\Users\main\AppData\Local\Temp\ccYPpv0e.s 			page 50


 1485              		.loc 1 419 27 view .LVU379
 1486 004e 2800     		movs	r0, r5
 1487              	.LVL136:
 419:Middlewares/Third_Party/FreeRTOS/Source/timers.c ****             }
 1488              		.loc 1 419 27 view .LVU380
 1489 0050 FFF7FEFF 		bl	xQueueGenericSendFromISR
 1490              	.LVL137:
 1491              	.L98:
 430:Middlewares/Third_Party/FreeRTOS/Source/timers.c **** /*-----------------------------------------------------------*/
 1492              		.loc 1 430 5 view .LVU381
 1493 0054 05B0     		add	sp, sp, #20
 1494              		@ sp needed
 1495              	.LVL138:
 430:Middlewares/Third_Party/FreeRTOS/Source/timers.c **** /*-----------------------------------------------------------*/
 1496              		.loc 1 430 5 view .LVU382
 1497 0056 30BD     		pop	{r4, r5, pc}
 1498              	.LVL139:
 1499              	.L104:
 392:Middlewares/Third_Party/FreeRTOS/Source/timers.c ****         DaemonTaskMessage_t xMessage;
 1500              		.loc 1 392 20 view .LVU383
 1501 0058 0020     		movs	r0, #0
 1502              	.LVL140:
 426:Middlewares/Third_Party/FreeRTOS/Source/timers.c ****         }
 1503              		.loc 1 426 37 is_stmt 1 view .LVU384
 429:Middlewares/Third_Party/FreeRTOS/Source/timers.c ****     }
 1504              		.loc 1 429 9 view .LVU385
 429:Middlewares/Third_Party/FreeRTOS/Source/timers.c ****     }
 1505              		.loc 1 429 16 is_stmt 0 view .LVU386
 1506 005a FBE7     		b	.L98
 1507              	.L108:
 1508              		.align	2
 1509              	.L107:
 1510 005c 00000000 		.word	.LANCHOR3
 1511              		.cfi_endproc
 1512              	.LFE5:
 1514              		.section	.text.xTimerGetTimerDaemonTaskHandle,"ax",%progbits
 1515              		.align	1
 1516              		.global	xTimerGetTimerDaemonTaskHandle
 1517              		.syntax unified
 1518              		.code	16
 1519              		.thumb_func
 1521              	xTimerGetTimerDaemonTaskHandle:
 1522              	.LFB6:
 434:Middlewares/Third_Party/FreeRTOS/Source/timers.c ****         /* If xTimerGetTimerDaemonTaskHandle() is called before the scheduler has been
 1523              		.loc 1 434 5 is_stmt 1 view -0
 1524              		.cfi_startproc
 1525              		@ args = 0, pretend = 0, frame = 0
 1526              		@ frame_needed = 0, uses_anonymous_args = 0
 1527              		@ link register save eliminated.
 437:Middlewares/Third_Party/FreeRTOS/Source/timers.c ****         return xTimerTaskHandle;
 1528              		.loc 1 437 9 view .LVU388
 1529 0000 034B     		ldr	r3, .L113
 1530 0002 1868     		ldr	r0, [r3]
 1531 0004 0028     		cmp	r0, #0
 1532 0006 00D0     		beq	.L112
 439:Middlewares/Third_Party/FreeRTOS/Source/timers.c **** /*-----------------------------------------------------------*/
 1533              		.loc 1 439 5 is_stmt 0 view .LVU389
ARM GAS  C:\Users\main\AppData\Local\Temp\ccYPpv0e.s 			page 51


 1534              		@ sp needed
 1535 0008 7047     		bx	lr
 1536              	.L112:
 437:Middlewares/Third_Party/FreeRTOS/Source/timers.c ****         return xTimerTaskHandle;
 1537              		.loc 1 437 9 is_stmt 1 discriminator 1 view .LVU390
 1538              		.syntax divided
 1539              	@ 437 "Middlewares/Third_Party/FreeRTOS/Source/timers.c" 1
 1540 000a 72B6     		 cpsid i 
 1541              	@ 0 "" 2
 1542              		.thumb
 1543              		.syntax unified
 1544              	.L111:
 437:Middlewares/Third_Party/FreeRTOS/Source/timers.c ****         return xTimerTaskHandle;
 1545              		.loc 1 437 9 discriminator 1 view .LVU391
 437:Middlewares/Third_Party/FreeRTOS/Source/timers.c ****         return xTimerTaskHandle;
 1546              		.loc 1 437 9 discriminator 1 view .LVU392
 437:Middlewares/Third_Party/FreeRTOS/Source/timers.c ****         return xTimerTaskHandle;
 1547              		.loc 1 437 9 discriminator 1 view .LVU393
 1548 000c FEE7     		b	.L111
 1549              	.L114:
 1550 000e C046     		.align	2
 1551              	.L113:
 1552 0010 00000000 		.word	.LANCHOR7
 1553              		.cfi_endproc
 1554              	.LFE6:
 1556              		.section	.text.xTimerGetPeriod,"ax",%progbits
 1557              		.align	1
 1558              		.global	xTimerGetPeriod
 1559              		.syntax unified
 1560              		.code	16
 1561              		.thumb_func
 1563              	xTimerGetPeriod:
 1564              	.LVL141:
 1565              	.LFB7:
 443:Middlewares/Third_Party/FreeRTOS/Source/timers.c ****         Timer_t * pxTimer = xTimer;
 1566              		.loc 1 443 5 view -0
 1567              		.cfi_startproc
 1568              		@ args = 0, pretend = 0, frame = 0
 1569              		@ frame_needed = 0, uses_anonymous_args = 0
 1570              		@ link register save eliminated.
 444:Middlewares/Third_Party/FreeRTOS/Source/timers.c **** 
 1571              		.loc 1 444 9 view .LVU395
 446:Middlewares/Third_Party/FreeRTOS/Source/timers.c ****         return pxTimer->xTimerPeriodInTicks;
 1572              		.loc 1 446 9 view .LVU396
 1573 0000 0028     		cmp	r0, #0
 1574 0002 01D0     		beq	.L118
 446:Middlewares/Third_Party/FreeRTOS/Source/timers.c ****         return pxTimer->xTimerPeriodInTicks;
 1575              		.loc 1 446 31 discriminator 2 view .LVU397
 447:Middlewares/Third_Party/FreeRTOS/Source/timers.c ****     }
 1576              		.loc 1 447 9 discriminator 2 view .LVU398
 447:Middlewares/Third_Party/FreeRTOS/Source/timers.c ****     }
 1577              		.loc 1 447 23 is_stmt 0 discriminator 2 view .LVU399
 1578 0004 8069     		ldr	r0, [r0, #24]
 1579              	.LVL142:
 448:Middlewares/Third_Party/FreeRTOS/Source/timers.c **** /*-----------------------------------------------------------*/
 1580              		.loc 1 448 5 discriminator 2 view .LVU400
 1581              		@ sp needed
ARM GAS  C:\Users\main\AppData\Local\Temp\ccYPpv0e.s 			page 52


 1582 0006 7047     		bx	lr
 1583              	.LVL143:
 1584              	.L118:
 446:Middlewares/Third_Party/FreeRTOS/Source/timers.c ****         return pxTimer->xTimerPeriodInTicks;
 1585              		.loc 1 446 9 is_stmt 1 discriminator 1 view .LVU401
 1586              		.syntax divided
 1587              	@ 446 "Middlewares/Third_Party/FreeRTOS/Source/timers.c" 1
 1588 0008 72B6     		 cpsid i 
 1589              	@ 0 "" 2
 1590              		.thumb
 1591              		.syntax unified
 1592              	.L117:
 446:Middlewares/Third_Party/FreeRTOS/Source/timers.c ****         return pxTimer->xTimerPeriodInTicks;
 1593              		.loc 1 446 9 discriminator 1 view .LVU402
 446:Middlewares/Third_Party/FreeRTOS/Source/timers.c ****         return pxTimer->xTimerPeriodInTicks;
 1594              		.loc 1 446 9 discriminator 1 view .LVU403
 446:Middlewares/Third_Party/FreeRTOS/Source/timers.c ****         return pxTimer->xTimerPeriodInTicks;
 1595              		.loc 1 446 9 discriminator 1 view .LVU404
 1596 000a FEE7     		b	.L117
 1597              		.cfi_endproc
 1598              	.LFE7:
 1600              		.section	.text.vTimerSetReloadMode,"ax",%progbits
 1601              		.align	1
 1602              		.global	vTimerSetReloadMode
 1603              		.syntax unified
 1604              		.code	16
 1605              		.thumb_func
 1607              	vTimerSetReloadMode:
 1608              	.LVL144:
 1609              	.LFB8:
 453:Middlewares/Third_Party/FreeRTOS/Source/timers.c ****         Timer_t * pxTimer = xTimer;
 1610              		.loc 1 453 5 view -0
 1611              		.cfi_startproc
 1612              		@ args = 0, pretend = 0, frame = 0
 1613              		@ frame_needed = 0, uses_anonymous_args = 0
 453:Middlewares/Third_Party/FreeRTOS/Source/timers.c ****         Timer_t * pxTimer = xTimer;
 1614              		.loc 1 453 5 is_stmt 0 view .LVU406
 1615 0000 70B5     		push	{r4, r5, r6, lr}
 1616              	.LCFI23:
 1617              		.cfi_def_cfa_offset 16
 1618              		.cfi_offset 4, -16
 1619              		.cfi_offset 5, -12
 1620              		.cfi_offset 6, -8
 1621              		.cfi_offset 14, -4
 1622 0002 0400     		movs	r4, r0
 1623 0004 0D00     		movs	r5, r1
 454:Middlewares/Third_Party/FreeRTOS/Source/timers.c **** 
 1624              		.loc 1 454 9 is_stmt 1 view .LVU407
 1625              	.LVL145:
 456:Middlewares/Third_Party/FreeRTOS/Source/timers.c ****         taskENTER_CRITICAL();
 1626              		.loc 1 456 9 view .LVU408
 1627 0006 0028     		cmp	r0, #0
 1628 0008 0BD0     		beq	.L124
 456:Middlewares/Third_Party/FreeRTOS/Source/timers.c ****         taskENTER_CRITICAL();
 1629              		.loc 1 456 31 discriminator 2 view .LVU409
 457:Middlewares/Third_Party/FreeRTOS/Source/timers.c ****         {
 1630              		.loc 1 457 9 discriminator 2 view .LVU410
ARM GAS  C:\Users\main\AppData\Local\Temp\ccYPpv0e.s 			page 53


 1631 000a FFF7FEFF 		bl	vPortEnterCritical
 1632              	.LVL146:
 459:Middlewares/Third_Party/FreeRTOS/Source/timers.c ****             {
 1633              		.loc 1 459 13 discriminator 2 view .LVU411
 459:Middlewares/Third_Party/FreeRTOS/Source/timers.c ****             {
 1634              		.loc 1 459 15 is_stmt 0 discriminator 2 view .LVU412
 1635 000e 002D     		cmp	r5, #0
 1636 0010 09D0     		beq	.L122
 461:Middlewares/Third_Party/FreeRTOS/Source/timers.c ****             }
 1637              		.loc 1 461 17 is_stmt 1 view .LVU413
 461:Middlewares/Third_Party/FreeRTOS/Source/timers.c ****             }
 1638              		.loc 1 461 35 is_stmt 0 view .LVU414
 1639 0012 2822     		movs	r2, #40
 1640 0014 A35C     		ldrb	r3, [r4, r2]
 1641 0016 0421     		movs	r1, #4
 1642 0018 0B43     		orrs	r3, r1
 1643 001a A354     		strb	r3, [r4, r2]
 1644              	.L123:
 468:Middlewares/Third_Party/FreeRTOS/Source/timers.c ****     }
 1645              		.loc 1 468 9 is_stmt 1 view .LVU415
 1646 001c FFF7FEFF 		bl	vPortExitCritical
 1647              	.LVL147:
 469:Middlewares/Third_Party/FreeRTOS/Source/timers.c **** /*-----------------------------------------------------------*/
 1648              		.loc 1 469 5 is_stmt 0 view .LVU416
 1649              		@ sp needed
 1650              	.LVL148:
 1651              	.LVL149:
 469:Middlewares/Third_Party/FreeRTOS/Source/timers.c **** /*-----------------------------------------------------------*/
 1652              		.loc 1 469 5 view .LVU417
 1653 0020 70BD     		pop	{r4, r5, r6, pc}
 1654              	.LVL150:
 1655              	.L124:
 456:Middlewares/Third_Party/FreeRTOS/Source/timers.c ****         taskENTER_CRITICAL();
 1656              		.loc 1 456 9 is_stmt 1 discriminator 1 view .LVU418
 1657              		.syntax divided
 1658              	@ 456 "Middlewares/Third_Party/FreeRTOS/Source/timers.c" 1
 1659 0022 72B6     		 cpsid i 
 1660              	@ 0 "" 2
 1661              		.thumb
 1662              		.syntax unified
 1663              	.L121:
 456:Middlewares/Third_Party/FreeRTOS/Source/timers.c ****         taskENTER_CRITICAL();
 1664              		.loc 1 456 9 discriminator 1 view .LVU419
 456:Middlewares/Third_Party/FreeRTOS/Source/timers.c ****         taskENTER_CRITICAL();
 1665              		.loc 1 456 9 discriminator 1 view .LVU420
 456:Middlewares/Third_Party/FreeRTOS/Source/timers.c ****         taskENTER_CRITICAL();
 1666              		.loc 1 456 9 discriminator 1 view .LVU421
 1667 0024 FEE7     		b	.L121
 1668              	.LVL151:
 1669              	.L122:
 465:Middlewares/Third_Party/FreeRTOS/Source/timers.c ****             }
 1670              		.loc 1 465 17 view .LVU422
 465:Middlewares/Third_Party/FreeRTOS/Source/timers.c ****             }
 1671              		.loc 1 465 35 is_stmt 0 view .LVU423
 1672 0026 2822     		movs	r2, #40
 1673 0028 A35C     		ldrb	r3, [r4, r2]
 1674 002a 0421     		movs	r1, #4
ARM GAS  C:\Users\main\AppData\Local\Temp\ccYPpv0e.s 			page 54


 1675 002c 8B43     		bics	r3, r1
 1676 002e A354     		strb	r3, [r4, r2]
 1677 0030 F4E7     		b	.L123
 1678              		.cfi_endproc
 1679              	.LFE8:
 1681              		.section	.text.xTimerGetReloadMode,"ax",%progbits
 1682              		.align	1
 1683              		.global	xTimerGetReloadMode
 1684              		.syntax unified
 1685              		.code	16
 1686              		.thumb_func
 1688              	xTimerGetReloadMode:
 1689              	.LVL152:
 1690              	.LFB9:
 473:Middlewares/Third_Party/FreeRTOS/Source/timers.c ****         Timer_t * pxTimer = xTimer;
 1691              		.loc 1 473 5 is_stmt 1 view -0
 1692              		.cfi_startproc
 1693              		@ args = 0, pretend = 0, frame = 0
 1694              		@ frame_needed = 0, uses_anonymous_args = 0
 473:Middlewares/Third_Party/FreeRTOS/Source/timers.c ****         Timer_t * pxTimer = xTimer;
 1695              		.loc 1 473 5 is_stmt 0 view .LVU425
 1696 0000 10B5     		push	{r4, lr}
 1697              	.LCFI24:
 1698              		.cfi_def_cfa_offset 8
 1699              		.cfi_offset 4, -8
 1700              		.cfi_offset 14, -4
 1701 0002 041E     		subs	r4, r0, #0
 474:Middlewares/Third_Party/FreeRTOS/Source/timers.c ****         BaseType_t xReturn;
 1702              		.loc 1 474 9 is_stmt 1 view .LVU426
 1703              	.LVL153:
 475:Middlewares/Third_Party/FreeRTOS/Source/timers.c **** 
 1704              		.loc 1 475 9 view .LVU427
 477:Middlewares/Third_Party/FreeRTOS/Source/timers.c ****         taskENTER_CRITICAL();
 1705              		.loc 1 477 9 view .LVU428
 1706 0004 0AD0     		beq	.L130
 477:Middlewares/Third_Party/FreeRTOS/Source/timers.c ****         taskENTER_CRITICAL();
 1707              		.loc 1 477 31 discriminator 2 view .LVU429
 478:Middlewares/Third_Party/FreeRTOS/Source/timers.c ****         {
 1708              		.loc 1 478 9 discriminator 2 view .LVU430
 1709 0006 FFF7FEFF 		bl	vPortEnterCritical
 1710              	.LVL154:
 480:Middlewares/Third_Party/FreeRTOS/Source/timers.c ****             {
 1711              		.loc 1 480 13 discriminator 2 view .LVU431
 480:Middlewares/Third_Party/FreeRTOS/Source/timers.c ****             {
 1712              		.loc 1 480 26 is_stmt 0 discriminator 2 view .LVU432
 1713 000a 2823     		movs	r3, #40
 1714 000c E35C     		ldrb	r3, [r4, r3]
 480:Middlewares/Third_Party/FreeRTOS/Source/timers.c ****             {
 1715              		.loc 1 480 15 discriminator 2 view .LVU433
 1716 000e 5B07     		lsls	r3, r3, #29
 1717 0010 06D4     		bmi	.L129
 483:Middlewares/Third_Party/FreeRTOS/Source/timers.c ****             }
 1718              		.loc 1 483 25 view .LVU434
 1719 0012 0024     		movs	r4, #0
 1720              	.LVL155:
 1721              	.L128:
 491:Middlewares/Third_Party/FreeRTOS/Source/timers.c **** 
ARM GAS  C:\Users\main\AppData\Local\Temp\ccYPpv0e.s 			page 55


 1722              		.loc 1 491 9 is_stmt 1 view .LVU435
 1723 0014 FFF7FEFF 		bl	vPortExitCritical
 1724              	.LVL156:
 493:Middlewares/Third_Party/FreeRTOS/Source/timers.c ****     }
 1725              		.loc 1 493 9 view .LVU436
 494:Middlewares/Third_Party/FreeRTOS/Source/timers.c **** 
 1726              		.loc 1 494 5 is_stmt 0 view .LVU437
 1727 0018 2000     		movs	r0, r4
 1728              		@ sp needed
 1729              	.LVL157:
 494:Middlewares/Third_Party/FreeRTOS/Source/timers.c **** 
 1730              		.loc 1 494 5 view .LVU438
 1731 001a 10BD     		pop	{r4, pc}
 1732              	.LVL158:
 1733              	.L130:
 477:Middlewares/Third_Party/FreeRTOS/Source/timers.c ****         taskENTER_CRITICAL();
 1734              		.loc 1 477 9 is_stmt 1 discriminator 1 view .LVU439
 1735              		.syntax divided
 1736              	@ 477 "Middlewares/Third_Party/FreeRTOS/Source/timers.c" 1
 1737 001c 72B6     		 cpsid i 
 1738              	@ 0 "" 2
 1739              		.thumb
 1740              		.syntax unified
 1741              	.L127:
 477:Middlewares/Third_Party/FreeRTOS/Source/timers.c ****         taskENTER_CRITICAL();
 1742              		.loc 1 477 9 discriminator 1 view .LVU440
 477:Middlewares/Third_Party/FreeRTOS/Source/timers.c ****         taskENTER_CRITICAL();
 1743              		.loc 1 477 9 discriminator 1 view .LVU441
 477:Middlewares/Third_Party/FreeRTOS/Source/timers.c ****         taskENTER_CRITICAL();
 1744              		.loc 1 477 9 discriminator 1 view .LVU442
 1745 001e FEE7     		b	.L127
 1746              	.LVL159:
 1747              	.L129:
 488:Middlewares/Third_Party/FreeRTOS/Source/timers.c ****             }
 1748              		.loc 1 488 25 is_stmt 0 view .LVU443
 1749 0020 0124     		movs	r4, #1
 1750              	.LVL160:
 488:Middlewares/Third_Party/FreeRTOS/Source/timers.c ****             }
 1751              		.loc 1 488 25 view .LVU444
 1752 0022 F7E7     		b	.L128
 1753              		.cfi_endproc
 1754              	.LFE9:
 1756              		.section	.text.uxTimerGetReloadMode,"ax",%progbits
 1757              		.align	1
 1758              		.global	uxTimerGetReloadMode
 1759              		.syntax unified
 1760              		.code	16
 1761              		.thumb_func
 1763              	uxTimerGetReloadMode:
 1764              	.LVL161:
 1765              	.LFB10:
 497:Middlewares/Third_Party/FreeRTOS/Source/timers.c ****         return ( UBaseType_t ) xTimerGetReloadMode( xTimer );
 1766              		.loc 1 497 5 is_stmt 1 view -0
 1767              		.cfi_startproc
 1768              		@ args = 0, pretend = 0, frame = 0
 1769              		@ frame_needed = 0, uses_anonymous_args = 0
 497:Middlewares/Third_Party/FreeRTOS/Source/timers.c ****         return ( UBaseType_t ) xTimerGetReloadMode( xTimer );
ARM GAS  C:\Users\main\AppData\Local\Temp\ccYPpv0e.s 			page 56


 1770              		.loc 1 497 5 is_stmt 0 view .LVU446
 1771 0000 10B5     		push	{r4, lr}
 1772              	.LCFI25:
 1773              		.cfi_def_cfa_offset 8
 1774              		.cfi_offset 4, -8
 1775              		.cfi_offset 14, -4
 498:Middlewares/Third_Party/FreeRTOS/Source/timers.c ****     }
 1776              		.loc 1 498 9 is_stmt 1 view .LVU447
 498:Middlewares/Third_Party/FreeRTOS/Source/timers.c ****     }
 1777              		.loc 1 498 32 is_stmt 0 view .LVU448
 1778 0002 FFF7FEFF 		bl	xTimerGetReloadMode
 1779              	.LVL162:
 499:Middlewares/Third_Party/FreeRTOS/Source/timers.c **** /*-----------------------------------------------------------*/
 1780              		.loc 1 499 5 view .LVU449
 1781              		@ sp needed
 1782 0006 10BD     		pop	{r4, pc}
 1783              		.cfi_endproc
 1784              	.LFE10:
 1786              		.section	.text.xTimerGetExpiryTime,"ax",%progbits
 1787              		.align	1
 1788              		.global	xTimerGetExpiryTime
 1789              		.syntax unified
 1790              		.code	16
 1791              		.thumb_func
 1793              	xTimerGetExpiryTime:
 1794              	.LVL163:
 1795              	.LFB11:
 503:Middlewares/Third_Party/FreeRTOS/Source/timers.c ****         Timer_t * pxTimer = xTimer;
 1796              		.loc 1 503 5 is_stmt 1 view -0
 1797              		.cfi_startproc
 1798              		@ args = 0, pretend = 0, frame = 0
 1799              		@ frame_needed = 0, uses_anonymous_args = 0
 1800              		@ link register save eliminated.
 504:Middlewares/Third_Party/FreeRTOS/Source/timers.c ****         TickType_t xReturn;
 1801              		.loc 1 504 9 view .LVU451
 505:Middlewares/Third_Party/FreeRTOS/Source/timers.c **** 
 1802              		.loc 1 505 9 view .LVU452
 507:Middlewares/Third_Party/FreeRTOS/Source/timers.c ****         xReturn = listGET_LIST_ITEM_VALUE( &( pxTimer->xTimerListItem ) );
 1803              		.loc 1 507 9 view .LVU453
 1804 0000 0028     		cmp	r0, #0
 1805 0002 01D0     		beq	.L135
 507:Middlewares/Third_Party/FreeRTOS/Source/timers.c ****         xReturn = listGET_LIST_ITEM_VALUE( &( pxTimer->xTimerListItem ) );
 1806              		.loc 1 507 31 discriminator 2 view .LVU454
 508:Middlewares/Third_Party/FreeRTOS/Source/timers.c ****         return xReturn;
 1807              		.loc 1 508 9 discriminator 2 view .LVU455
 508:Middlewares/Third_Party/FreeRTOS/Source/timers.c ****         return xReturn;
 1808              		.loc 1 508 17 is_stmt 0 discriminator 2 view .LVU456
 1809 0004 4068     		ldr	r0, [r0, #4]
 1810              	.LVL164:
 509:Middlewares/Third_Party/FreeRTOS/Source/timers.c ****     }
 1811              		.loc 1 509 9 is_stmt 1 discriminator 2 view .LVU457
 510:Middlewares/Third_Party/FreeRTOS/Source/timers.c **** /*-----------------------------------------------------------*/
 1812              		.loc 1 510 5 is_stmt 0 discriminator 2 view .LVU458
 1813              		@ sp needed
 1814 0006 7047     		bx	lr
 1815              	.LVL165:
 1816              	.L135:
ARM GAS  C:\Users\main\AppData\Local\Temp\ccYPpv0e.s 			page 57


 507:Middlewares/Third_Party/FreeRTOS/Source/timers.c ****         xReturn = listGET_LIST_ITEM_VALUE( &( pxTimer->xTimerListItem ) );
 1817              		.loc 1 507 9 is_stmt 1 discriminator 1 view .LVU459
 1818              		.syntax divided
 1819              	@ 507 "Middlewares/Third_Party/FreeRTOS/Source/timers.c" 1
 1820 0008 72B6     		 cpsid i 
 1821              	@ 0 "" 2
 1822              		.thumb
 1823              		.syntax unified
 1824              	.L134:
 507:Middlewares/Third_Party/FreeRTOS/Source/timers.c ****         xReturn = listGET_LIST_ITEM_VALUE( &( pxTimer->xTimerListItem ) );
 1825              		.loc 1 507 9 discriminator 1 view .LVU460
 507:Middlewares/Third_Party/FreeRTOS/Source/timers.c ****         xReturn = listGET_LIST_ITEM_VALUE( &( pxTimer->xTimerListItem ) );
 1826              		.loc 1 507 9 discriminator 1 view .LVU461
 507:Middlewares/Third_Party/FreeRTOS/Source/timers.c ****         xReturn = listGET_LIST_ITEM_VALUE( &( pxTimer->xTimerListItem ) );
 1827              		.loc 1 507 9 discriminator 1 view .LVU462
 1828 000a FEE7     		b	.L134
 1829              		.cfi_endproc
 1830              	.LFE11:
 1832              		.section	.text.xTimerGetStaticBuffer,"ax",%progbits
 1833              		.align	1
 1834              		.global	xTimerGetStaticBuffer
 1835              		.syntax unified
 1836              		.code	16
 1837              		.thumb_func
 1839              	xTimerGetStaticBuffer:
 1840              	.LVL166:
 1841              	.LFB12:
 516:Middlewares/Third_Party/FreeRTOS/Source/timers.c ****             BaseType_t xReturn;
 1842              		.loc 1 516 9 view -0
 1843              		.cfi_startproc
 1844              		@ args = 0, pretend = 0, frame = 0
 1845              		@ frame_needed = 0, uses_anonymous_args = 0
 1846              		@ link register save eliminated.
 517:Middlewares/Third_Party/FreeRTOS/Source/timers.c ****             Timer_t * pxTimer = xTimer;
 1847              		.loc 1 517 13 view .LVU464
 518:Middlewares/Third_Party/FreeRTOS/Source/timers.c **** 
 1848              		.loc 1 518 13 view .LVU465
 520:Middlewares/Third_Party/FreeRTOS/Source/timers.c **** 
 1849              		.loc 1 520 13 view .LVU466
 1850 0000 0029     		cmp	r1, #0
 1851 0002 06D0     		beq	.L141
 520:Middlewares/Third_Party/FreeRTOS/Source/timers.c **** 
 1852              		.loc 1 520 51 discriminator 2 view .LVU467
 522:Middlewares/Third_Party/FreeRTOS/Source/timers.c ****             {
 1853              		.loc 1 522 13 discriminator 2 view .LVU468
 522:Middlewares/Third_Party/FreeRTOS/Source/timers.c ****             {
 1854              		.loc 1 522 26 is_stmt 0 discriminator 2 view .LVU469
 1855 0004 2823     		movs	r3, #40
 1856 0006 C35C     		ldrb	r3, [r0, r3]
 522:Middlewares/Third_Party/FreeRTOS/Source/timers.c ****             {
 1857              		.loc 1 522 15 discriminator 2 view .LVU470
 1858 0008 9B07     		lsls	r3, r3, #30
 1859 000a 04D5     		bpl	.L140
 524:Middlewares/Third_Party/FreeRTOS/Source/timers.c ****                 xReturn = pdTRUE;
 1860              		.loc 1 524 17 is_stmt 1 view .LVU471
 524:Middlewares/Third_Party/FreeRTOS/Source/timers.c ****                 xReturn = pdTRUE;
 1861              		.loc 1 524 33 is_stmt 0 view .LVU472
ARM GAS  C:\Users\main\AppData\Local\Temp\ccYPpv0e.s 			page 58


 1862 000c 0860     		str	r0, [r1]
 525:Middlewares/Third_Party/FreeRTOS/Source/timers.c ****             }
 1863              		.loc 1 525 17 is_stmt 1 view .LVU473
 1864              	.LVL167:
 525:Middlewares/Third_Party/FreeRTOS/Source/timers.c ****             }
 1865              		.loc 1 525 25 is_stmt 0 view .LVU474
 1866 000e 0120     		movs	r0, #1
 1867              	.LVL168:
 1868              	.L136:
 533:Middlewares/Third_Party/FreeRTOS/Source/timers.c ****     #endif /* configSUPPORT_STATIC_ALLOCATION */
 1869              		.loc 1 533 9 view .LVU475
 1870              		@ sp needed
 1871 0010 7047     		bx	lr
 1872              	.LVL169:
 1873              	.L141:
 520:Middlewares/Third_Party/FreeRTOS/Source/timers.c **** 
 1874              		.loc 1 520 13 is_stmt 1 discriminator 1 view .LVU476
 1875              		.syntax divided
 1876              	@ 520 "Middlewares/Third_Party/FreeRTOS/Source/timers.c" 1
 1877 0012 72B6     		 cpsid i 
 1878              	@ 0 "" 2
 1879              		.thumb
 1880              		.syntax unified
 1881              	.L138:
 520:Middlewares/Third_Party/FreeRTOS/Source/timers.c **** 
 1882              		.loc 1 520 13 discriminator 1 view .LVU477
 520:Middlewares/Third_Party/FreeRTOS/Source/timers.c **** 
 1883              		.loc 1 520 13 discriminator 1 view .LVU478
 520:Middlewares/Third_Party/FreeRTOS/Source/timers.c **** 
 1884              		.loc 1 520 13 discriminator 1 view .LVU479
 1885 0014 FEE7     		b	.L138
 1886              	.L140:
 529:Middlewares/Third_Party/FreeRTOS/Source/timers.c ****             }
 1887              		.loc 1 529 25 is_stmt 0 view .LVU480
 1888 0016 0020     		movs	r0, #0
 1889              	.LVL170:
 532:Middlewares/Third_Party/FreeRTOS/Source/timers.c ****         }
 1890              		.loc 1 532 13 is_stmt 1 view .LVU481
 532:Middlewares/Third_Party/FreeRTOS/Source/timers.c ****         }
 1891              		.loc 1 532 20 is_stmt 0 view .LVU482
 1892 0018 FAE7     		b	.L136
 1893              		.cfi_endproc
 1894              	.LFE12:
 1896              		.section	.text.pcTimerGetName,"ax",%progbits
 1897              		.align	1
 1898              		.global	pcTimerGetName
 1899              		.syntax unified
 1900              		.code	16
 1901              		.thumb_func
 1903              	pcTimerGetName:
 1904              	.LVL171:
 1905              	.LFB13:
 538:Middlewares/Third_Party/FreeRTOS/Source/timers.c ****         Timer_t * pxTimer = xTimer;
 1906              		.loc 1 538 5 is_stmt 1 view -0
 1907              		.cfi_startproc
 1908              		@ args = 0, pretend = 0, frame = 0
 1909              		@ frame_needed = 0, uses_anonymous_args = 0
ARM GAS  C:\Users\main\AppData\Local\Temp\ccYPpv0e.s 			page 59


 1910              		@ link register save eliminated.
 539:Middlewares/Third_Party/FreeRTOS/Source/timers.c **** 
 1911              		.loc 1 539 9 view .LVU484
 541:Middlewares/Third_Party/FreeRTOS/Source/timers.c ****         return pxTimer->pcTimerName;
 1912              		.loc 1 541 9 view .LVU485
 1913 0000 0028     		cmp	r0, #0
 1914 0002 01D0     		beq	.L145
 541:Middlewares/Third_Party/FreeRTOS/Source/timers.c ****         return pxTimer->pcTimerName;
 1915              		.loc 1 541 31 discriminator 2 view .LVU486
 542:Middlewares/Third_Party/FreeRTOS/Source/timers.c ****     }
 1916              		.loc 1 542 9 discriminator 2 view .LVU487
 542:Middlewares/Third_Party/FreeRTOS/Source/timers.c ****     }
 1917              		.loc 1 542 23 is_stmt 0 discriminator 2 view .LVU488
 1918 0004 0068     		ldr	r0, [r0]
 1919              	.LVL172:
 543:Middlewares/Third_Party/FreeRTOS/Source/timers.c **** /*-----------------------------------------------------------*/
 1920              		.loc 1 543 5 discriminator 2 view .LVU489
 1921              		@ sp needed
 1922 0006 7047     		bx	lr
 1923              	.LVL173:
 1924              	.L145:
 541:Middlewares/Third_Party/FreeRTOS/Source/timers.c ****         return pxTimer->pcTimerName;
 1925              		.loc 1 541 9 is_stmt 1 discriminator 1 view .LVU490
 1926              		.syntax divided
 1927              	@ 541 "Middlewares/Third_Party/FreeRTOS/Source/timers.c" 1
 1928 0008 72B6     		 cpsid i 
 1929              	@ 0 "" 2
 1930              		.thumb
 1931              		.syntax unified
 1932              	.L144:
 541:Middlewares/Third_Party/FreeRTOS/Source/timers.c ****         return pxTimer->pcTimerName;
 1933              		.loc 1 541 9 discriminator 1 view .LVU491
 541:Middlewares/Third_Party/FreeRTOS/Source/timers.c ****         return pxTimer->pcTimerName;
 1934              		.loc 1 541 9 discriminator 1 view .LVU492
 541:Middlewares/Third_Party/FreeRTOS/Source/timers.c ****         return pxTimer->pcTimerName;
 1935              		.loc 1 541 9 discriminator 1 view .LVU493
 1936 000a FEE7     		b	.L144
 1937              		.cfi_endproc
 1938              	.LFE13:
 1940              		.section	.text.xTimerIsTimerActive,"ax",%progbits
 1941              		.align	1
 1942              		.global	xTimerIsTimerActive
 1943              		.syntax unified
 1944              		.code	16
 1945              		.thumb_func
 1947              	xTimerIsTimerActive:
 1948              	.LVL174:
 1949              	.LFB24:
1004:Middlewares/Third_Party/FreeRTOS/Source/timers.c **** /*-----------------------------------------------------------*/
1005:Middlewares/Third_Party/FreeRTOS/Source/timers.c **** 
1006:Middlewares/Third_Party/FreeRTOS/Source/timers.c ****     BaseType_t xTimerIsTimerActive( TimerHandle_t xTimer )
1007:Middlewares/Third_Party/FreeRTOS/Source/timers.c ****     {
 1950              		.loc 1 1007 5 view -0
 1951              		.cfi_startproc
 1952              		@ args = 0, pretend = 0, frame = 0
 1953              		@ frame_needed = 0, uses_anonymous_args = 0
 1954              		.loc 1 1007 5 is_stmt 0 view .LVU495
ARM GAS  C:\Users\main\AppData\Local\Temp\ccYPpv0e.s 			page 60


 1955 0000 10B5     		push	{r4, lr}
 1956              	.LCFI26:
 1957              		.cfi_def_cfa_offset 8
 1958              		.cfi_offset 4, -8
 1959              		.cfi_offset 14, -4
 1960 0002 041E     		subs	r4, r0, #0
1008:Middlewares/Third_Party/FreeRTOS/Source/timers.c ****         BaseType_t xReturn;
 1961              		.loc 1 1008 9 is_stmt 1 view .LVU496
1009:Middlewares/Third_Party/FreeRTOS/Source/timers.c ****         Timer_t * pxTimer = xTimer;
 1962              		.loc 1 1009 9 view .LVU497
 1963              	.LVL175:
1010:Middlewares/Third_Party/FreeRTOS/Source/timers.c **** 
1011:Middlewares/Third_Party/FreeRTOS/Source/timers.c ****         configASSERT( xTimer );
 1964              		.loc 1 1011 9 view .LVU498
 1965 0004 0AD0     		beq	.L151
 1966              		.loc 1 1011 31 discriminator 2 view .LVU499
1012:Middlewares/Third_Party/FreeRTOS/Source/timers.c **** 
1013:Middlewares/Third_Party/FreeRTOS/Source/timers.c ****         /* Is the timer in the list of active timers? */
1014:Middlewares/Third_Party/FreeRTOS/Source/timers.c ****         taskENTER_CRITICAL();
 1967              		.loc 1 1014 9 discriminator 2 view .LVU500
 1968 0006 FFF7FEFF 		bl	vPortEnterCritical
 1969              	.LVL176:
1015:Middlewares/Third_Party/FreeRTOS/Source/timers.c ****         {
1016:Middlewares/Third_Party/FreeRTOS/Source/timers.c ****             if( ( pxTimer->ucStatus & tmrSTATUS_IS_ACTIVE ) == 0 )
 1970              		.loc 1 1016 13 discriminator 2 view .LVU501
 1971              		.loc 1 1016 26 is_stmt 0 discriminator 2 view .LVU502
 1972 000a 2823     		movs	r3, #40
 1973 000c E35C     		ldrb	r3, [r4, r3]
 1974              		.loc 1 1016 15 discriminator 2 view .LVU503
 1975 000e DB07     		lsls	r3, r3, #31
 1976 0010 06D4     		bmi	.L150
1017:Middlewares/Third_Party/FreeRTOS/Source/timers.c ****             {
1018:Middlewares/Third_Party/FreeRTOS/Source/timers.c ****                 xReturn = pdFALSE;
 1977              		.loc 1 1018 25 view .LVU504
 1978 0012 0024     		movs	r4, #0
 1979              	.LVL177:
 1980              	.L149:
1019:Middlewares/Third_Party/FreeRTOS/Source/timers.c ****             }
1020:Middlewares/Third_Party/FreeRTOS/Source/timers.c ****             else
1021:Middlewares/Third_Party/FreeRTOS/Source/timers.c ****             {
1022:Middlewares/Third_Party/FreeRTOS/Source/timers.c ****                 xReturn = pdTRUE;
1023:Middlewares/Third_Party/FreeRTOS/Source/timers.c ****             }
1024:Middlewares/Third_Party/FreeRTOS/Source/timers.c ****         }
1025:Middlewares/Third_Party/FreeRTOS/Source/timers.c ****         taskEXIT_CRITICAL();
 1981              		.loc 1 1025 9 is_stmt 1 view .LVU505
 1982 0014 FFF7FEFF 		bl	vPortExitCritical
 1983              	.LVL178:
1026:Middlewares/Third_Party/FreeRTOS/Source/timers.c **** 
1027:Middlewares/Third_Party/FreeRTOS/Source/timers.c ****         return xReturn;
 1984              		.loc 1 1027 9 view .LVU506
1028:Middlewares/Third_Party/FreeRTOS/Source/timers.c ****     } /*lint !e818 Can't be pointer to const due to the typedef. */
 1985              		.loc 1 1028 5 is_stmt 0 view .LVU507
 1986 0018 2000     		movs	r0, r4
 1987              		@ sp needed
 1988              	.LVL179:
 1989              		.loc 1 1028 5 view .LVU508
 1990 001a 10BD     		pop	{r4, pc}
ARM GAS  C:\Users\main\AppData\Local\Temp\ccYPpv0e.s 			page 61


 1991              	.LVL180:
 1992              	.L151:
1011:Middlewares/Third_Party/FreeRTOS/Source/timers.c **** 
 1993              		.loc 1 1011 9 is_stmt 1 discriminator 1 view .LVU509
 1994              		.syntax divided
 1995              	@ 1011 "Middlewares/Third_Party/FreeRTOS/Source/timers.c" 1
 1996 001c 72B6     		 cpsid i 
 1997              	@ 0 "" 2
 1998              		.thumb
 1999              		.syntax unified
 2000              	.L148:
1011:Middlewares/Third_Party/FreeRTOS/Source/timers.c **** 
 2001              		.loc 1 1011 9 discriminator 1 view .LVU510
1011:Middlewares/Third_Party/FreeRTOS/Source/timers.c **** 
 2002              		.loc 1 1011 9 discriminator 1 view .LVU511
1011:Middlewares/Third_Party/FreeRTOS/Source/timers.c **** 
 2003              		.loc 1 1011 9 discriminator 1 view .LVU512
 2004 001e FEE7     		b	.L148
 2005              	.LVL181:
 2006              	.L150:
1022:Middlewares/Third_Party/FreeRTOS/Source/timers.c ****             }
 2007              		.loc 1 1022 25 is_stmt 0 view .LVU513
 2008 0020 0124     		movs	r4, #1
 2009              	.LVL182:
1022:Middlewares/Third_Party/FreeRTOS/Source/timers.c ****             }
 2010              		.loc 1 1022 25 view .LVU514
 2011 0022 F7E7     		b	.L149
 2012              		.cfi_endproc
 2013              	.LFE24:
 2015              		.section	.text.pvTimerGetTimerID,"ax",%progbits
 2016              		.align	1
 2017              		.global	pvTimerGetTimerID
 2018              		.syntax unified
 2019              		.code	16
 2020              		.thumb_func
 2022              	pvTimerGetTimerID:
 2023              	.LVL183:
 2024              	.LFB25:
1029:Middlewares/Third_Party/FreeRTOS/Source/timers.c **** /*-----------------------------------------------------------*/
1030:Middlewares/Third_Party/FreeRTOS/Source/timers.c **** 
1031:Middlewares/Third_Party/FreeRTOS/Source/timers.c ****     void * pvTimerGetTimerID( const TimerHandle_t xTimer )
1032:Middlewares/Third_Party/FreeRTOS/Source/timers.c ****     {
 2025              		.loc 1 1032 5 is_stmt 1 view -0
 2026              		.cfi_startproc
 2027              		@ args = 0, pretend = 0, frame = 0
 2028              		@ frame_needed = 0, uses_anonymous_args = 0
 2029              		.loc 1 1032 5 is_stmt 0 view .LVU516
 2030 0000 10B5     		push	{r4, lr}
 2031              	.LCFI27:
 2032              		.cfi_def_cfa_offset 8
 2033              		.cfi_offset 4, -8
 2034              		.cfi_offset 14, -4
 2035 0002 041E     		subs	r4, r0, #0
1033:Middlewares/Third_Party/FreeRTOS/Source/timers.c ****         Timer_t * const pxTimer = xTimer;
 2036              		.loc 1 1033 9 is_stmt 1 view .LVU517
 2037              	.LVL184:
1034:Middlewares/Third_Party/FreeRTOS/Source/timers.c ****         void * pvReturn;
ARM GAS  C:\Users\main\AppData\Local\Temp\ccYPpv0e.s 			page 62


 2038              		.loc 1 1034 9 view .LVU518
1035:Middlewares/Third_Party/FreeRTOS/Source/timers.c **** 
1036:Middlewares/Third_Party/FreeRTOS/Source/timers.c ****         configASSERT( xTimer );
 2039              		.loc 1 1036 9 view .LVU519
 2040 0004 06D0     		beq	.L155
 2041              		.loc 1 1036 31 discriminator 2 view .LVU520
1037:Middlewares/Third_Party/FreeRTOS/Source/timers.c **** 
1038:Middlewares/Third_Party/FreeRTOS/Source/timers.c ****         taskENTER_CRITICAL();
 2042              		.loc 1 1038 9 discriminator 2 view .LVU521
 2043 0006 FFF7FEFF 		bl	vPortEnterCritical
 2044              	.LVL185:
1039:Middlewares/Third_Party/FreeRTOS/Source/timers.c ****         {
1040:Middlewares/Third_Party/FreeRTOS/Source/timers.c ****             pvReturn = pxTimer->pvTimerID;
 2045              		.loc 1 1040 13 discriminator 2 view .LVU522
 2046              		.loc 1 1040 22 is_stmt 0 discriminator 2 view .LVU523
 2047 000a E469     		ldr	r4, [r4, #28]
 2048              	.LVL186:
1041:Middlewares/Third_Party/FreeRTOS/Source/timers.c ****         }
1042:Middlewares/Third_Party/FreeRTOS/Source/timers.c ****         taskEXIT_CRITICAL();
 2049              		.loc 1 1042 9 is_stmt 1 discriminator 2 view .LVU524
 2050 000c FFF7FEFF 		bl	vPortExitCritical
 2051              	.LVL187:
1043:Middlewares/Third_Party/FreeRTOS/Source/timers.c **** 
1044:Middlewares/Third_Party/FreeRTOS/Source/timers.c ****         return pvReturn;
 2052              		.loc 1 1044 9 discriminator 2 view .LVU525
1045:Middlewares/Third_Party/FreeRTOS/Source/timers.c ****     }
 2053              		.loc 1 1045 5 is_stmt 0 discriminator 2 view .LVU526
 2054 0010 2000     		movs	r0, r4
 2055              		@ sp needed
 2056              	.LVL188:
 2057              		.loc 1 1045 5 discriminator 2 view .LVU527
 2058 0012 10BD     		pop	{r4, pc}
 2059              	.LVL189:
 2060              	.L155:
1036:Middlewares/Third_Party/FreeRTOS/Source/timers.c **** 
 2061              		.loc 1 1036 9 is_stmt 1 discriminator 1 view .LVU528
 2062              		.syntax divided
 2063              	@ 1036 "Middlewares/Third_Party/FreeRTOS/Source/timers.c" 1
 2064 0014 72B6     		 cpsid i 
 2065              	@ 0 "" 2
 2066              		.thumb
 2067              		.syntax unified
 2068              	.L154:
1036:Middlewares/Third_Party/FreeRTOS/Source/timers.c **** 
 2069              		.loc 1 1036 9 discriminator 1 view .LVU529
1036:Middlewares/Third_Party/FreeRTOS/Source/timers.c **** 
 2070              		.loc 1 1036 9 discriminator 1 view .LVU530
1036:Middlewares/Third_Party/FreeRTOS/Source/timers.c **** 
 2071              		.loc 1 1036 9 discriminator 1 view .LVU531
 2072 0016 FEE7     		b	.L154
 2073              		.cfi_endproc
 2074              	.LFE25:
 2076              		.section	.text.vTimerSetTimerID,"ax",%progbits
 2077              		.align	1
 2078              		.global	vTimerSetTimerID
 2079              		.syntax unified
 2080              		.code	16
ARM GAS  C:\Users\main\AppData\Local\Temp\ccYPpv0e.s 			page 63


 2081              		.thumb_func
 2083              	vTimerSetTimerID:
 2084              	.LVL190:
 2085              	.LFB26:
1046:Middlewares/Third_Party/FreeRTOS/Source/timers.c **** /*-----------------------------------------------------------*/
1047:Middlewares/Third_Party/FreeRTOS/Source/timers.c **** 
1048:Middlewares/Third_Party/FreeRTOS/Source/timers.c ****     void vTimerSetTimerID( TimerHandle_t xTimer,
1049:Middlewares/Third_Party/FreeRTOS/Source/timers.c ****                            void * pvNewID )
1050:Middlewares/Third_Party/FreeRTOS/Source/timers.c ****     {
 2086              		.loc 1 1050 5 view -0
 2087              		.cfi_startproc
 2088              		@ args = 0, pretend = 0, frame = 0
 2089              		@ frame_needed = 0, uses_anonymous_args = 0
 2090              		.loc 1 1050 5 is_stmt 0 view .LVU533
 2091 0000 70B5     		push	{r4, r5, r6, lr}
 2092              	.LCFI28:
 2093              		.cfi_def_cfa_offset 16
 2094              		.cfi_offset 4, -16
 2095              		.cfi_offset 5, -12
 2096              		.cfi_offset 6, -8
 2097              		.cfi_offset 14, -4
 2098 0002 0400     		movs	r4, r0
 2099 0004 0D00     		movs	r5, r1
1051:Middlewares/Third_Party/FreeRTOS/Source/timers.c ****         Timer_t * const pxTimer = xTimer;
 2100              		.loc 1 1051 9 is_stmt 1 view .LVU534
 2101              	.LVL191:
1052:Middlewares/Third_Party/FreeRTOS/Source/timers.c **** 
1053:Middlewares/Third_Party/FreeRTOS/Source/timers.c ****         configASSERT( xTimer );
 2102              		.loc 1 1053 9 view .LVU535
 2103 0006 0028     		cmp	r0, #0
 2104 0008 05D0     		beq	.L159
 2105              		.loc 1 1053 31 discriminator 2 view .LVU536
1054:Middlewares/Third_Party/FreeRTOS/Source/timers.c **** 
1055:Middlewares/Third_Party/FreeRTOS/Source/timers.c ****         taskENTER_CRITICAL();
 2106              		.loc 1 1055 9 discriminator 2 view .LVU537
 2107 000a FFF7FEFF 		bl	vPortEnterCritical
 2108              	.LVL192:
1056:Middlewares/Third_Party/FreeRTOS/Source/timers.c ****         {
1057:Middlewares/Third_Party/FreeRTOS/Source/timers.c ****             pxTimer->pvTimerID = pvNewID;
 2109              		.loc 1 1057 13 discriminator 2 view .LVU538
 2110              		.loc 1 1057 32 is_stmt 0 discriminator 2 view .LVU539
 2111 000e E561     		str	r5, [r4, #28]
1058:Middlewares/Third_Party/FreeRTOS/Source/timers.c ****         }
1059:Middlewares/Third_Party/FreeRTOS/Source/timers.c ****         taskEXIT_CRITICAL();
 2112              		.loc 1 1059 9 is_stmt 1 discriminator 2 view .LVU540
 2113 0010 FFF7FEFF 		bl	vPortExitCritical
 2114              	.LVL193:
1060:Middlewares/Third_Party/FreeRTOS/Source/timers.c ****     }
 2115              		.loc 1 1060 5 is_stmt 0 discriminator 2 view .LVU541
 2116              		@ sp needed
 2117              	.LVL194:
 2118              	.LVL195:
 2119              		.loc 1 1060 5 discriminator 2 view .LVU542
 2120 0014 70BD     		pop	{r4, r5, r6, pc}
 2121              	.LVL196:
 2122              	.L159:
1053:Middlewares/Third_Party/FreeRTOS/Source/timers.c **** 
ARM GAS  C:\Users\main\AppData\Local\Temp\ccYPpv0e.s 			page 64


 2123              		.loc 1 1053 9 is_stmt 1 discriminator 1 view .LVU543
 2124              		.syntax divided
 2125              	@ 1053 "Middlewares/Third_Party/FreeRTOS/Source/timers.c" 1
 2126 0016 72B6     		 cpsid i 
 2127              	@ 0 "" 2
 2128              		.thumb
 2129              		.syntax unified
 2130              	.L158:
1053:Middlewares/Third_Party/FreeRTOS/Source/timers.c **** 
 2131              		.loc 1 1053 9 discriminator 1 view .LVU544
1053:Middlewares/Third_Party/FreeRTOS/Source/timers.c **** 
 2132              		.loc 1 1053 9 discriminator 1 view .LVU545
1053:Middlewares/Third_Party/FreeRTOS/Source/timers.c **** 
 2133              		.loc 1 1053 9 discriminator 1 view .LVU546
 2134 0018 FEE7     		b	.L158
 2135              		.cfi_endproc
 2136              	.LFE26:
 2138              		.section	.text.xTimerPendFunctionCallFromISR,"ax",%progbits
 2139              		.align	1
 2140              		.global	xTimerPendFunctionCallFromISR
 2141              		.syntax unified
 2142              		.code	16
 2143              		.thumb_func
 2145              	xTimerPendFunctionCallFromISR:
 2146              	.LVL197:
 2147              	.LFB27:
1061:Middlewares/Third_Party/FreeRTOS/Source/timers.c **** /*-----------------------------------------------------------*/
1062:Middlewares/Third_Party/FreeRTOS/Source/timers.c **** 
1063:Middlewares/Third_Party/FreeRTOS/Source/timers.c ****     #if ( INCLUDE_xTimerPendFunctionCall == 1 )
1064:Middlewares/Third_Party/FreeRTOS/Source/timers.c **** 
1065:Middlewares/Third_Party/FreeRTOS/Source/timers.c ****         BaseType_t xTimerPendFunctionCallFromISR( PendedFunction_t xFunctionToPend,
1066:Middlewares/Third_Party/FreeRTOS/Source/timers.c ****                                                   void * pvParameter1,
1067:Middlewares/Third_Party/FreeRTOS/Source/timers.c ****                                                   uint32_t ulParameter2,
1068:Middlewares/Third_Party/FreeRTOS/Source/timers.c ****                                                   BaseType_t * pxHigherPriorityTaskWoken )
1069:Middlewares/Third_Party/FreeRTOS/Source/timers.c ****         {
 2148              		.loc 1 1069 9 view -0
 2149              		.cfi_startproc
 2150              		@ args = 0, pretend = 0, frame = 16
 2151              		@ frame_needed = 0, uses_anonymous_args = 0
 2152              		.loc 1 1069 9 is_stmt 0 view .LVU548
 2153 0000 10B5     		push	{r4, lr}
 2154              	.LCFI29:
 2155              		.cfi_def_cfa_offset 8
 2156              		.cfi_offset 4, -8
 2157              		.cfi_offset 14, -4
 2158 0002 84B0     		sub	sp, sp, #16
 2159              	.LCFI30:
 2160              		.cfi_def_cfa_offset 24
 2161 0004 1400     		movs	r4, r2
 2162 0006 1A00     		movs	r2, r3
 2163              	.LVL198:
1070:Middlewares/Third_Party/FreeRTOS/Source/timers.c ****             DaemonTaskMessage_t xMessage;
 2164              		.loc 1 1070 13 is_stmt 1 view .LVU549
1071:Middlewares/Third_Party/FreeRTOS/Source/timers.c ****             BaseType_t xReturn;
 2165              		.loc 1 1071 13 view .LVU550
1072:Middlewares/Third_Party/FreeRTOS/Source/timers.c **** 
1073:Middlewares/Third_Party/FreeRTOS/Source/timers.c ****             /* Complete the message with the function parameters and post it to the
ARM GAS  C:\Users\main\AppData\Local\Temp\ccYPpv0e.s 			page 65


1074:Middlewares/Third_Party/FreeRTOS/Source/timers.c ****              * daemon task. */
1075:Middlewares/Third_Party/FreeRTOS/Source/timers.c ****             xMessage.xMessageID = tmrCOMMAND_EXECUTE_CALLBACK_FROM_ISR;
 2166              		.loc 1 1075 13 view .LVU551
 2167              		.loc 1 1075 33 is_stmt 0 view .LVU552
 2168 0008 0223     		movs	r3, #2
 2169              	.LVL199:
 2170              		.loc 1 1075 33 view .LVU553
 2171 000a 5B42     		rsbs	r3, r3, #0
 2172 000c 0093     		str	r3, [sp]
1076:Middlewares/Third_Party/FreeRTOS/Source/timers.c ****             xMessage.u.xCallbackParameters.pxCallbackFunction = xFunctionToPend;
 2173              		.loc 1 1076 13 is_stmt 1 view .LVU554
 2174              		.loc 1 1076 63 is_stmt 0 view .LVU555
 2175 000e 0190     		str	r0, [sp, #4]
1077:Middlewares/Third_Party/FreeRTOS/Source/timers.c ****             xMessage.u.xCallbackParameters.pvParameter1 = pvParameter1;
 2176              		.loc 1 1077 13 is_stmt 1 view .LVU556
 2177              		.loc 1 1077 57 is_stmt 0 view .LVU557
 2178 0010 0291     		str	r1, [sp, #8]
1078:Middlewares/Third_Party/FreeRTOS/Source/timers.c ****             xMessage.u.xCallbackParameters.ulParameter2 = ulParameter2;
 2179              		.loc 1 1078 13 is_stmt 1 view .LVU558
 2180              		.loc 1 1078 57 is_stmt 0 view .LVU559
 2181 0012 0394     		str	r4, [sp, #12]
1079:Middlewares/Third_Party/FreeRTOS/Source/timers.c **** 
1080:Middlewares/Third_Party/FreeRTOS/Source/timers.c ****             xReturn = xQueueSendFromISR( xTimerQueue, &xMessage, pxHigherPriorityTaskWoken );
 2182              		.loc 1 1080 13 is_stmt 1 view .LVU560
 2183              		.loc 1 1080 23 is_stmt 0 view .LVU561
 2184 0014 034B     		ldr	r3, .L161
 2185 0016 1868     		ldr	r0, [r3]
 2186              	.LVL200:
 2187              		.loc 1 1080 23 view .LVU562
 2188 0018 0023     		movs	r3, #0
 2189 001a 6946     		mov	r1, sp
 2190              	.LVL201:
 2191              		.loc 1 1080 23 view .LVU563
 2192 001c FFF7FEFF 		bl	xQueueGenericSendFromISR
 2193              	.LVL202:
1081:Middlewares/Third_Party/FreeRTOS/Source/timers.c **** 
1082:Middlewares/Third_Party/FreeRTOS/Source/timers.c ****             tracePEND_FUNC_CALL_FROM_ISR( xFunctionToPend, pvParameter1, ulParameter2, xReturn );
 2194              		.loc 1 1082 97 is_stmt 1 view .LVU564
1083:Middlewares/Third_Party/FreeRTOS/Source/timers.c **** 
1084:Middlewares/Third_Party/FreeRTOS/Source/timers.c ****             return xReturn;
 2195              		.loc 1 1084 13 view .LVU565
1085:Middlewares/Third_Party/FreeRTOS/Source/timers.c ****         }
 2196              		.loc 1 1085 9 is_stmt 0 view .LVU566
 2197 0020 04B0     		add	sp, sp, #16
 2198              		@ sp needed
 2199              	.LVL203:
 2200              		.loc 1 1085 9 view .LVU567
 2201 0022 10BD     		pop	{r4, pc}
 2202              	.L162:
 2203              		.align	2
 2204              	.L161:
 2205 0024 00000000 		.word	.LANCHOR3
 2206              		.cfi_endproc
 2207              	.LFE27:
 2209              		.section	.text.xTimerPendFunctionCall,"ax",%progbits
 2210              		.align	1
 2211              		.global	xTimerPendFunctionCall
ARM GAS  C:\Users\main\AppData\Local\Temp\ccYPpv0e.s 			page 66


 2212              		.syntax unified
 2213              		.code	16
 2214              		.thumb_func
 2216              	xTimerPendFunctionCall:
 2217              	.LVL204:
 2218              	.LFB28:
1086:Middlewares/Third_Party/FreeRTOS/Source/timers.c **** 
1087:Middlewares/Third_Party/FreeRTOS/Source/timers.c ****     #endif /* INCLUDE_xTimerPendFunctionCall */
1088:Middlewares/Third_Party/FreeRTOS/Source/timers.c **** /*-----------------------------------------------------------*/
1089:Middlewares/Third_Party/FreeRTOS/Source/timers.c **** 
1090:Middlewares/Third_Party/FreeRTOS/Source/timers.c ****     #if ( INCLUDE_xTimerPendFunctionCall == 1 )
1091:Middlewares/Third_Party/FreeRTOS/Source/timers.c **** 
1092:Middlewares/Third_Party/FreeRTOS/Source/timers.c ****         BaseType_t xTimerPendFunctionCall( PendedFunction_t xFunctionToPend,
1093:Middlewares/Third_Party/FreeRTOS/Source/timers.c ****                                            void * pvParameter1,
1094:Middlewares/Third_Party/FreeRTOS/Source/timers.c ****                                            uint32_t ulParameter2,
1095:Middlewares/Third_Party/FreeRTOS/Source/timers.c ****                                            TickType_t xTicksToWait )
1096:Middlewares/Third_Party/FreeRTOS/Source/timers.c ****         {
 2219              		.loc 1 1096 9 is_stmt 1 view -0
 2220              		.cfi_startproc
 2221              		@ args = 0, pretend = 0, frame = 16
 2222              		@ frame_needed = 0, uses_anonymous_args = 0
 2223              		.loc 1 1096 9 is_stmt 0 view .LVU569
 2224 0000 30B5     		push	{r4, r5, lr}
 2225              	.LCFI31:
 2226              		.cfi_def_cfa_offset 12
 2227              		.cfi_offset 4, -12
 2228              		.cfi_offset 5, -8
 2229              		.cfi_offset 14, -4
 2230 0002 85B0     		sub	sp, sp, #20
 2231              	.LCFI32:
 2232              		.cfi_def_cfa_offset 32
 2233 0004 0400     		movs	r4, r0
 2234 0006 1500     		movs	r5, r2
 2235 0008 1A00     		movs	r2, r3
 2236              	.LVL205:
1097:Middlewares/Third_Party/FreeRTOS/Source/timers.c ****             DaemonTaskMessage_t xMessage;
 2237              		.loc 1 1097 13 is_stmt 1 view .LVU570
1098:Middlewares/Third_Party/FreeRTOS/Source/timers.c ****             BaseType_t xReturn;
 2238              		.loc 1 1098 13 view .LVU571
1099:Middlewares/Third_Party/FreeRTOS/Source/timers.c **** 
1100:Middlewares/Third_Party/FreeRTOS/Source/timers.c ****             /* This function can only be called after a timer has been created or
1101:Middlewares/Third_Party/FreeRTOS/Source/timers.c ****              * after the scheduler has been started because, until then, the timer
1102:Middlewares/Third_Party/FreeRTOS/Source/timers.c ****              * queue does not exist. */
1103:Middlewares/Third_Party/FreeRTOS/Source/timers.c ****             configASSERT( xTimerQueue );
 2239              		.loc 1 1103 13 view .LVU572
 2240 000a 094B     		ldr	r3, .L167
 2241              	.LVL206:
 2242              		.loc 1 1103 13 is_stmt 0 view .LVU573
 2243 000c 1868     		ldr	r0, [r3]
 2244              	.LVL207:
 2245              		.loc 1 1103 13 view .LVU574
 2246 000e 0028     		cmp	r0, #0
 2247 0010 0BD0     		beq	.L166
 2248              		.loc 1 1103 40 is_stmt 1 discriminator 2 view .LVU575
1104:Middlewares/Third_Party/FreeRTOS/Source/timers.c **** 
1105:Middlewares/Third_Party/FreeRTOS/Source/timers.c ****             /* Complete the message with the function parameters and post it to the
1106:Middlewares/Third_Party/FreeRTOS/Source/timers.c ****              * daemon task. */
ARM GAS  C:\Users\main\AppData\Local\Temp\ccYPpv0e.s 			page 67


1107:Middlewares/Third_Party/FreeRTOS/Source/timers.c ****             xMessage.xMessageID = tmrCOMMAND_EXECUTE_CALLBACK;
 2249              		.loc 1 1107 13 discriminator 2 view .LVU576
 2250              		.loc 1 1107 33 is_stmt 0 discriminator 2 view .LVU577
 2251 0012 0123     		movs	r3, #1
 2252 0014 5B42     		rsbs	r3, r3, #0
 2253 0016 0093     		str	r3, [sp]
1108:Middlewares/Third_Party/FreeRTOS/Source/timers.c ****             xMessage.u.xCallbackParameters.pxCallbackFunction = xFunctionToPend;
 2254              		.loc 1 1108 13 is_stmt 1 discriminator 2 view .LVU578
 2255              		.loc 1 1108 63 is_stmt 0 discriminator 2 view .LVU579
 2256 0018 0194     		str	r4, [sp, #4]
1109:Middlewares/Third_Party/FreeRTOS/Source/timers.c ****             xMessage.u.xCallbackParameters.pvParameter1 = pvParameter1;
 2257              		.loc 1 1109 13 is_stmt 1 discriminator 2 view .LVU580
 2258              		.loc 1 1109 57 is_stmt 0 discriminator 2 view .LVU581
 2259 001a 0291     		str	r1, [sp, #8]
1110:Middlewares/Third_Party/FreeRTOS/Source/timers.c ****             xMessage.u.xCallbackParameters.ulParameter2 = ulParameter2;
 2260              		.loc 1 1110 13 is_stmt 1 discriminator 2 view .LVU582
 2261              		.loc 1 1110 57 is_stmt 0 discriminator 2 view .LVU583
 2262 001c 0395     		str	r5, [sp, #12]
1111:Middlewares/Third_Party/FreeRTOS/Source/timers.c **** 
1112:Middlewares/Third_Party/FreeRTOS/Source/timers.c ****             xReturn = xQueueSendToBack( xTimerQueue, &xMessage, xTicksToWait );
 2263              		.loc 1 1112 13 is_stmt 1 discriminator 2 view .LVU584
 2264              		.loc 1 1112 23 is_stmt 0 discriminator 2 view .LVU585
 2265 001e 0023     		movs	r3, #0
 2266 0020 6946     		mov	r1, sp
 2267              	.LVL208:
 2268              		.loc 1 1112 23 discriminator 2 view .LVU586
 2269 0022 FFF7FEFF 		bl	xQueueGenericSend
 2270              	.LVL209:
1113:Middlewares/Third_Party/FreeRTOS/Source/timers.c **** 
1114:Middlewares/Third_Party/FreeRTOS/Source/timers.c ****             tracePEND_FUNC_CALL( xFunctionToPend, pvParameter1, ulParameter2, xReturn );
 2271              		.loc 1 1114 88 is_stmt 1 discriminator 2 view .LVU587
1115:Middlewares/Third_Party/FreeRTOS/Source/timers.c **** 
1116:Middlewares/Third_Party/FreeRTOS/Source/timers.c ****             return xReturn;
 2272              		.loc 1 1116 13 discriminator 2 view .LVU588
1117:Middlewares/Third_Party/FreeRTOS/Source/timers.c ****         }
 2273              		.loc 1 1117 9 is_stmt 0 discriminator 2 view .LVU589
 2274 0026 05B0     		add	sp, sp, #20
 2275              		@ sp needed
 2276              	.LVL210:
 2277              	.LVL211:
 2278              		.loc 1 1117 9 discriminator 2 view .LVU590
 2279 0028 30BD     		pop	{r4, r5, pc}
 2280              	.LVL212:
 2281              	.L166:
1103:Middlewares/Third_Party/FreeRTOS/Source/timers.c **** 
 2282              		.loc 1 1103 13 is_stmt 1 discriminator 1 view .LVU591
 2283              		.syntax divided
 2284              	@ 1103 "Middlewares/Third_Party/FreeRTOS/Source/timers.c" 1
 2285 002a 72B6     		 cpsid i 
 2286              	@ 0 "" 2
 2287              		.thumb
 2288              		.syntax unified
 2289              	.L165:
1103:Middlewares/Third_Party/FreeRTOS/Source/timers.c **** 
 2290              		.loc 1 1103 13 discriminator 1 view .LVU592
1103:Middlewares/Third_Party/FreeRTOS/Source/timers.c **** 
 2291              		.loc 1 1103 13 discriminator 1 view .LVU593
ARM GAS  C:\Users\main\AppData\Local\Temp\ccYPpv0e.s 			page 68


1103:Middlewares/Third_Party/FreeRTOS/Source/timers.c **** 
 2292              		.loc 1 1103 13 discriminator 1 view .LVU594
 2293 002c FEE7     		b	.L165
 2294              	.L168:
 2295 002e C046     		.align	2
 2296              	.L167:
 2297 0030 00000000 		.word	.LANCHOR3
 2298              		.cfi_endproc
 2299              	.LFE28:
 2301              		.section	.text.uxTimerGetTimerNumber,"ax",%progbits
 2302              		.align	1
 2303              		.global	uxTimerGetTimerNumber
 2304              		.syntax unified
 2305              		.code	16
 2306              		.thumb_func
 2308              	uxTimerGetTimerNumber:
 2309              	.LVL213:
 2310              	.LFB29:
1118:Middlewares/Third_Party/FreeRTOS/Source/timers.c **** 
1119:Middlewares/Third_Party/FreeRTOS/Source/timers.c ****     #endif /* INCLUDE_xTimerPendFunctionCall */
1120:Middlewares/Third_Party/FreeRTOS/Source/timers.c **** /*-----------------------------------------------------------*/
1121:Middlewares/Third_Party/FreeRTOS/Source/timers.c **** 
1122:Middlewares/Third_Party/FreeRTOS/Source/timers.c ****     #if ( configUSE_TRACE_FACILITY == 1 )
1123:Middlewares/Third_Party/FreeRTOS/Source/timers.c **** 
1124:Middlewares/Third_Party/FreeRTOS/Source/timers.c ****         UBaseType_t uxTimerGetTimerNumber( TimerHandle_t xTimer )
1125:Middlewares/Third_Party/FreeRTOS/Source/timers.c ****         {
 2311              		.loc 1 1125 9 view -0
 2312              		.cfi_startproc
 2313              		@ args = 0, pretend = 0, frame = 0
 2314              		@ frame_needed = 0, uses_anonymous_args = 0
