ARM GAS  C:\Users\main\AppData\Local\Temp\ccohMrzN.s 			page 1


   1              		.cpu cortex-m0plus
   2              		.arch armv6s-m
   3              		.fpu softvfp
   4              		.eabi_attribute 20, 1
   5              		.eabi_attribute 21, 1
   6              		.eabi_attribute 23, 3
   7              		.eabi_attribute 24, 1
   8              		.eabi_attribute 25, 1
   9              		.eabi_attribute 26, 1
  10              		.eabi_attribute 30, 1
  11              		.eabi_attribute 34, 0
  12              		.eabi_attribute 18, 4
  13              		.file	"gpio.c"
  14              		.text
  15              	.Ltext0:
  16              		.cfi_sections	.debug_frame
  17              		.file 1 "Core/Src/gpio.c"
  18              		.section	.text.MX_GPIO_Init,"ax",%progbits
  19              		.align	1
  20              		.global	MX_GPIO_Init
  21              		.syntax unified
  22              		.code	16
  23              		.thumb_func
  25              	MX_GPIO_Init:
  26              	.LFB217:
   1:Core/Src/gpio.c **** /* USER CODE BEGIN Header */
   2:Core/Src/gpio.c **** /**
   3:Core/Src/gpio.c ****   ******************************************************************************
   4:Core/Src/gpio.c ****   * @file    gpio.c
   5:Core/Src/gpio.c ****   * @brief   This file provides code for the configuration
   6:Core/Src/gpio.c ****   *          of all used GPIO pins.
   7:Core/Src/gpio.c ****   ******************************************************************************
   8:Core/Src/gpio.c ****   * @attention
   9:Core/Src/gpio.c ****   *
  10:Core/Src/gpio.c ****   * Copyright (c) 2025 STMicroelectronics.
  11:Core/Src/gpio.c ****   * All rights reserved.
  12:Core/Src/gpio.c ****   *
  13:Core/Src/gpio.c ****   * This software is licensed under terms that can be found in the LICENSE file
  14:Core/Src/gpio.c ****   * in the root directory of this software component.
  15:Core/Src/gpio.c ****   * If no LICENSE file comes with this software, it is provided AS-IS.
  16:Core/Src/gpio.c ****   *
  17:Core/Src/gpio.c ****   ******************************************************************************
  18:Core/Src/gpio.c ****   */
  19:Core/Src/gpio.c **** /* USER CODE END Header */
  20:Core/Src/gpio.c **** 
  21:Core/Src/gpio.c **** /* Includes ------------------------------------------------------------------*/
  22:Core/Src/gpio.c **** #include "gpio.h"
  23:Core/Src/gpio.c **** 
  24:Core/Src/gpio.c **** /* USER CODE BEGIN 0 */
  25:Core/Src/gpio.c **** 
  26:Core/Src/gpio.c **** /* USER CODE END 0 */
  27:Core/Src/gpio.c **** 
  28:Core/Src/gpio.c **** /*----------------------------------------------------------------------------*/
  29:Core/Src/gpio.c **** /* Configure GPIO                                                             */
  30:Core/Src/gpio.c **** /*----------------------------------------------------------------------------*/
  31:Core/Src/gpio.c **** /* USER CODE BEGIN 1 */
  32:Core/Src/gpio.c **** 
ARM GAS  C:\Users\main\AppData\Local\Temp\ccohMrzN.s 			page 2


  33:Core/Src/gpio.c **** /* USER CODE END 1 */
  34:Core/Src/gpio.c **** 
  35:Core/Src/gpio.c **** /** Configure pins as
  36:Core/Src/gpio.c ****         * Analog
  37:Core/Src/gpio.c ****         * Input
  38:Core/Src/gpio.c ****         * Output
  39:Core/Src/gpio.c ****         * EVENT_OUT
  40:Core/Src/gpio.c ****         * EXTI
  41:Core/Src/gpio.c **** */
  42:Core/Src/gpio.c **** void MX_GPIO_Init(void)
  43:Core/Src/gpio.c **** {
  27              		.loc 1 43 1 view -0
  28              		.cfi_startproc
  29              		@ args = 0, pretend = 0, frame = 40
  30              		@ frame_needed = 0, uses_anonymous_args = 0
  31 0000 F0B5     		push	{r4, r5, r6, r7, lr}
  32              		.cfi_def_cfa_offset 20
  33              		.cfi_offset 4, -20
  34              		.cfi_offset 5, -16
  35              		.cfi_offset 6, -12
  36              		.cfi_offset 7, -8
  37              		.cfi_offset 14, -4
  38 0002 8BB0     		sub	sp, sp, #44
  39              		.cfi_def_cfa_offset 64
  44:Core/Src/gpio.c **** 
  45:Core/Src/gpio.c ****   GPIO_InitTypeDef GPIO_InitStruct = {0};
  40              		.loc 1 45 3 view .LVU1
  41              		.loc 1 45 20 is_stmt 0 view .LVU2
  42 0004 05AC     		add	r4, sp, #20
  43 0006 1422     		movs	r2, #20
  44 0008 0021     		movs	r1, #0
  45 000a 2000     		movs	r0, r4
  46 000c FFF7FEFF 		bl	memset
  47              	.LVL0:
  46:Core/Src/gpio.c **** 
  47:Core/Src/gpio.c ****   /* GPIO Ports Clock Enable */
  48:Core/Src/gpio.c ****   __HAL_RCC_GPIOC_CLK_ENABLE();
  48              		.loc 1 48 3 is_stmt 1 view .LVU3
  49              	.LBB2:
  50              		.loc 1 48 3 view .LVU4
  51              		.loc 1 48 3 view .LVU5
  52 0010 184B     		ldr	r3, .L2
  53 0012 596B     		ldr	r1, [r3, #52]
  54 0014 0422     		movs	r2, #4
  55 0016 1143     		orrs	r1, r2
  56 0018 5963     		str	r1, [r3, #52]
  57              		.loc 1 48 3 view .LVU6
  58 001a 596B     		ldr	r1, [r3, #52]
  59 001c 0A40     		ands	r2, r1
  60 001e 0192     		str	r2, [sp, #4]
  61              		.loc 1 48 3 view .LVU7
  62 0020 019A     		ldr	r2, [sp, #4]
  63              	.LBE2:
  64              		.loc 1 48 3 view .LVU8
  49:Core/Src/gpio.c ****   __HAL_RCC_GPIOF_CLK_ENABLE();
  65              		.loc 1 49 3 view .LVU9
  66              	.LBB3:
ARM GAS  C:\Users\main\AppData\Local\Temp\ccohMrzN.s 			page 3


  67              		.loc 1 49 3 view .LVU10
  68              		.loc 1 49 3 view .LVU11
  69 0022 596B     		ldr	r1, [r3, #52]
  70 0024 2022     		movs	r2, #32
  71 0026 1143     		orrs	r1, r2
  72 0028 5963     		str	r1, [r3, #52]
  73              		.loc 1 49 3 view .LVU12
  74 002a 596B     		ldr	r1, [r3, #52]
  75 002c 0A40     		ands	r2, r1
  76 002e 0292     		str	r2, [sp, #8]
  77              		.loc 1 49 3 view .LVU13
  78 0030 029A     		ldr	r2, [sp, #8]
  79              	.LBE3:
  80              		.loc 1 49 3 view .LVU14
  50:Core/Src/gpio.c ****   __HAL_RCC_GPIOB_CLK_ENABLE();
  81              		.loc 1 50 3 view .LVU15
  82              	.LBB4:
  83              		.loc 1 50 3 view .LVU16
  84              		.loc 1 50 3 view .LVU17
  85 0032 5A6B     		ldr	r2, [r3, #52]
  86 0034 0226     		movs	r6, #2
  87 0036 3243     		orrs	r2, r6
  88 0038 5A63     		str	r2, [r3, #52]
  89              		.loc 1 50 3 view .LVU18
  90 003a 5A6B     		ldr	r2, [r3, #52]
  91 003c 3240     		ands	r2, r6
  92 003e 0392     		str	r2, [sp, #12]
  93              		.loc 1 50 3 view .LVU19
  94 0040 039A     		ldr	r2, [sp, #12]
  95              	.LBE4:
  96              		.loc 1 50 3 view .LVU20
  51:Core/Src/gpio.c ****   __HAL_RCC_GPIOA_CLK_ENABLE();
  97              		.loc 1 51 3 view .LVU21
  98              	.LBB5:
  99              		.loc 1 51 3 view .LVU22
 100              		.loc 1 51 3 view .LVU23
 101 0042 5A6B     		ldr	r2, [r3, #52]
 102 0044 0125     		movs	r5, #1
 103 0046 2A43     		orrs	r2, r5
 104 0048 5A63     		str	r2, [r3, #52]
 105              		.loc 1 51 3 view .LVU24
 106 004a 5B6B     		ldr	r3, [r3, #52]
 107 004c 2B40     		ands	r3, r5
 108 004e 0493     		str	r3, [sp, #16]
 109              		.loc 1 51 3 view .LVU25
 110 0050 049B     		ldr	r3, [sp, #16]
 111              	.LBE5:
 112              		.loc 1 51 3 view .LVU26
  52:Core/Src/gpio.c **** 
  53:Core/Src/gpio.c ****   /*Configure GPIO pin Output Level */
  54:Core/Src/gpio.c ****   HAL_GPIO_WritePin(GPIOB, GPIO_PIN_1, GPIO_PIN_RESET);
 113              		.loc 1 54 3 view .LVU27
 114 0052 094F     		ldr	r7, .L2+4
 115 0054 0022     		movs	r2, #0
 116 0056 0221     		movs	r1, #2
 117 0058 3800     		movs	r0, r7
 118 005a FFF7FEFF 		bl	HAL_GPIO_WritePin
ARM GAS  C:\Users\main\AppData\Local\Temp\ccohMrzN.s 			page 4


 119              	.LVL1:
  55:Core/Src/gpio.c **** 
  56:Core/Src/gpio.c ****   /*Configure GPIO pin : PB1 */
  57:Core/Src/gpio.c ****   GPIO_InitStruct.Pin = GPIO_PIN_1;
 120              		.loc 1 57 3 view .LVU28
 121              		.loc 1 57 23 is_stmt 0 view .LVU29
 122 005e 0596     		str	r6, [sp, #20]
  58:Core/Src/gpio.c ****   GPIO_InitStruct.Mode = GPIO_MODE_OUTPUT_PP;
 123              		.loc 1 58 3 is_stmt 1 view .LVU30
 124              		.loc 1 58 24 is_stmt 0 view .LVU31
 125 0060 0695     		str	r5, [sp, #24]
  59:Core/Src/gpio.c ****   GPIO_InitStruct.Pull = GPIO_NOPULL;
 126              		.loc 1 59 3 is_stmt 1 view .LVU32
 127              		.loc 1 59 24 is_stmt 0 view .LVU33
 128 0062 0023     		movs	r3, #0
 129 0064 0793     		str	r3, [sp, #28]
  60:Core/Src/gpio.c ****   GPIO_InitStruct.Speed = GPIO_SPEED_FREQ_LOW;
 130              		.loc 1 60 3 is_stmt 1 view .LVU34
 131              		.loc 1 60 25 is_stmt 0 view .LVU35
 132 0066 0893     		str	r3, [sp, #32]
  61:Core/Src/gpio.c ****   HAL_GPIO_Init(GPIOB, &GPIO_InitStruct);
 133              		.loc 1 61 3 is_stmt 1 view .LVU36
 134 0068 2100     		movs	r1, r4
 135 006a 3800     		movs	r0, r7
 136 006c FFF7FEFF 		bl	HAL_GPIO_Init
 137              	.LVL2:
  62:Core/Src/gpio.c **** 
  63:Core/Src/gpio.c **** }
 138              		.loc 1 63 1 is_stmt 0 view .LVU37
 139 0070 0BB0     		add	sp, sp, #44
 140              		@ sp needed
 141 0072 F0BD     		pop	{r4, r5, r6, r7, pc}
 142              	.L3:
 143              		.align	2
 144              	.L2:
 145 0074 00100240 		.word	1073876992
 146 0078 00040050 		.word	1342178304
 147              		.cfi_endproc
 148              	.LFE217:
 150              		.text
 151              	.Letext0:
 152              		.file 2 "C:/Users/main/AppData/Roaming/Code/User/globalStorage/bmd.stm32-for-vscode/@xpack-dev-too
 153              		.file 3 "C:/Users/main/AppData/Roaming/Code/User/globalStorage/bmd.stm32-for-vscode/@xpack-dev-too
 154              		.file 4 "Drivers/CMSIS/Device/ST/STM32C0xx/Include/stm32c031xx.h"
 155              		.file 5 "Drivers/STM32C0xx_HAL_Driver/Inc/stm32c0xx_hal_gpio.h"
 156              		.file 6 "<built-in>"
ARM GAS  C:\Users\main\AppData\Local\Temp\ccohMrzN.s 			page 5

