ARM GAS  C:\Users\main\AppData\Local\Temp\ccuDNLmp.s 			page 1


   1              		.cpu cortex-m0plus
   2              		.arch armv6s-m
   3              		.fpu softvfp
   4              		.eabi_attribute 20, 1
   5              		.eabi_attribute 21, 1
   6              		.eabi_attribute 23, 3
   7              		.eabi_attribute 24, 1
   8              		.eabi_attribute 25, 1
   9              		.eabi_attribute 26, 1
  10              		.eabi_attribute 30, 1
  11              		.eabi_attribute 34, 0
  12              		.eabi_attribute 18, 4
  13              		.file	"stm32c0xx_hal_flash_ex.c"
  14              		.text
  15              	.Ltext0:
  16              		.cfi_sections	.debug_frame
  17              		.file 1 "Drivers/STM32C0xx_HAL_Driver/Src/stm32c0xx_hal_flash_ex.c"
  18              		.section	.text.FLASH_MassErase,"ax",%progbits
  19              		.align	1
  20              		.syntax unified
  21              		.code	16
  22              		.thumb_func
  24              	FLASH_MassErase:
  25              	.LFB223:
   1:Drivers/STM32C0xx_HAL_Driver/Src/stm32c0xx_hal_flash_ex.c **** /**
   2:Drivers/STM32C0xx_HAL_Driver/Src/stm32c0xx_hal_flash_ex.c ****   ******************************************************************************
   3:Drivers/STM32C0xx_HAL_Driver/Src/stm32c0xx_hal_flash_ex.c ****   * @file    stm32c0xx_hal_flash_ex.c
   4:Drivers/STM32C0xx_HAL_Driver/Src/stm32c0xx_hal_flash_ex.c ****   * @author  MCD Application Team
   5:Drivers/STM32C0xx_HAL_Driver/Src/stm32c0xx_hal_flash_ex.c ****   * @brief   Extended FLASH HAL module driver.
   6:Drivers/STM32C0xx_HAL_Driver/Src/stm32c0xx_hal_flash_ex.c ****   *          This file provides firmware functions to manage the following
   7:Drivers/STM32C0xx_HAL_Driver/Src/stm32c0xx_hal_flash_ex.c ****   *          functionalities of the FLASH extended peripheral:
   8:Drivers/STM32C0xx_HAL_Driver/Src/stm32c0xx_hal_flash_ex.c ****   *           + Extended programming operations functions
   9:Drivers/STM32C0xx_HAL_Driver/Src/stm32c0xx_hal_flash_ex.c ****   *
  10:Drivers/STM32C0xx_HAL_Driver/Src/stm32c0xx_hal_flash_ex.c ****   ******************************************************************************
  11:Drivers/STM32C0xx_HAL_Driver/Src/stm32c0xx_hal_flash_ex.c ****   * @attention
  12:Drivers/STM32C0xx_HAL_Driver/Src/stm32c0xx_hal_flash_ex.c ****   *
  13:Drivers/STM32C0xx_HAL_Driver/Src/stm32c0xx_hal_flash_ex.c ****   * Copyright (c) 2022 STMicroelectronics.
  14:Drivers/STM32C0xx_HAL_Driver/Src/stm32c0xx_hal_flash_ex.c ****   * All rights reserved.
  15:Drivers/STM32C0xx_HAL_Driver/Src/stm32c0xx_hal_flash_ex.c ****   *
  16:Drivers/STM32C0xx_HAL_Driver/Src/stm32c0xx_hal_flash_ex.c ****   * This software is licensed under terms that can be found in the LICENSE file
  17:Drivers/STM32C0xx_HAL_Driver/Src/stm32c0xx_hal_flash_ex.c ****   * in the root directory of this software component.
  18:Drivers/STM32C0xx_HAL_Driver/Src/stm32c0xx_hal_flash_ex.c ****   * If no LICENSE file comes with this software, it is provided AS-IS.
  19:Drivers/STM32C0xx_HAL_Driver/Src/stm32c0xx_hal_flash_ex.c ****   *
  20:Drivers/STM32C0xx_HAL_Driver/Src/stm32c0xx_hal_flash_ex.c ****   ******************************************************************************
  21:Drivers/STM32C0xx_HAL_Driver/Src/stm32c0xx_hal_flash_ex.c ****  @verbatim
  22:Drivers/STM32C0xx_HAL_Driver/Src/stm32c0xx_hal_flash_ex.c ****  ==============================================================================
  23:Drivers/STM32C0xx_HAL_Driver/Src/stm32c0xx_hal_flash_ex.c ****                    ##### Flash Extended features #####
  24:Drivers/STM32C0xx_HAL_Driver/Src/stm32c0xx_hal_flash_ex.c ****   ==============================================================================
  25:Drivers/STM32C0xx_HAL_Driver/Src/stm32c0xx_hal_flash_ex.c **** 
  26:Drivers/STM32C0xx_HAL_Driver/Src/stm32c0xx_hal_flash_ex.c ****   [..] Comparing to other previous devices, the FLASH interface for STM32C0xx
  27:Drivers/STM32C0xx_HAL_Driver/Src/stm32c0xx_hal_flash_ex.c ****        devices contains the following additional features
  28:Drivers/STM32C0xx_HAL_Driver/Src/stm32c0xx_hal_flash_ex.c **** 
  29:Drivers/STM32C0xx_HAL_Driver/Src/stm32c0xx_hal_flash_ex.c ****        (+) Capacity up to 128 Kbytes with single bank architecture supporting read-while-write
  30:Drivers/STM32C0xx_HAL_Driver/Src/stm32c0xx_hal_flash_ex.c ****            capability (RWW)
  31:Drivers/STM32C0xx_HAL_Driver/Src/stm32c0xx_hal_flash_ex.c ****        (+) Single bank memory organization
  32:Drivers/STM32C0xx_HAL_Driver/Src/stm32c0xx_hal_flash_ex.c ****        (+) PCROP protection
  33:Drivers/STM32C0xx_HAL_Driver/Src/stm32c0xx_hal_flash_ex.c **** 
ARM GAS  C:\Users\main\AppData\Local\Temp\ccuDNLmp.s 			page 2


  34:Drivers/STM32C0xx_HAL_Driver/Src/stm32c0xx_hal_flash_ex.c ****                         ##### How to use this driver #####
  35:Drivers/STM32C0xx_HAL_Driver/Src/stm32c0xx_hal_flash_ex.c ****  ==============================================================================
  36:Drivers/STM32C0xx_HAL_Driver/Src/stm32c0xx_hal_flash_ex.c ****   [..] This driver provides functions to configure and program the FLASH memory
  37:Drivers/STM32C0xx_HAL_Driver/Src/stm32c0xx_hal_flash_ex.c ****        of all STM32C0xx devices. It includes
  38:Drivers/STM32C0xx_HAL_Driver/Src/stm32c0xx_hal_flash_ex.c ****       (#) Flash Memory Erase functions:
  39:Drivers/STM32C0xx_HAL_Driver/Src/stm32c0xx_hal_flash_ex.c ****            (++) Lock and Unlock the FLASH interface using HAL_FLASH_Unlock() and
  40:Drivers/STM32C0xx_HAL_Driver/Src/stm32c0xx_hal_flash_ex.c ****                 HAL_FLASH_Lock() functions
  41:Drivers/STM32C0xx_HAL_Driver/Src/stm32c0xx_hal_flash_ex.c ****            (++) Erase function: Erase page, erase all sectors
  42:Drivers/STM32C0xx_HAL_Driver/Src/stm32c0xx_hal_flash_ex.c ****            (++) There are two modes of erase :
  43:Drivers/STM32C0xx_HAL_Driver/Src/stm32c0xx_hal_flash_ex.c ****              (+++) Polling Mode using HAL_FLASHEx_Erase()
  44:Drivers/STM32C0xx_HAL_Driver/Src/stm32c0xx_hal_flash_ex.c ****              (+++) Interrupt Mode using HAL_FLASHEx_Erase_IT()
  45:Drivers/STM32C0xx_HAL_Driver/Src/stm32c0xx_hal_flash_ex.c **** 
  46:Drivers/STM32C0xx_HAL_Driver/Src/stm32c0xx_hal_flash_ex.c ****       (#) Option Bytes Programming function: Use HAL_FLASHEx_OBProgram() to :
  47:Drivers/STM32C0xx_HAL_Driver/Src/stm32c0xx_hal_flash_ex.c ****         (++) Set/Reset the write protection
  48:Drivers/STM32C0xx_HAL_Driver/Src/stm32c0xx_hal_flash_ex.c ****         (++) Set the Read protection Level
  49:Drivers/STM32C0xx_HAL_Driver/Src/stm32c0xx_hal_flash_ex.c ****         (++) Program the user Option Bytes
  50:Drivers/STM32C0xx_HAL_Driver/Src/stm32c0xx_hal_flash_ex.c ****         (++) Configure the PCROP protection
  51:Drivers/STM32C0xx_HAL_Driver/Src/stm32c0xx_hal_flash_ex.c ****         (++) Set Securable memory area and boot entry point
  52:Drivers/STM32C0xx_HAL_Driver/Src/stm32c0xx_hal_flash_ex.c **** 
  53:Drivers/STM32C0xx_HAL_Driver/Src/stm32c0xx_hal_flash_ex.c ****       (#) Get Option Bytes Configuration function: Use HAL_FLASHEx_OBGetConfig() to :
  54:Drivers/STM32C0xx_HAL_Driver/Src/stm32c0xx_hal_flash_ex.c ****         (++) Get the value of a write protection area
  55:Drivers/STM32C0xx_HAL_Driver/Src/stm32c0xx_hal_flash_ex.c ****         (++) Know if the read protection is activated
  56:Drivers/STM32C0xx_HAL_Driver/Src/stm32c0xx_hal_flash_ex.c ****         (++) Get the value of the user Option Bytes
  57:Drivers/STM32C0xx_HAL_Driver/Src/stm32c0xx_hal_flash_ex.c ****         (++) Get Securable memory area and boot entry point information
  58:Drivers/STM32C0xx_HAL_Driver/Src/stm32c0xx_hal_flash_ex.c **** 
  59:Drivers/STM32C0xx_HAL_Driver/Src/stm32c0xx_hal_flash_ex.c ****       (#) Enable or disable debugger usage using HAL_FLASHEx_EnableDebugger and
  60:Drivers/STM32C0xx_HAL_Driver/Src/stm32c0xx_hal_flash_ex.c ****           HAL_FLASHEx_DisableDebugger.
  61:Drivers/STM32C0xx_HAL_Driver/Src/stm32c0xx_hal_flash_ex.c **** 
  62:Drivers/STM32C0xx_HAL_Driver/Src/stm32c0xx_hal_flash_ex.c ****       (#) Check is flash content is empty or not using HAL_FLASHEx_FlashEmptyCheck.
  63:Drivers/STM32C0xx_HAL_Driver/Src/stm32c0xx_hal_flash_ex.c ****           and modify this setting (for flash loader purpose e.g.) using
  64:Drivers/STM32C0xx_HAL_Driver/Src/stm32c0xx_hal_flash_ex.c ****           HAL_FLASHEx_ForceFlashEmpty.
  65:Drivers/STM32C0xx_HAL_Driver/Src/stm32c0xx_hal_flash_ex.c **** 
  66:Drivers/STM32C0xx_HAL_Driver/Src/stm32c0xx_hal_flash_ex.c ****       (#) Enable securable memory area protectionusing HAL_FLASHEx_EnableSecMemProtection
  67:Drivers/STM32C0xx_HAL_Driver/Src/stm32c0xx_hal_flash_ex.c **** 
  68:Drivers/STM32C0xx_HAL_Driver/Src/stm32c0xx_hal_flash_ex.c ****  @endverbatim
  69:Drivers/STM32C0xx_HAL_Driver/Src/stm32c0xx_hal_flash_ex.c ****   ******************************************************************************
  70:Drivers/STM32C0xx_HAL_Driver/Src/stm32c0xx_hal_flash_ex.c ****   */
  71:Drivers/STM32C0xx_HAL_Driver/Src/stm32c0xx_hal_flash_ex.c **** 
  72:Drivers/STM32C0xx_HAL_Driver/Src/stm32c0xx_hal_flash_ex.c **** /* Includes ------------------------------------------------------------------*/
  73:Drivers/STM32C0xx_HAL_Driver/Src/stm32c0xx_hal_flash_ex.c **** #include "stm32c0xx_hal.h"
  74:Drivers/STM32C0xx_HAL_Driver/Src/stm32c0xx_hal_flash_ex.c **** 
  75:Drivers/STM32C0xx_HAL_Driver/Src/stm32c0xx_hal_flash_ex.c **** /** @addtogroup STM32C0xx_HAL_Driver
  76:Drivers/STM32C0xx_HAL_Driver/Src/stm32c0xx_hal_flash_ex.c ****   * @{
  77:Drivers/STM32C0xx_HAL_Driver/Src/stm32c0xx_hal_flash_ex.c ****   */
  78:Drivers/STM32C0xx_HAL_Driver/Src/stm32c0xx_hal_flash_ex.c **** 
  79:Drivers/STM32C0xx_HAL_Driver/Src/stm32c0xx_hal_flash_ex.c **** /** @defgroup FLASHEx FLASHEx
  80:Drivers/STM32C0xx_HAL_Driver/Src/stm32c0xx_hal_flash_ex.c ****   * @brief FLASH Extended HAL module driver
  81:Drivers/STM32C0xx_HAL_Driver/Src/stm32c0xx_hal_flash_ex.c ****   * @{
  82:Drivers/STM32C0xx_HAL_Driver/Src/stm32c0xx_hal_flash_ex.c ****   */
  83:Drivers/STM32C0xx_HAL_Driver/Src/stm32c0xx_hal_flash_ex.c **** 
  84:Drivers/STM32C0xx_HAL_Driver/Src/stm32c0xx_hal_flash_ex.c **** #ifdef HAL_FLASH_MODULE_ENABLED
  85:Drivers/STM32C0xx_HAL_Driver/Src/stm32c0xx_hal_flash_ex.c **** 
  86:Drivers/STM32C0xx_HAL_Driver/Src/stm32c0xx_hal_flash_ex.c **** /* Private typedef -----------------------------------------------------------*/
  87:Drivers/STM32C0xx_HAL_Driver/Src/stm32c0xx_hal_flash_ex.c **** /* Private define ------------------------------------------------------------*/
  88:Drivers/STM32C0xx_HAL_Driver/Src/stm32c0xx_hal_flash_ex.c **** /* Private macro -------------------------------------------------------------*/
  89:Drivers/STM32C0xx_HAL_Driver/Src/stm32c0xx_hal_flash_ex.c **** /* Private variables ---------------------------------------------------------*/
  90:Drivers/STM32C0xx_HAL_Driver/Src/stm32c0xx_hal_flash_ex.c **** /* Private function prototypes -----------------------------------------------*/
ARM GAS  C:\Users\main\AppData\Local\Temp\ccuDNLmp.s 			page 3


  91:Drivers/STM32C0xx_HAL_Driver/Src/stm32c0xx_hal_flash_ex.c **** /** @defgroup FLASHEx_Private_Functions FLASHEx Private Functions
  92:Drivers/STM32C0xx_HAL_Driver/Src/stm32c0xx_hal_flash_ex.c ****   * @{
  93:Drivers/STM32C0xx_HAL_Driver/Src/stm32c0xx_hal_flash_ex.c ****   */
  94:Drivers/STM32C0xx_HAL_Driver/Src/stm32c0xx_hal_flash_ex.c **** static void            FLASH_MassErase(void);
  95:Drivers/STM32C0xx_HAL_Driver/Src/stm32c0xx_hal_flash_ex.c **** void                   FLASH_FlushCaches(void);
  96:Drivers/STM32C0xx_HAL_Driver/Src/stm32c0xx_hal_flash_ex.c **** static void            FLASH_OB_WRPConfig(uint32_t WRPArea, uint32_t WRPStartOffset, uint32_t WRDPE
  97:Drivers/STM32C0xx_HAL_Driver/Src/stm32c0xx_hal_flash_ex.c **** static void            FLASH_OB_OptrConfig(uint32_t UserType, uint32_t UserConfig, uint32_t RDPLeve
  98:Drivers/STM32C0xx_HAL_Driver/Src/stm32c0xx_hal_flash_ex.c **** static void            FLASH_OB_PCROP1AConfig(uint32_t PCROPConfig, uint32_t PCROP1AStartAddr, uint
  99:Drivers/STM32C0xx_HAL_Driver/Src/stm32c0xx_hal_flash_ex.c **** static void            FLASH_OB_PCROP1BConfig(uint32_t PCROP1BStartAddr, uint32_t PCROP1BEndAddr);
 100:Drivers/STM32C0xx_HAL_Driver/Src/stm32c0xx_hal_flash_ex.c **** static void            FLASH_OB_SecMemConfig(uint32_t BootEntry, uint32_t SecSize);
 101:Drivers/STM32C0xx_HAL_Driver/Src/stm32c0xx_hal_flash_ex.c **** static void            FLASH_OB_GetWRP(uint32_t WRPArea, uint32_t *WRPStartOffset, uint32_t *WRDPEn
 102:Drivers/STM32C0xx_HAL_Driver/Src/stm32c0xx_hal_flash_ex.c **** static uint32_t        FLASH_OB_GetRDP(void);
 103:Drivers/STM32C0xx_HAL_Driver/Src/stm32c0xx_hal_flash_ex.c **** static uint32_t        FLASH_OB_GetUser(void);
 104:Drivers/STM32C0xx_HAL_Driver/Src/stm32c0xx_hal_flash_ex.c **** static void            FLASH_OB_GetPCROP1A(uint32_t *PCROPConfig, uint32_t *PCROP1AStartAddr, uint3
 105:Drivers/STM32C0xx_HAL_Driver/Src/stm32c0xx_hal_flash_ex.c **** static void            FLASH_OB_GetPCROP1B(uint32_t *PCROP1BStartAddr, uint32_t *PCROP1BEndAddr);
 106:Drivers/STM32C0xx_HAL_Driver/Src/stm32c0xx_hal_flash_ex.c **** static void            FLASH_OB_GetSecMem(uint32_t *BootEntry, uint32_t *SecSize);
 107:Drivers/STM32C0xx_HAL_Driver/Src/stm32c0xx_hal_flash_ex.c **** /**
 108:Drivers/STM32C0xx_HAL_Driver/Src/stm32c0xx_hal_flash_ex.c ****   * @}
 109:Drivers/STM32C0xx_HAL_Driver/Src/stm32c0xx_hal_flash_ex.c ****   */
 110:Drivers/STM32C0xx_HAL_Driver/Src/stm32c0xx_hal_flash_ex.c **** 
 111:Drivers/STM32C0xx_HAL_Driver/Src/stm32c0xx_hal_flash_ex.c **** /* Exported functions -------------------------------------------------------*/
 112:Drivers/STM32C0xx_HAL_Driver/Src/stm32c0xx_hal_flash_ex.c **** /** @defgroup FLASHEx_Exported_Functions FLASH Extended Exported Functions
 113:Drivers/STM32C0xx_HAL_Driver/Src/stm32c0xx_hal_flash_ex.c ****   * @{
 114:Drivers/STM32C0xx_HAL_Driver/Src/stm32c0xx_hal_flash_ex.c ****   */
 115:Drivers/STM32C0xx_HAL_Driver/Src/stm32c0xx_hal_flash_ex.c **** 
 116:Drivers/STM32C0xx_HAL_Driver/Src/stm32c0xx_hal_flash_ex.c **** /** @defgroup FLASHEx_Exported_Functions_Group1 Extended IO operation functions
 117:Drivers/STM32C0xx_HAL_Driver/Src/stm32c0xx_hal_flash_ex.c ****   *  @brief   Extended IO operation functions
 118:Drivers/STM32C0xx_HAL_Driver/Src/stm32c0xx_hal_flash_ex.c ****   *
 119:Drivers/STM32C0xx_HAL_Driver/Src/stm32c0xx_hal_flash_ex.c **** @verbatim
 120:Drivers/STM32C0xx_HAL_Driver/Src/stm32c0xx_hal_flash_ex.c ****  ===============================================================================
 121:Drivers/STM32C0xx_HAL_Driver/Src/stm32c0xx_hal_flash_ex.c ****                 ##### Extended programming operation functions #####
 122:Drivers/STM32C0xx_HAL_Driver/Src/stm32c0xx_hal_flash_ex.c ****  ===============================================================================
 123:Drivers/STM32C0xx_HAL_Driver/Src/stm32c0xx_hal_flash_ex.c ****     [..]
 124:Drivers/STM32C0xx_HAL_Driver/Src/stm32c0xx_hal_flash_ex.c ****     This subsection provides a set of functions allowing to manage the Extended FLASH
 125:Drivers/STM32C0xx_HAL_Driver/Src/stm32c0xx_hal_flash_ex.c ****     programming operations Operations.
 126:Drivers/STM32C0xx_HAL_Driver/Src/stm32c0xx_hal_flash_ex.c **** 
 127:Drivers/STM32C0xx_HAL_Driver/Src/stm32c0xx_hal_flash_ex.c **** @endverbatim
 128:Drivers/STM32C0xx_HAL_Driver/Src/stm32c0xx_hal_flash_ex.c ****   * @{
 129:Drivers/STM32C0xx_HAL_Driver/Src/stm32c0xx_hal_flash_ex.c ****   */
 130:Drivers/STM32C0xx_HAL_Driver/Src/stm32c0xx_hal_flash_ex.c **** /**
 131:Drivers/STM32C0xx_HAL_Driver/Src/stm32c0xx_hal_flash_ex.c ****   * @brief  Perform a mass erase or erase the specified FLASH memory pages.
 132:Drivers/STM32C0xx_HAL_Driver/Src/stm32c0xx_hal_flash_ex.c ****   * @param[in]  pEraseInit Pointer to an @ref FLASH_EraseInitTypeDef structure that
 133:Drivers/STM32C0xx_HAL_Driver/Src/stm32c0xx_hal_flash_ex.c ****   *         contains the configuration information for the erasing.
 134:Drivers/STM32C0xx_HAL_Driver/Src/stm32c0xx_hal_flash_ex.c ****   * @param[out]  PageError Pointer to variable that contains the configuration
 135:Drivers/STM32C0xx_HAL_Driver/Src/stm32c0xx_hal_flash_ex.c ****   *         information on faulty page in case of error (0xFFFFFFFF means that all
 136:Drivers/STM32C0xx_HAL_Driver/Src/stm32c0xx_hal_flash_ex.c ****   *         the pages have been correctly erased)
 137:Drivers/STM32C0xx_HAL_Driver/Src/stm32c0xx_hal_flash_ex.c ****   * @retval HAL Status
 138:Drivers/STM32C0xx_HAL_Driver/Src/stm32c0xx_hal_flash_ex.c ****   */
 139:Drivers/STM32C0xx_HAL_Driver/Src/stm32c0xx_hal_flash_ex.c **** HAL_StatusTypeDef HAL_FLASHEx_Erase(const FLASH_EraseInitTypeDef *pEraseInit, uint32_t *PageError)
 140:Drivers/STM32C0xx_HAL_Driver/Src/stm32c0xx_hal_flash_ex.c **** {
 141:Drivers/STM32C0xx_HAL_Driver/Src/stm32c0xx_hal_flash_ex.c ****   HAL_StatusTypeDef status;
 142:Drivers/STM32C0xx_HAL_Driver/Src/stm32c0xx_hal_flash_ex.c ****   uint32_t index;
 143:Drivers/STM32C0xx_HAL_Driver/Src/stm32c0xx_hal_flash_ex.c **** 
 144:Drivers/STM32C0xx_HAL_Driver/Src/stm32c0xx_hal_flash_ex.c ****   /* Check the parameters */
 145:Drivers/STM32C0xx_HAL_Driver/Src/stm32c0xx_hal_flash_ex.c ****   assert_param(IS_FLASH_TYPEERASE(pEraseInit->TypeErase));
 146:Drivers/STM32C0xx_HAL_Driver/Src/stm32c0xx_hal_flash_ex.c **** 
 147:Drivers/STM32C0xx_HAL_Driver/Src/stm32c0xx_hal_flash_ex.c ****   /* Process Locked */
ARM GAS  C:\Users\main\AppData\Local\Temp\ccuDNLmp.s 			page 4


 148:Drivers/STM32C0xx_HAL_Driver/Src/stm32c0xx_hal_flash_ex.c ****   __HAL_LOCK(&pFlash);
 149:Drivers/STM32C0xx_HAL_Driver/Src/stm32c0xx_hal_flash_ex.c **** 
 150:Drivers/STM32C0xx_HAL_Driver/Src/stm32c0xx_hal_flash_ex.c ****   /* Reset error code */
 151:Drivers/STM32C0xx_HAL_Driver/Src/stm32c0xx_hal_flash_ex.c ****   pFlash.ErrorCode = HAL_FLASH_ERROR_NONE;
 152:Drivers/STM32C0xx_HAL_Driver/Src/stm32c0xx_hal_flash_ex.c **** 
 153:Drivers/STM32C0xx_HAL_Driver/Src/stm32c0xx_hal_flash_ex.c ****   /* Wait for last operation to be completed */
 154:Drivers/STM32C0xx_HAL_Driver/Src/stm32c0xx_hal_flash_ex.c ****   status = FLASH_WaitForLastOperation(FLASH_TIMEOUT_VALUE);
 155:Drivers/STM32C0xx_HAL_Driver/Src/stm32c0xx_hal_flash_ex.c **** 
 156:Drivers/STM32C0xx_HAL_Driver/Src/stm32c0xx_hal_flash_ex.c ****   if (status == HAL_OK)
 157:Drivers/STM32C0xx_HAL_Driver/Src/stm32c0xx_hal_flash_ex.c ****   {
 158:Drivers/STM32C0xx_HAL_Driver/Src/stm32c0xx_hal_flash_ex.c ****     if (pEraseInit->TypeErase == FLASH_TYPEERASE_MASS)
 159:Drivers/STM32C0xx_HAL_Driver/Src/stm32c0xx_hal_flash_ex.c ****     {
 160:Drivers/STM32C0xx_HAL_Driver/Src/stm32c0xx_hal_flash_ex.c ****       /* Mass erase to be done */
 161:Drivers/STM32C0xx_HAL_Driver/Src/stm32c0xx_hal_flash_ex.c ****       FLASH_MassErase();
 162:Drivers/STM32C0xx_HAL_Driver/Src/stm32c0xx_hal_flash_ex.c **** 
 163:Drivers/STM32C0xx_HAL_Driver/Src/stm32c0xx_hal_flash_ex.c ****       /* Wait for last operation to be completed */
 164:Drivers/STM32C0xx_HAL_Driver/Src/stm32c0xx_hal_flash_ex.c ****       status = FLASH_WaitForLastOperation(FLASH_TIMEOUT_VALUE);
 165:Drivers/STM32C0xx_HAL_Driver/Src/stm32c0xx_hal_flash_ex.c ****     }
 166:Drivers/STM32C0xx_HAL_Driver/Src/stm32c0xx_hal_flash_ex.c ****     else
 167:Drivers/STM32C0xx_HAL_Driver/Src/stm32c0xx_hal_flash_ex.c ****     {
 168:Drivers/STM32C0xx_HAL_Driver/Src/stm32c0xx_hal_flash_ex.c ****       /*Initialization of PageError variable*/
 169:Drivers/STM32C0xx_HAL_Driver/Src/stm32c0xx_hal_flash_ex.c ****       *PageError = 0xFFFFFFFFU;
 170:Drivers/STM32C0xx_HAL_Driver/Src/stm32c0xx_hal_flash_ex.c **** 
 171:Drivers/STM32C0xx_HAL_Driver/Src/stm32c0xx_hal_flash_ex.c ****       for (index = pEraseInit->Page; index < (pEraseInit->Page + pEraseInit->NbPages); index++)
 172:Drivers/STM32C0xx_HAL_Driver/Src/stm32c0xx_hal_flash_ex.c ****       {
 173:Drivers/STM32C0xx_HAL_Driver/Src/stm32c0xx_hal_flash_ex.c ****         /* Start erase page */
 174:Drivers/STM32C0xx_HAL_Driver/Src/stm32c0xx_hal_flash_ex.c ****         FLASH_PageErase(index);
 175:Drivers/STM32C0xx_HAL_Driver/Src/stm32c0xx_hal_flash_ex.c **** 
 176:Drivers/STM32C0xx_HAL_Driver/Src/stm32c0xx_hal_flash_ex.c ****         /* Wait for last operation to be completed */
 177:Drivers/STM32C0xx_HAL_Driver/Src/stm32c0xx_hal_flash_ex.c ****         status = FLASH_WaitForLastOperation(FLASH_TIMEOUT_VALUE);
 178:Drivers/STM32C0xx_HAL_Driver/Src/stm32c0xx_hal_flash_ex.c **** 
 179:Drivers/STM32C0xx_HAL_Driver/Src/stm32c0xx_hal_flash_ex.c ****         if (status != HAL_OK)
 180:Drivers/STM32C0xx_HAL_Driver/Src/stm32c0xx_hal_flash_ex.c ****         {
 181:Drivers/STM32C0xx_HAL_Driver/Src/stm32c0xx_hal_flash_ex.c ****           /* In case of error, stop erase procedure and return the faulty address */
 182:Drivers/STM32C0xx_HAL_Driver/Src/stm32c0xx_hal_flash_ex.c ****           *PageError = index;
 183:Drivers/STM32C0xx_HAL_Driver/Src/stm32c0xx_hal_flash_ex.c ****           break;
 184:Drivers/STM32C0xx_HAL_Driver/Src/stm32c0xx_hal_flash_ex.c ****         }
 185:Drivers/STM32C0xx_HAL_Driver/Src/stm32c0xx_hal_flash_ex.c ****       }
 186:Drivers/STM32C0xx_HAL_Driver/Src/stm32c0xx_hal_flash_ex.c **** 
 187:Drivers/STM32C0xx_HAL_Driver/Src/stm32c0xx_hal_flash_ex.c ****       /* If operation is completed or interrupted, disable the Page Erase Bit */
 188:Drivers/STM32C0xx_HAL_Driver/Src/stm32c0xx_hal_flash_ex.c ****       CLEAR_BIT(FLASH->CR, FLASH_CR_PER);
 189:Drivers/STM32C0xx_HAL_Driver/Src/stm32c0xx_hal_flash_ex.c ****     }
 190:Drivers/STM32C0xx_HAL_Driver/Src/stm32c0xx_hal_flash_ex.c ****   }
 191:Drivers/STM32C0xx_HAL_Driver/Src/stm32c0xx_hal_flash_ex.c **** 
 192:Drivers/STM32C0xx_HAL_Driver/Src/stm32c0xx_hal_flash_ex.c ****   /* Process Unlocked */
 193:Drivers/STM32C0xx_HAL_Driver/Src/stm32c0xx_hal_flash_ex.c ****   __HAL_UNLOCK(&pFlash);
 194:Drivers/STM32C0xx_HAL_Driver/Src/stm32c0xx_hal_flash_ex.c **** 
 195:Drivers/STM32C0xx_HAL_Driver/Src/stm32c0xx_hal_flash_ex.c ****   /* return status */
 196:Drivers/STM32C0xx_HAL_Driver/Src/stm32c0xx_hal_flash_ex.c ****   return status;
 197:Drivers/STM32C0xx_HAL_Driver/Src/stm32c0xx_hal_flash_ex.c **** }
 198:Drivers/STM32C0xx_HAL_Driver/Src/stm32c0xx_hal_flash_ex.c **** 
 199:Drivers/STM32C0xx_HAL_Driver/Src/stm32c0xx_hal_flash_ex.c **** 
 200:Drivers/STM32C0xx_HAL_Driver/Src/stm32c0xx_hal_flash_ex.c **** /**
 201:Drivers/STM32C0xx_HAL_Driver/Src/stm32c0xx_hal_flash_ex.c ****   * @brief  Perform a mass erase or erase the specified FLASH memory pages with interrupt enabled.
 202:Drivers/STM32C0xx_HAL_Driver/Src/stm32c0xx_hal_flash_ex.c ****   * @param  pEraseInit Pointer to an @ref FLASH_EraseInitTypeDef structure that
 203:Drivers/STM32C0xx_HAL_Driver/Src/stm32c0xx_hal_flash_ex.c ****   *         contains the configuration information for the erasing.
 204:Drivers/STM32C0xx_HAL_Driver/Src/stm32c0xx_hal_flash_ex.c ****   * @retval HAL Status
ARM GAS  C:\Users\main\AppData\Local\Temp\ccuDNLmp.s 			page 5


 205:Drivers/STM32C0xx_HAL_Driver/Src/stm32c0xx_hal_flash_ex.c ****   */
 206:Drivers/STM32C0xx_HAL_Driver/Src/stm32c0xx_hal_flash_ex.c **** HAL_StatusTypeDef HAL_FLASHEx_Erase_IT(FLASH_EraseInitTypeDef *pEraseInit)
 207:Drivers/STM32C0xx_HAL_Driver/Src/stm32c0xx_hal_flash_ex.c **** {
 208:Drivers/STM32C0xx_HAL_Driver/Src/stm32c0xx_hal_flash_ex.c ****   HAL_StatusTypeDef status;
 209:Drivers/STM32C0xx_HAL_Driver/Src/stm32c0xx_hal_flash_ex.c **** 
 210:Drivers/STM32C0xx_HAL_Driver/Src/stm32c0xx_hal_flash_ex.c ****   /* Check the parameters */
 211:Drivers/STM32C0xx_HAL_Driver/Src/stm32c0xx_hal_flash_ex.c ****   assert_param(IS_FLASH_TYPEERASE(pEraseInit->TypeErase));
 212:Drivers/STM32C0xx_HAL_Driver/Src/stm32c0xx_hal_flash_ex.c **** 
 213:Drivers/STM32C0xx_HAL_Driver/Src/stm32c0xx_hal_flash_ex.c ****   /* Process Locked */
 214:Drivers/STM32C0xx_HAL_Driver/Src/stm32c0xx_hal_flash_ex.c ****   __HAL_LOCK(&pFlash);
 215:Drivers/STM32C0xx_HAL_Driver/Src/stm32c0xx_hal_flash_ex.c **** 
 216:Drivers/STM32C0xx_HAL_Driver/Src/stm32c0xx_hal_flash_ex.c ****   /* Reset error code */
 217:Drivers/STM32C0xx_HAL_Driver/Src/stm32c0xx_hal_flash_ex.c ****   pFlash.ErrorCode = HAL_FLASH_ERROR_NONE;
 218:Drivers/STM32C0xx_HAL_Driver/Src/stm32c0xx_hal_flash_ex.c **** 
 219:Drivers/STM32C0xx_HAL_Driver/Src/stm32c0xx_hal_flash_ex.c ****   /* save procedure for interrupt treatment */
 220:Drivers/STM32C0xx_HAL_Driver/Src/stm32c0xx_hal_flash_ex.c ****   pFlash.ProcedureOnGoing = pEraseInit->TypeErase;
 221:Drivers/STM32C0xx_HAL_Driver/Src/stm32c0xx_hal_flash_ex.c **** 
 222:Drivers/STM32C0xx_HAL_Driver/Src/stm32c0xx_hal_flash_ex.c ****   /* Wait for last operation to be completed */
 223:Drivers/STM32C0xx_HAL_Driver/Src/stm32c0xx_hal_flash_ex.c ****   status = FLASH_WaitForLastOperation(FLASH_TIMEOUT_VALUE);
 224:Drivers/STM32C0xx_HAL_Driver/Src/stm32c0xx_hal_flash_ex.c **** 
 225:Drivers/STM32C0xx_HAL_Driver/Src/stm32c0xx_hal_flash_ex.c ****   if (status != HAL_OK)
 226:Drivers/STM32C0xx_HAL_Driver/Src/stm32c0xx_hal_flash_ex.c ****   {
 227:Drivers/STM32C0xx_HAL_Driver/Src/stm32c0xx_hal_flash_ex.c ****     /* Process Unlocked */
 228:Drivers/STM32C0xx_HAL_Driver/Src/stm32c0xx_hal_flash_ex.c ****     __HAL_UNLOCK(&pFlash);
 229:Drivers/STM32C0xx_HAL_Driver/Src/stm32c0xx_hal_flash_ex.c ****   }
 230:Drivers/STM32C0xx_HAL_Driver/Src/stm32c0xx_hal_flash_ex.c ****   else
 231:Drivers/STM32C0xx_HAL_Driver/Src/stm32c0xx_hal_flash_ex.c ****   {
 232:Drivers/STM32C0xx_HAL_Driver/Src/stm32c0xx_hal_flash_ex.c ****     /* Enable End of Operation and Error interrupts */
 233:Drivers/STM32C0xx_HAL_Driver/Src/stm32c0xx_hal_flash_ex.c ****     __HAL_FLASH_ENABLE_IT(FLASH_IT_EOP | FLASH_IT_OPERR);
 234:Drivers/STM32C0xx_HAL_Driver/Src/stm32c0xx_hal_flash_ex.c **** 
 235:Drivers/STM32C0xx_HAL_Driver/Src/stm32c0xx_hal_flash_ex.c ****     if (pEraseInit->TypeErase == FLASH_TYPEERASE_MASS)
 236:Drivers/STM32C0xx_HAL_Driver/Src/stm32c0xx_hal_flash_ex.c ****     {
 237:Drivers/STM32C0xx_HAL_Driver/Src/stm32c0xx_hal_flash_ex.c ****       /* Set Page to 0 for Interrupt callback management */
 238:Drivers/STM32C0xx_HAL_Driver/Src/stm32c0xx_hal_flash_ex.c ****       pFlash.Page = 0;
 239:Drivers/STM32C0xx_HAL_Driver/Src/stm32c0xx_hal_flash_ex.c **** 
 240:Drivers/STM32C0xx_HAL_Driver/Src/stm32c0xx_hal_flash_ex.c ****       /* Proceed to Mass Erase */
 241:Drivers/STM32C0xx_HAL_Driver/Src/stm32c0xx_hal_flash_ex.c ****       FLASH_MassErase();
 242:Drivers/STM32C0xx_HAL_Driver/Src/stm32c0xx_hal_flash_ex.c ****     }
 243:Drivers/STM32C0xx_HAL_Driver/Src/stm32c0xx_hal_flash_ex.c ****     else
 244:Drivers/STM32C0xx_HAL_Driver/Src/stm32c0xx_hal_flash_ex.c ****     {
 245:Drivers/STM32C0xx_HAL_Driver/Src/stm32c0xx_hal_flash_ex.c ****       /* Erase by page to be done */
 246:Drivers/STM32C0xx_HAL_Driver/Src/stm32c0xx_hal_flash_ex.c ****       pFlash.NbPagesToErase = pEraseInit->NbPages;
 247:Drivers/STM32C0xx_HAL_Driver/Src/stm32c0xx_hal_flash_ex.c ****       pFlash.Page = pEraseInit->Page;
 248:Drivers/STM32C0xx_HAL_Driver/Src/stm32c0xx_hal_flash_ex.c **** 
 249:Drivers/STM32C0xx_HAL_Driver/Src/stm32c0xx_hal_flash_ex.c ****       /*Erase 1st page and wait for IT */
 250:Drivers/STM32C0xx_HAL_Driver/Src/stm32c0xx_hal_flash_ex.c ****       FLASH_PageErase(pEraseInit->Page);
 251:Drivers/STM32C0xx_HAL_Driver/Src/stm32c0xx_hal_flash_ex.c ****     }
 252:Drivers/STM32C0xx_HAL_Driver/Src/stm32c0xx_hal_flash_ex.c ****   }
 253:Drivers/STM32C0xx_HAL_Driver/Src/stm32c0xx_hal_flash_ex.c **** 
 254:Drivers/STM32C0xx_HAL_Driver/Src/stm32c0xx_hal_flash_ex.c ****   /* return status */
 255:Drivers/STM32C0xx_HAL_Driver/Src/stm32c0xx_hal_flash_ex.c ****   return status;
 256:Drivers/STM32C0xx_HAL_Driver/Src/stm32c0xx_hal_flash_ex.c **** }
 257:Drivers/STM32C0xx_HAL_Driver/Src/stm32c0xx_hal_flash_ex.c **** 
 258:Drivers/STM32C0xx_HAL_Driver/Src/stm32c0xx_hal_flash_ex.c **** /**
 259:Drivers/STM32C0xx_HAL_Driver/Src/stm32c0xx_hal_flash_ex.c ****   * @brief  Program Option bytes.
 260:Drivers/STM32C0xx_HAL_Driver/Src/stm32c0xx_hal_flash_ex.c ****   * @param  pOBInit Pointer to an @ref FLASH_OBProgramInitTypeDef structure that
 261:Drivers/STM32C0xx_HAL_Driver/Src/stm32c0xx_hal_flash_ex.c ****   *         contains the configuration information for the programming.
ARM GAS  C:\Users\main\AppData\Local\Temp\ccuDNLmp.s 			page 6


 262:Drivers/STM32C0xx_HAL_Driver/Src/stm32c0xx_hal_flash_ex.c ****   * @note   To configure any option bytes, the option lock bit OPTLOCK must be
 263:Drivers/STM32C0xx_HAL_Driver/Src/stm32c0xx_hal_flash_ex.c ****   *         cleared with the call of @ref HAL_FLASH_OB_Unlock() function.
 264:Drivers/STM32C0xx_HAL_Driver/Src/stm32c0xx_hal_flash_ex.c ****   * @note   New option bytes configuration will be taken into account only
 265:Drivers/STM32C0xx_HAL_Driver/Src/stm32c0xx_hal_flash_ex.c ****   *         - after an option bytes launch through the call of @ref HAL_FLASH_OB_Launch()
 266:Drivers/STM32C0xx_HAL_Driver/Src/stm32c0xx_hal_flash_ex.c ****   *         - a Power On Reset
 267:Drivers/STM32C0xx_HAL_Driver/Src/stm32c0xx_hal_flash_ex.c ****   *         - an exit from Standby or Shutdown mode.
 268:Drivers/STM32C0xx_HAL_Driver/Src/stm32c0xx_hal_flash_ex.c ****   * @retval HAL Status
 269:Drivers/STM32C0xx_HAL_Driver/Src/stm32c0xx_hal_flash_ex.c ****   */
 270:Drivers/STM32C0xx_HAL_Driver/Src/stm32c0xx_hal_flash_ex.c **** HAL_StatusTypeDef HAL_FLASHEx_OBProgram(FLASH_OBProgramInitTypeDef *pOBInit)
 271:Drivers/STM32C0xx_HAL_Driver/Src/stm32c0xx_hal_flash_ex.c **** {
 272:Drivers/STM32C0xx_HAL_Driver/Src/stm32c0xx_hal_flash_ex.c ****   uint32_t optr;
 273:Drivers/STM32C0xx_HAL_Driver/Src/stm32c0xx_hal_flash_ex.c ****   HAL_StatusTypeDef status;
 274:Drivers/STM32C0xx_HAL_Driver/Src/stm32c0xx_hal_flash_ex.c **** 
 275:Drivers/STM32C0xx_HAL_Driver/Src/stm32c0xx_hal_flash_ex.c ****   /* Check the parameters */
 276:Drivers/STM32C0xx_HAL_Driver/Src/stm32c0xx_hal_flash_ex.c ****   assert_param(IS_OPTIONBYTE(pOBInit->OptionType));
 277:Drivers/STM32C0xx_HAL_Driver/Src/stm32c0xx_hal_flash_ex.c **** 
 278:Drivers/STM32C0xx_HAL_Driver/Src/stm32c0xx_hal_flash_ex.c ****   /* Process Locked */
 279:Drivers/STM32C0xx_HAL_Driver/Src/stm32c0xx_hal_flash_ex.c ****   __HAL_LOCK(&pFlash);
 280:Drivers/STM32C0xx_HAL_Driver/Src/stm32c0xx_hal_flash_ex.c **** 
 281:Drivers/STM32C0xx_HAL_Driver/Src/stm32c0xx_hal_flash_ex.c ****   pFlash.ErrorCode = HAL_FLASH_ERROR_NONE;
 282:Drivers/STM32C0xx_HAL_Driver/Src/stm32c0xx_hal_flash_ex.c **** 
 283:Drivers/STM32C0xx_HAL_Driver/Src/stm32c0xx_hal_flash_ex.c ****   /* Write protection configuration */
 284:Drivers/STM32C0xx_HAL_Driver/Src/stm32c0xx_hal_flash_ex.c ****   if ((pOBInit->OptionType & OPTIONBYTE_WRP) != 0x00U)
 285:Drivers/STM32C0xx_HAL_Driver/Src/stm32c0xx_hal_flash_ex.c ****   {
 286:Drivers/STM32C0xx_HAL_Driver/Src/stm32c0xx_hal_flash_ex.c ****     /* Configure of Write protection on the selected area */
 287:Drivers/STM32C0xx_HAL_Driver/Src/stm32c0xx_hal_flash_ex.c ****     FLASH_OB_WRPConfig(pOBInit->WRPArea, pOBInit->WRPStartOffset, pOBInit->WRPEndOffset);
 288:Drivers/STM32C0xx_HAL_Driver/Src/stm32c0xx_hal_flash_ex.c ****   }
 289:Drivers/STM32C0xx_HAL_Driver/Src/stm32c0xx_hal_flash_ex.c **** 
 290:Drivers/STM32C0xx_HAL_Driver/Src/stm32c0xx_hal_flash_ex.c ****   /* Option register */
 291:Drivers/STM32C0xx_HAL_Driver/Src/stm32c0xx_hal_flash_ex.c ****   if ((pOBInit->OptionType & (OPTIONBYTE_RDP | OPTIONBYTE_USER)) == (OPTIONBYTE_RDP | OPTIONBYTE_US
 292:Drivers/STM32C0xx_HAL_Driver/Src/stm32c0xx_hal_flash_ex.c ****   {
 293:Drivers/STM32C0xx_HAL_Driver/Src/stm32c0xx_hal_flash_ex.c ****     /* Fully modify OPTR register with RDP & user data */
 294:Drivers/STM32C0xx_HAL_Driver/Src/stm32c0xx_hal_flash_ex.c ****     FLASH_OB_OptrConfig(pOBInit->USERType, pOBInit->USERConfig, pOBInit->RDPLevel);
 295:Drivers/STM32C0xx_HAL_Driver/Src/stm32c0xx_hal_flash_ex.c ****   }
 296:Drivers/STM32C0xx_HAL_Driver/Src/stm32c0xx_hal_flash_ex.c ****   else if ((pOBInit->OptionType & OPTIONBYTE_RDP) != 0x00U)
 297:Drivers/STM32C0xx_HAL_Driver/Src/stm32c0xx_hal_flash_ex.c ****   {
 298:Drivers/STM32C0xx_HAL_Driver/Src/stm32c0xx_hal_flash_ex.c ****     /* Only modify RDP so get current user data */
 299:Drivers/STM32C0xx_HAL_Driver/Src/stm32c0xx_hal_flash_ex.c ****     optr = FLASH_OB_GetUser();
 300:Drivers/STM32C0xx_HAL_Driver/Src/stm32c0xx_hal_flash_ex.c ****     FLASH_OB_OptrConfig(optr, optr, pOBInit->RDPLevel);
 301:Drivers/STM32C0xx_HAL_Driver/Src/stm32c0xx_hal_flash_ex.c ****   }
 302:Drivers/STM32C0xx_HAL_Driver/Src/stm32c0xx_hal_flash_ex.c ****   else if ((pOBInit->OptionType & OPTIONBYTE_USER) != 0x00U)
 303:Drivers/STM32C0xx_HAL_Driver/Src/stm32c0xx_hal_flash_ex.c ****   {
 304:Drivers/STM32C0xx_HAL_Driver/Src/stm32c0xx_hal_flash_ex.c ****     /* Only modify user so get current RDP level */
 305:Drivers/STM32C0xx_HAL_Driver/Src/stm32c0xx_hal_flash_ex.c ****     optr = FLASH_OB_GetRDP();
 306:Drivers/STM32C0xx_HAL_Driver/Src/stm32c0xx_hal_flash_ex.c ****     FLASH_OB_OptrConfig(pOBInit->USERType, pOBInit->USERConfig, optr);
 307:Drivers/STM32C0xx_HAL_Driver/Src/stm32c0xx_hal_flash_ex.c ****   }
 308:Drivers/STM32C0xx_HAL_Driver/Src/stm32c0xx_hal_flash_ex.c ****   else
 309:Drivers/STM32C0xx_HAL_Driver/Src/stm32c0xx_hal_flash_ex.c ****   {
 310:Drivers/STM32C0xx_HAL_Driver/Src/stm32c0xx_hal_flash_ex.c ****     /* nothing to do */
 311:Drivers/STM32C0xx_HAL_Driver/Src/stm32c0xx_hal_flash_ex.c ****   }
 312:Drivers/STM32C0xx_HAL_Driver/Src/stm32c0xx_hal_flash_ex.c **** 
 313:Drivers/STM32C0xx_HAL_Driver/Src/stm32c0xx_hal_flash_ex.c ****   /* PCROP Configuration */
 314:Drivers/STM32C0xx_HAL_Driver/Src/stm32c0xx_hal_flash_ex.c ****   if ((pOBInit->OptionType & OPTIONBYTE_PCROP) != 0x00U)
 315:Drivers/STM32C0xx_HAL_Driver/Src/stm32c0xx_hal_flash_ex.c ****   {
 316:Drivers/STM32C0xx_HAL_Driver/Src/stm32c0xx_hal_flash_ex.c ****     /* Check the parameters */
 317:Drivers/STM32C0xx_HAL_Driver/Src/stm32c0xx_hal_flash_ex.c ****     assert_param(IS_OB_PCROP_CONFIG(pOBInit->PCROPConfig));
 318:Drivers/STM32C0xx_HAL_Driver/Src/stm32c0xx_hal_flash_ex.c **** 
ARM GAS  C:\Users\main\AppData\Local\Temp\ccuDNLmp.s 			page 7


 319:Drivers/STM32C0xx_HAL_Driver/Src/stm32c0xx_hal_flash_ex.c ****     if ((pOBInit->PCROPConfig & (OB_PCROP_ZONE_A | OB_PCROP_RDP_ERASE)) != 0x00U)
 320:Drivers/STM32C0xx_HAL_Driver/Src/stm32c0xx_hal_flash_ex.c ****     {
 321:Drivers/STM32C0xx_HAL_Driver/Src/stm32c0xx_hal_flash_ex.c ****       /* Configure the 1A Proprietary code readout protection */
 322:Drivers/STM32C0xx_HAL_Driver/Src/stm32c0xx_hal_flash_ex.c ****       FLASH_OB_PCROP1AConfig(pOBInit->PCROPConfig, pOBInit->PCROP1AStartAddr, pOBInit->PCROP1AEndAd
 323:Drivers/STM32C0xx_HAL_Driver/Src/stm32c0xx_hal_flash_ex.c ****     }
 324:Drivers/STM32C0xx_HAL_Driver/Src/stm32c0xx_hal_flash_ex.c **** 
 325:Drivers/STM32C0xx_HAL_Driver/Src/stm32c0xx_hal_flash_ex.c ****     if ((pOBInit->PCROPConfig & OB_PCROP_ZONE_B) != 0x00U)
 326:Drivers/STM32C0xx_HAL_Driver/Src/stm32c0xx_hal_flash_ex.c ****     {
 327:Drivers/STM32C0xx_HAL_Driver/Src/stm32c0xx_hal_flash_ex.c ****       /* Configure the 1B Proprietary code readout protection */
 328:Drivers/STM32C0xx_HAL_Driver/Src/stm32c0xx_hal_flash_ex.c ****       FLASH_OB_PCROP1BConfig(pOBInit->PCROP1BStartAddr, pOBInit->PCROP1BEndAddr);
 329:Drivers/STM32C0xx_HAL_Driver/Src/stm32c0xx_hal_flash_ex.c ****     }
 330:Drivers/STM32C0xx_HAL_Driver/Src/stm32c0xx_hal_flash_ex.c ****   }
 331:Drivers/STM32C0xx_HAL_Driver/Src/stm32c0xx_hal_flash_ex.c **** 
 332:Drivers/STM32C0xx_HAL_Driver/Src/stm32c0xx_hal_flash_ex.c ****   /* Securable Memory Area Configuration */
 333:Drivers/STM32C0xx_HAL_Driver/Src/stm32c0xx_hal_flash_ex.c ****   if ((pOBInit->OptionType & OPTIONBYTE_SEC) != 0x00U)
 334:Drivers/STM32C0xx_HAL_Driver/Src/stm32c0xx_hal_flash_ex.c ****   {
 335:Drivers/STM32C0xx_HAL_Driver/Src/stm32c0xx_hal_flash_ex.c ****     /* Configure the securable memory area protection */
 336:Drivers/STM32C0xx_HAL_Driver/Src/stm32c0xx_hal_flash_ex.c ****     FLASH_OB_SecMemConfig(pOBInit->BootEntryPoint, pOBInit->SecSize);
 337:Drivers/STM32C0xx_HAL_Driver/Src/stm32c0xx_hal_flash_ex.c ****   }
 338:Drivers/STM32C0xx_HAL_Driver/Src/stm32c0xx_hal_flash_ex.c **** 
 339:Drivers/STM32C0xx_HAL_Driver/Src/stm32c0xx_hal_flash_ex.c **** 
 340:Drivers/STM32C0xx_HAL_Driver/Src/stm32c0xx_hal_flash_ex.c ****   /* Wait for last operation to be completed */
 341:Drivers/STM32C0xx_HAL_Driver/Src/stm32c0xx_hal_flash_ex.c ****   status = FLASH_WaitForLastOperation(FLASH_TIMEOUT_VALUE);
 342:Drivers/STM32C0xx_HAL_Driver/Src/stm32c0xx_hal_flash_ex.c **** 
 343:Drivers/STM32C0xx_HAL_Driver/Src/stm32c0xx_hal_flash_ex.c ****   if (status == HAL_OK)
 344:Drivers/STM32C0xx_HAL_Driver/Src/stm32c0xx_hal_flash_ex.c ****   {
 345:Drivers/STM32C0xx_HAL_Driver/Src/stm32c0xx_hal_flash_ex.c ****     /* Set OPTSTRT Bit */
 346:Drivers/STM32C0xx_HAL_Driver/Src/stm32c0xx_hal_flash_ex.c ****     SET_BIT(FLASH->CR, FLASH_CR_OPTSTRT);
 347:Drivers/STM32C0xx_HAL_Driver/Src/stm32c0xx_hal_flash_ex.c **** 
 348:Drivers/STM32C0xx_HAL_Driver/Src/stm32c0xx_hal_flash_ex.c ****     /* Wait for last operation to be completed */
 349:Drivers/STM32C0xx_HAL_Driver/Src/stm32c0xx_hal_flash_ex.c ****     status = FLASH_WaitForLastOperation(FLASH_TIMEOUT_VALUE);
 350:Drivers/STM32C0xx_HAL_Driver/Src/stm32c0xx_hal_flash_ex.c **** 
 351:Drivers/STM32C0xx_HAL_Driver/Src/stm32c0xx_hal_flash_ex.c ****     /* If the option byte program operation is completed, disable the OPTSTRT Bit */
 352:Drivers/STM32C0xx_HAL_Driver/Src/stm32c0xx_hal_flash_ex.c ****     CLEAR_BIT(FLASH->CR, FLASH_CR_OPTSTRT);
 353:Drivers/STM32C0xx_HAL_Driver/Src/stm32c0xx_hal_flash_ex.c ****   }
 354:Drivers/STM32C0xx_HAL_Driver/Src/stm32c0xx_hal_flash_ex.c **** 
 355:Drivers/STM32C0xx_HAL_Driver/Src/stm32c0xx_hal_flash_ex.c ****   /* Process Unlocked */
 356:Drivers/STM32C0xx_HAL_Driver/Src/stm32c0xx_hal_flash_ex.c ****   __HAL_UNLOCK(&pFlash);
 357:Drivers/STM32C0xx_HAL_Driver/Src/stm32c0xx_hal_flash_ex.c **** 
 358:Drivers/STM32C0xx_HAL_Driver/Src/stm32c0xx_hal_flash_ex.c ****   /* return status */
 359:Drivers/STM32C0xx_HAL_Driver/Src/stm32c0xx_hal_flash_ex.c ****   return status;
 360:Drivers/STM32C0xx_HAL_Driver/Src/stm32c0xx_hal_flash_ex.c **** }
 361:Drivers/STM32C0xx_HAL_Driver/Src/stm32c0xx_hal_flash_ex.c **** 
 362:Drivers/STM32C0xx_HAL_Driver/Src/stm32c0xx_hal_flash_ex.c **** /**
 363:Drivers/STM32C0xx_HAL_Driver/Src/stm32c0xx_hal_flash_ex.c ****   * @brief  Get the Option bytes configuration.
 364:Drivers/STM32C0xx_HAL_Driver/Src/stm32c0xx_hal_flash_ex.c ****   * @note   warning: this API only read flash register, it does not reflect any
 365:Drivers/STM32C0xx_HAL_Driver/Src/stm32c0xx_hal_flash_ex.c ****   *         change that would have been programmed between previous Option byte
 366:Drivers/STM32C0xx_HAL_Driver/Src/stm32c0xx_hal_flash_ex.c ****   *         loading and current call.
 367:Drivers/STM32C0xx_HAL_Driver/Src/stm32c0xx_hal_flash_ex.c ****   * @param  pOBInit Pointer to an @ref FLASH_OBProgramInitTypeDef structure that contains the
 368:Drivers/STM32C0xx_HAL_Driver/Src/stm32c0xx_hal_flash_ex.c ****   *                  configuration information. The fields pOBInit->WRPArea and
 369:Drivers/STM32C0xx_HAL_Driver/Src/stm32c0xx_hal_flash_ex.c ****   *                  pOBInit->PCROPConfig should indicate which area is requested
 370:Drivers/STM32C0xx_HAL_Driver/Src/stm32c0xx_hal_flash_ex.c ****   *                  for the WRP and PCROP.
 371:Drivers/STM32C0xx_HAL_Driver/Src/stm32c0xx_hal_flash_ex.c ****   * @retval None
 372:Drivers/STM32C0xx_HAL_Driver/Src/stm32c0xx_hal_flash_ex.c ****   */
 373:Drivers/STM32C0xx_HAL_Driver/Src/stm32c0xx_hal_flash_ex.c **** void HAL_FLASHEx_OBGetConfig(FLASH_OBProgramInitTypeDef *pOBInit)
 374:Drivers/STM32C0xx_HAL_Driver/Src/stm32c0xx_hal_flash_ex.c **** {
 375:Drivers/STM32C0xx_HAL_Driver/Src/stm32c0xx_hal_flash_ex.c ****   pOBInit->OptionType = OPTIONBYTE_ALL;
ARM GAS  C:\Users\main\AppData\Local\Temp\ccuDNLmp.s 			page 8


 376:Drivers/STM32C0xx_HAL_Driver/Src/stm32c0xx_hal_flash_ex.c **** 
 377:Drivers/STM32C0xx_HAL_Driver/Src/stm32c0xx_hal_flash_ex.c ****   /* Get write protection on the selected area */
 378:Drivers/STM32C0xx_HAL_Driver/Src/stm32c0xx_hal_flash_ex.c ****   FLASH_OB_GetWRP(pOBInit->WRPArea, &(pOBInit->WRPStartOffset), &(pOBInit->WRPEndOffset));
 379:Drivers/STM32C0xx_HAL_Driver/Src/stm32c0xx_hal_flash_ex.c **** 
 380:Drivers/STM32C0xx_HAL_Driver/Src/stm32c0xx_hal_flash_ex.c ****   /* Get Read protection level */
 381:Drivers/STM32C0xx_HAL_Driver/Src/stm32c0xx_hal_flash_ex.c ****   pOBInit->RDPLevel = FLASH_OB_GetRDP();
 382:Drivers/STM32C0xx_HAL_Driver/Src/stm32c0xx_hal_flash_ex.c **** 
 383:Drivers/STM32C0xx_HAL_Driver/Src/stm32c0xx_hal_flash_ex.c ****   /* Get the user option bytes */
 384:Drivers/STM32C0xx_HAL_Driver/Src/stm32c0xx_hal_flash_ex.c ****   pOBInit->USERConfig = FLASH_OB_GetUser();
 385:Drivers/STM32C0xx_HAL_Driver/Src/stm32c0xx_hal_flash_ex.c ****   pOBInit->USERType = OB_USER_ALL;
 386:Drivers/STM32C0xx_HAL_Driver/Src/stm32c0xx_hal_flash_ex.c **** 
 387:Drivers/STM32C0xx_HAL_Driver/Src/stm32c0xx_hal_flash_ex.c ****   /* Get the Proprietary code readout protection */
 388:Drivers/STM32C0xx_HAL_Driver/Src/stm32c0xx_hal_flash_ex.c ****   FLASH_OB_GetPCROP1A(&(pOBInit->PCROPConfig), &(pOBInit->PCROP1AStartAddr), &(pOBInit->PCROP1AEndA
 389:Drivers/STM32C0xx_HAL_Driver/Src/stm32c0xx_hal_flash_ex.c ****   FLASH_OB_GetPCROP1B(&(pOBInit->PCROP1BStartAddr), &(pOBInit->PCROP1BEndAddr));
 390:Drivers/STM32C0xx_HAL_Driver/Src/stm32c0xx_hal_flash_ex.c ****   pOBInit->PCROPConfig |= (OB_PCROP_ZONE_A | OB_PCROP_ZONE_B);
 391:Drivers/STM32C0xx_HAL_Driver/Src/stm32c0xx_hal_flash_ex.c **** 
 392:Drivers/STM32C0xx_HAL_Driver/Src/stm32c0xx_hal_flash_ex.c ****   /* Get the Securable Memory Area protection */
 393:Drivers/STM32C0xx_HAL_Driver/Src/stm32c0xx_hal_flash_ex.c ****   FLASH_OB_GetSecMem(&(pOBInit->BootEntryPoint), &(pOBInit->SecSize));
 394:Drivers/STM32C0xx_HAL_Driver/Src/stm32c0xx_hal_flash_ex.c **** }
 395:Drivers/STM32C0xx_HAL_Driver/Src/stm32c0xx_hal_flash_ex.c **** 
 396:Drivers/STM32C0xx_HAL_Driver/Src/stm32c0xx_hal_flash_ex.c **** /**
 397:Drivers/STM32C0xx_HAL_Driver/Src/stm32c0xx_hal_flash_ex.c ****   * @brief  Enable Debugger.
 398:Drivers/STM32C0xx_HAL_Driver/Src/stm32c0xx_hal_flash_ex.c ****   * @note   After calling this API, flash interface allow debugger intrusion.
 399:Drivers/STM32C0xx_HAL_Driver/Src/stm32c0xx_hal_flash_ex.c ****   * @retval None
 400:Drivers/STM32C0xx_HAL_Driver/Src/stm32c0xx_hal_flash_ex.c ****   */
 401:Drivers/STM32C0xx_HAL_Driver/Src/stm32c0xx_hal_flash_ex.c **** void HAL_FLASHEx_EnableDebugger(void)
 402:Drivers/STM32C0xx_HAL_Driver/Src/stm32c0xx_hal_flash_ex.c **** {
 403:Drivers/STM32C0xx_HAL_Driver/Src/stm32c0xx_hal_flash_ex.c ****   FLASH->ACR |= FLASH_ACR_DBG_SWEN;
 404:Drivers/STM32C0xx_HAL_Driver/Src/stm32c0xx_hal_flash_ex.c **** }
 405:Drivers/STM32C0xx_HAL_Driver/Src/stm32c0xx_hal_flash_ex.c **** 
 406:Drivers/STM32C0xx_HAL_Driver/Src/stm32c0xx_hal_flash_ex.c **** /**
 407:Drivers/STM32C0xx_HAL_Driver/Src/stm32c0xx_hal_flash_ex.c ****   * @brief  Disable Debugger.
 408:Drivers/STM32C0xx_HAL_Driver/Src/stm32c0xx_hal_flash_ex.c ****   * @note   After calling this API, Debugger is disabled: it is no more possible to
 409:Drivers/STM32C0xx_HAL_Driver/Src/stm32c0xx_hal_flash_ex.c ****   *         break, see CPU register, etc...
 410:Drivers/STM32C0xx_HAL_Driver/Src/stm32c0xx_hal_flash_ex.c ****   * @retval None
 411:Drivers/STM32C0xx_HAL_Driver/Src/stm32c0xx_hal_flash_ex.c ****   */
 412:Drivers/STM32C0xx_HAL_Driver/Src/stm32c0xx_hal_flash_ex.c **** void HAL_FLASHEx_DisableDebugger(void)
 413:Drivers/STM32C0xx_HAL_Driver/Src/stm32c0xx_hal_flash_ex.c **** {
 414:Drivers/STM32C0xx_HAL_Driver/Src/stm32c0xx_hal_flash_ex.c ****   FLASH->ACR &= ~FLASH_ACR_DBG_SWEN;
 415:Drivers/STM32C0xx_HAL_Driver/Src/stm32c0xx_hal_flash_ex.c **** }
 416:Drivers/STM32C0xx_HAL_Driver/Src/stm32c0xx_hal_flash_ex.c **** 
 417:Drivers/STM32C0xx_HAL_Driver/Src/stm32c0xx_hal_flash_ex.c **** /**
 418:Drivers/STM32C0xx_HAL_Driver/Src/stm32c0xx_hal_flash_ex.c ****   * @brief  Flash Empty check
 419:Drivers/STM32C0xx_HAL_Driver/Src/stm32c0xx_hal_flash_ex.c ****   * @note   This API checks if first location in Flash is programmed or not.
 420:Drivers/STM32C0xx_HAL_Driver/Src/stm32c0xx_hal_flash_ex.c ****   *         This check is done once by Option Byte Loader.
 421:Drivers/STM32C0xx_HAL_Driver/Src/stm32c0xx_hal_flash_ex.c ****   * @retval 0 if 1st location is not programmed else
 422:Drivers/STM32C0xx_HAL_Driver/Src/stm32c0xx_hal_flash_ex.c ****   */
 423:Drivers/STM32C0xx_HAL_Driver/Src/stm32c0xx_hal_flash_ex.c **** uint32_t HAL_FLASHEx_FlashEmptyCheck(void)
 424:Drivers/STM32C0xx_HAL_Driver/Src/stm32c0xx_hal_flash_ex.c **** {
 425:Drivers/STM32C0xx_HAL_Driver/Src/stm32c0xx_hal_flash_ex.c ****   return ((FLASH->ACR & FLASH_ACR_PROGEMPTY));
 426:Drivers/STM32C0xx_HAL_Driver/Src/stm32c0xx_hal_flash_ex.c **** }
 427:Drivers/STM32C0xx_HAL_Driver/Src/stm32c0xx_hal_flash_ex.c **** 
 428:Drivers/STM32C0xx_HAL_Driver/Src/stm32c0xx_hal_flash_ex.c **** 
 429:Drivers/STM32C0xx_HAL_Driver/Src/stm32c0xx_hal_flash_ex.c **** /**
 430:Drivers/STM32C0xx_HAL_Driver/Src/stm32c0xx_hal_flash_ex.c ****   * @brief  Force Empty check value.
 431:Drivers/STM32C0xx_HAL_Driver/Src/stm32c0xx_hal_flash_ex.c ****   * @note   Allows to modify program empty check value in order to force this
 432:Drivers/STM32C0xx_HAL_Driver/Src/stm32c0xx_hal_flash_ex.c ****   *         infrmation in Flash Interface, for all next reset that do not launch
ARM GAS  C:\Users\main\AppData\Local\Temp\ccuDNLmp.s 			page 9


 433:Drivers/STM32C0xx_HAL_Driver/Src/stm32c0xx_hal_flash_ex.c ****   *         Option Byte Loader.
 434:Drivers/STM32C0xx_HAL_Driver/Src/stm32c0xx_hal_flash_ex.c ****   * @param  FlashEmpty this parameter can be a value of @ref FLASHEx_Empty_Check
 435:Drivers/STM32C0xx_HAL_Driver/Src/stm32c0xx_hal_flash_ex.c ****   * @retval None
 436:Drivers/STM32C0xx_HAL_Driver/Src/stm32c0xx_hal_flash_ex.c ****   */
 437:Drivers/STM32C0xx_HAL_Driver/Src/stm32c0xx_hal_flash_ex.c **** void HAL_FLASHEx_ForceFlashEmpty(uint32_t FlashEmpty)
 438:Drivers/STM32C0xx_HAL_Driver/Src/stm32c0xx_hal_flash_ex.c **** {
 439:Drivers/STM32C0xx_HAL_Driver/Src/stm32c0xx_hal_flash_ex.c ****   uint32_t acr;
 440:Drivers/STM32C0xx_HAL_Driver/Src/stm32c0xx_hal_flash_ex.c ****   assert_param(IS_FLASH_EMPTY_CHECK(FlashEmpty));
 441:Drivers/STM32C0xx_HAL_Driver/Src/stm32c0xx_hal_flash_ex.c **** 
 442:Drivers/STM32C0xx_HAL_Driver/Src/stm32c0xx_hal_flash_ex.c ****   acr = (FLASH->ACR & ~FLASH_ACR_PROGEMPTY);
 443:Drivers/STM32C0xx_HAL_Driver/Src/stm32c0xx_hal_flash_ex.c ****   FLASH->ACR = (acr | FlashEmpty);
 444:Drivers/STM32C0xx_HAL_Driver/Src/stm32c0xx_hal_flash_ex.c **** }
 445:Drivers/STM32C0xx_HAL_Driver/Src/stm32c0xx_hal_flash_ex.c **** 
 446:Drivers/STM32C0xx_HAL_Driver/Src/stm32c0xx_hal_flash_ex.c **** /**
 447:Drivers/STM32C0xx_HAL_Driver/Src/stm32c0xx_hal_flash_ex.c ****   * @brief  Securable memory area protection enable
 448:Drivers/STM32C0xx_HAL_Driver/Src/stm32c0xx_hal_flash_ex.c ****   * @param  Bank Select Bank to be secured. On C0, there is only 1 bank so
 449:Drivers/STM32C0xx_HAL_Driver/Src/stm32c0xx_hal_flash_ex.c ****   *         parameter has to be set to 0.
 450:Drivers/STM32C0xx_HAL_Driver/Src/stm32c0xx_hal_flash_ex.c ****   * @note   This API locks Securable memory area which is defined in SEC_SIZE option byte
 451:Drivers/STM32C0xx_HAL_Driver/Src/stm32c0xx_hal_flash_ex.c ****   *         (that can be retrieved calling HAL_FLASHEx_OBGetConfig API and checking
 452:Drivers/STM32C0xx_HAL_Driver/Src/stm32c0xx_hal_flash_ex.c ****   *         Secsize).
 453:Drivers/STM32C0xx_HAL_Driver/Src/stm32c0xx_hal_flash_ex.c ****   * @note   SEC_PROT bit can only be set, it will be reset by system reset.
 454:Drivers/STM32C0xx_HAL_Driver/Src/stm32c0xx_hal_flash_ex.c ****   * @retval None
 455:Drivers/STM32C0xx_HAL_Driver/Src/stm32c0xx_hal_flash_ex.c ****   */
 456:Drivers/STM32C0xx_HAL_Driver/Src/stm32c0xx_hal_flash_ex.c **** void HAL_FLASHEx_EnableSecMemProtection(uint32_t Bank)
 457:Drivers/STM32C0xx_HAL_Driver/Src/stm32c0xx_hal_flash_ex.c **** {
 458:Drivers/STM32C0xx_HAL_Driver/Src/stm32c0xx_hal_flash_ex.c ****   assert_param(IS_FLASH_BANK(Bank));
 459:Drivers/STM32C0xx_HAL_Driver/Src/stm32c0xx_hal_flash_ex.c ****   FLASH->CR |= FLASH_CR_SEC_PROT;
 460:Drivers/STM32C0xx_HAL_Driver/Src/stm32c0xx_hal_flash_ex.c **** }
 461:Drivers/STM32C0xx_HAL_Driver/Src/stm32c0xx_hal_flash_ex.c **** 
 462:Drivers/STM32C0xx_HAL_Driver/Src/stm32c0xx_hal_flash_ex.c **** /**
 463:Drivers/STM32C0xx_HAL_Driver/Src/stm32c0xx_hal_flash_ex.c ****   * @}
 464:Drivers/STM32C0xx_HAL_Driver/Src/stm32c0xx_hal_flash_ex.c ****   */
 465:Drivers/STM32C0xx_HAL_Driver/Src/stm32c0xx_hal_flash_ex.c **** 
 466:Drivers/STM32C0xx_HAL_Driver/Src/stm32c0xx_hal_flash_ex.c **** /**
 467:Drivers/STM32C0xx_HAL_Driver/Src/stm32c0xx_hal_flash_ex.c ****   * @}
 468:Drivers/STM32C0xx_HAL_Driver/Src/stm32c0xx_hal_flash_ex.c ****   */
 469:Drivers/STM32C0xx_HAL_Driver/Src/stm32c0xx_hal_flash_ex.c **** 
 470:Drivers/STM32C0xx_HAL_Driver/Src/stm32c0xx_hal_flash_ex.c **** /* Private functions ---------------------------------------------------------*/
 471:Drivers/STM32C0xx_HAL_Driver/Src/stm32c0xx_hal_flash_ex.c **** /** @addtogroup FLASHEx_Private_Functions
 472:Drivers/STM32C0xx_HAL_Driver/Src/stm32c0xx_hal_flash_ex.c ****   * @{
 473:Drivers/STM32C0xx_HAL_Driver/Src/stm32c0xx_hal_flash_ex.c ****   */
 474:Drivers/STM32C0xx_HAL_Driver/Src/stm32c0xx_hal_flash_ex.c **** 
 475:Drivers/STM32C0xx_HAL_Driver/Src/stm32c0xx_hal_flash_ex.c **** /**
 476:Drivers/STM32C0xx_HAL_Driver/Src/stm32c0xx_hal_flash_ex.c ****   * @brief  Mass erase of FLASH memory.
 477:Drivers/STM32C0xx_HAL_Driver/Src/stm32c0xx_hal_flash_ex.c ****   * @retval None
 478:Drivers/STM32C0xx_HAL_Driver/Src/stm32c0xx_hal_flash_ex.c ****   */
 479:Drivers/STM32C0xx_HAL_Driver/Src/stm32c0xx_hal_flash_ex.c **** static void FLASH_MassErase(void)
 480:Drivers/STM32C0xx_HAL_Driver/Src/stm32c0xx_hal_flash_ex.c **** {
  26              		.loc 1 480 1 view -0
  27              		.cfi_startproc
  28              		@ args = 0, pretend = 0, frame = 0
  29              		@ frame_needed = 0, uses_anonymous_args = 0
  30              		@ link register save eliminated.
 481:Drivers/STM32C0xx_HAL_Driver/Src/stm32c0xx_hal_flash_ex.c ****   /* Set the Mass Erase Bit and start bit */
 482:Drivers/STM32C0xx_HAL_Driver/Src/stm32c0xx_hal_flash_ex.c ****   FLASH->CR |= (FLASH_CR_STRT | FLASH_CR_MER1);
  31              		.loc 1 482 3 view .LVU1
  32              		.loc 1 482 8 is_stmt 0 view .LVU2
ARM GAS  C:\Users\main\AppData\Local\Temp\ccuDNLmp.s 			page 10


  33 0000 024A     		ldr	r2, .L2
  34 0002 5169     		ldr	r1, [r2, #20]
  35              		.loc 1 482 13 view .LVU3
  36 0004 024B     		ldr	r3, .L2+4
  37 0006 0B43     		orrs	r3, r1
  38 0008 5361     		str	r3, [r2, #20]
 483:Drivers/STM32C0xx_HAL_Driver/Src/stm32c0xx_hal_flash_ex.c **** }
  39              		.loc 1 483 1 view .LVU4
  40              		@ sp needed
  41 000a 7047     		bx	lr
  42              	.L3:
  43              		.align	2
  44              	.L2:
  45 000c 00200240 		.word	1073881088
  46 0010 04000100 		.word	65540
  47              		.cfi_endproc
  48              	.LFE223:
  50              		.section	.text.FLASH_OB_WRPConfig,"ax",%progbits
  51              		.align	1
  52              		.syntax unified
  53              		.code	16
  54              		.thumb_func
  56              	FLASH_OB_WRPConfig:
  57              	.LVL0:
  58              	.LFB226:
 484:Drivers/STM32C0xx_HAL_Driver/Src/stm32c0xx_hal_flash_ex.c **** 
 485:Drivers/STM32C0xx_HAL_Driver/Src/stm32c0xx_hal_flash_ex.c **** /**
 486:Drivers/STM32C0xx_HAL_Driver/Src/stm32c0xx_hal_flash_ex.c ****   * @brief  Erase the specified FLASH memory page.
 487:Drivers/STM32C0xx_HAL_Driver/Src/stm32c0xx_hal_flash_ex.c ****   * @param  Page FLASH page to erase
 488:Drivers/STM32C0xx_HAL_Driver/Src/stm32c0xx_hal_flash_ex.c ****   *         This parameter must be a value between 0 and (max number of pages in Flash - 1)
 489:Drivers/STM32C0xx_HAL_Driver/Src/stm32c0xx_hal_flash_ex.c ****   * @retval None
 490:Drivers/STM32C0xx_HAL_Driver/Src/stm32c0xx_hal_flash_ex.c ****   */
 491:Drivers/STM32C0xx_HAL_Driver/Src/stm32c0xx_hal_flash_ex.c **** void FLASH_PageErase(uint32_t Page)
 492:Drivers/STM32C0xx_HAL_Driver/Src/stm32c0xx_hal_flash_ex.c **** {
 493:Drivers/STM32C0xx_HAL_Driver/Src/stm32c0xx_hal_flash_ex.c ****   uint32_t tmp;
 494:Drivers/STM32C0xx_HAL_Driver/Src/stm32c0xx_hal_flash_ex.c **** 
 495:Drivers/STM32C0xx_HAL_Driver/Src/stm32c0xx_hal_flash_ex.c ****   /* Check the parameters */
 496:Drivers/STM32C0xx_HAL_Driver/Src/stm32c0xx_hal_flash_ex.c ****   assert_param(IS_FLASH_PAGE(Page));
 497:Drivers/STM32C0xx_HAL_Driver/Src/stm32c0xx_hal_flash_ex.c **** 
 498:Drivers/STM32C0xx_HAL_Driver/Src/stm32c0xx_hal_flash_ex.c ****   /* Get configuration register, then clear page number */
 499:Drivers/STM32C0xx_HAL_Driver/Src/stm32c0xx_hal_flash_ex.c ****   tmp = (FLASH->CR & ~FLASH_CR_PNB);
 500:Drivers/STM32C0xx_HAL_Driver/Src/stm32c0xx_hal_flash_ex.c **** 
 501:Drivers/STM32C0xx_HAL_Driver/Src/stm32c0xx_hal_flash_ex.c ****   /* Set page number, Page Erase bit & Start bit */
 502:Drivers/STM32C0xx_HAL_Driver/Src/stm32c0xx_hal_flash_ex.c ****   FLASH->CR = (tmp | (FLASH_CR_STRT | (Page <<  FLASH_CR_PNB_Pos) | FLASH_CR_PER));
 503:Drivers/STM32C0xx_HAL_Driver/Src/stm32c0xx_hal_flash_ex.c **** }
 504:Drivers/STM32C0xx_HAL_Driver/Src/stm32c0xx_hal_flash_ex.c **** 
 505:Drivers/STM32C0xx_HAL_Driver/Src/stm32c0xx_hal_flash_ex.c **** /**
 506:Drivers/STM32C0xx_HAL_Driver/Src/stm32c0xx_hal_flash_ex.c ****   * @brief  Flush the instruction cache.
 507:Drivers/STM32C0xx_HAL_Driver/Src/stm32c0xx_hal_flash_ex.c ****   * @retval None
 508:Drivers/STM32C0xx_HAL_Driver/Src/stm32c0xx_hal_flash_ex.c ****   */
 509:Drivers/STM32C0xx_HAL_Driver/Src/stm32c0xx_hal_flash_ex.c **** void FLASH_FlushCaches(void)
 510:Drivers/STM32C0xx_HAL_Driver/Src/stm32c0xx_hal_flash_ex.c **** {
 511:Drivers/STM32C0xx_HAL_Driver/Src/stm32c0xx_hal_flash_ex.c ****   /* Flush instruction cache  */
 512:Drivers/STM32C0xx_HAL_Driver/Src/stm32c0xx_hal_flash_ex.c ****   if (READ_BIT(FLASH->ACR, FLASH_ACR_ICEN) != 0U)
 513:Drivers/STM32C0xx_HAL_Driver/Src/stm32c0xx_hal_flash_ex.c ****   {
 514:Drivers/STM32C0xx_HAL_Driver/Src/stm32c0xx_hal_flash_ex.c ****     /* Disable instruction cache  */
 515:Drivers/STM32C0xx_HAL_Driver/Src/stm32c0xx_hal_flash_ex.c ****     __HAL_FLASH_INSTRUCTION_CACHE_DISABLE();
ARM GAS  C:\Users\main\AppData\Local\Temp\ccuDNLmp.s 			page 11


 516:Drivers/STM32C0xx_HAL_Driver/Src/stm32c0xx_hal_flash_ex.c ****     /* Reset instruction cache */
 517:Drivers/STM32C0xx_HAL_Driver/Src/stm32c0xx_hal_flash_ex.c ****     __HAL_FLASH_INSTRUCTION_CACHE_RESET();
 518:Drivers/STM32C0xx_HAL_Driver/Src/stm32c0xx_hal_flash_ex.c ****     /* Enable instruction cache */
 519:Drivers/STM32C0xx_HAL_Driver/Src/stm32c0xx_hal_flash_ex.c ****     __HAL_FLASH_INSTRUCTION_CACHE_ENABLE();
 520:Drivers/STM32C0xx_HAL_Driver/Src/stm32c0xx_hal_flash_ex.c ****   }
 521:Drivers/STM32C0xx_HAL_Driver/Src/stm32c0xx_hal_flash_ex.c **** }
 522:Drivers/STM32C0xx_HAL_Driver/Src/stm32c0xx_hal_flash_ex.c **** 
 523:Drivers/STM32C0xx_HAL_Driver/Src/stm32c0xx_hal_flash_ex.c **** 
 524:Drivers/STM32C0xx_HAL_Driver/Src/stm32c0xx_hal_flash_ex.c **** /**
 525:Drivers/STM32C0xx_HAL_Driver/Src/stm32c0xx_hal_flash_ex.c ****   * @brief  Configure the write protection of the desired pages.
 526:Drivers/STM32C0xx_HAL_Driver/Src/stm32c0xx_hal_flash_ex.c ****   * @note   When WRP is active in a zone, it cannot be erased or programmed.
 527:Drivers/STM32C0xx_HAL_Driver/Src/stm32c0xx_hal_flash_ex.c ****   *         Consequently, a software mass erase cannot be performed if one zone
 528:Drivers/STM32C0xx_HAL_Driver/Src/stm32c0xx_hal_flash_ex.c ****   *         is write-protected.
 529:Drivers/STM32C0xx_HAL_Driver/Src/stm32c0xx_hal_flash_ex.c ****   * @note   When the memory read protection level is selected (RDP level = 1),
 530:Drivers/STM32C0xx_HAL_Driver/Src/stm32c0xx_hal_flash_ex.c ****   *         it is not possible to program or erase Flash memory if the CPU debug
 531:Drivers/STM32C0xx_HAL_Driver/Src/stm32c0xx_hal_flash_ex.c ****   *         features are connected (JTAG or single wire) or boot code is being
 532:Drivers/STM32C0xx_HAL_Driver/Src/stm32c0xx_hal_flash_ex.c ****   *         executed from RAM or System flash, even if WRP is not activated.
 533:Drivers/STM32C0xx_HAL_Driver/Src/stm32c0xx_hal_flash_ex.c ****   * @param  WRPArea  Specifies the area to be configured.
 534:Drivers/STM32C0xx_HAL_Driver/Src/stm32c0xx_hal_flash_ex.c ****   *         This parameter can be one of the following values:
 535:Drivers/STM32C0xx_HAL_Driver/Src/stm32c0xx_hal_flash_ex.c ****   *            @arg  @ref OB_WRPAREA_ZONE_A Flash Zone A
 536:Drivers/STM32C0xx_HAL_Driver/Src/stm32c0xx_hal_flash_ex.c ****   *            @arg  @ref OB_WRPAREA_ZONE_B Flash Zone B
 537:Drivers/STM32C0xx_HAL_Driver/Src/stm32c0xx_hal_flash_ex.c ****   * @param  WRPStartOffset  Specifies the start page of the write protected area
 538:Drivers/STM32C0xx_HAL_Driver/Src/stm32c0xx_hal_flash_ex.c ****   *         This parameter can be page number between 0 and (max number of pages in the Flash - 1)
 539:Drivers/STM32C0xx_HAL_Driver/Src/stm32c0xx_hal_flash_ex.c ****   * @param  WRDPEndOffset  Specifies the end page of the write protected area
 540:Drivers/STM32C0xx_HAL_Driver/Src/stm32c0xx_hal_flash_ex.c ****   *         This parameter can be page number between WRPStartOffset and (max number of pages in th
 541:Drivers/STM32C0xx_HAL_Driver/Src/stm32c0xx_hal_flash_ex.c ****   * @retval None
 542:Drivers/STM32C0xx_HAL_Driver/Src/stm32c0xx_hal_flash_ex.c ****   */
 543:Drivers/STM32C0xx_HAL_Driver/Src/stm32c0xx_hal_flash_ex.c **** static void FLASH_OB_WRPConfig(uint32_t WRPArea, uint32_t WRPStartOffset, uint32_t WRDPEndOffset)
 544:Drivers/STM32C0xx_HAL_Driver/Src/stm32c0xx_hal_flash_ex.c **** {
  59              		.loc 1 544 1 is_stmt 1 view -0
  60              		.cfi_startproc
  61              		@ args = 0, pretend = 0, frame = 0
  62              		@ frame_needed = 0, uses_anonymous_args = 0
  63              		@ link register save eliminated.
 545:Drivers/STM32C0xx_HAL_Driver/Src/stm32c0xx_hal_flash_ex.c ****   /* Check the parameters */
 546:Drivers/STM32C0xx_HAL_Driver/Src/stm32c0xx_hal_flash_ex.c ****   assert_param(IS_OB_WRPAREA(WRPArea));
  64              		.loc 1 546 3 view .LVU6
 547:Drivers/STM32C0xx_HAL_Driver/Src/stm32c0xx_hal_flash_ex.c ****   assert_param(IS_FLASH_PAGE(WRPStartOffset));
  65              		.loc 1 547 3 view .LVU7
 548:Drivers/STM32C0xx_HAL_Driver/Src/stm32c0xx_hal_flash_ex.c ****   assert_param(IS_FLASH_PAGE(WRDPEndOffset));
  66              		.loc 1 548 3 view .LVU8
 549:Drivers/STM32C0xx_HAL_Driver/Src/stm32c0xx_hal_flash_ex.c **** 
 550:Drivers/STM32C0xx_HAL_Driver/Src/stm32c0xx_hal_flash_ex.c ****   /* Configure the write protected area */
 551:Drivers/STM32C0xx_HAL_Driver/Src/stm32c0xx_hal_flash_ex.c ****   if (WRPArea != OB_WRPAREA_ZONE_A)
  67              		.loc 1 551 3 view .LVU9
  68              		.loc 1 551 6 is_stmt 0 view .LVU10
  69 0000 0128     		cmp	r0, #1
  70 0002 04D0     		beq	.L5
 552:Drivers/STM32C0xx_HAL_Driver/Src/stm32c0xx_hal_flash_ex.c ****   {
 553:Drivers/STM32C0xx_HAL_Driver/Src/stm32c0xx_hal_flash_ex.c ****     FLASH->WRP1BR = ((WRDPEndOffset << FLASH_WRP1AR_WRP1A_END_Pos) | WRPStartOffset);
  71              		.loc 1 553 5 is_stmt 1 view .LVU11
  72              		.loc 1 553 37 is_stmt 0 view .LVU12
  73 0004 1204     		lsls	r2, r2, #16
  74              	.LVL1:
  75              		.loc 1 553 68 view .LVU13
  76 0006 0A43     		orrs	r2, r1
  77              		.loc 1 553 19 view .LVU14
ARM GAS  C:\Users\main\AppData\Local\Temp\ccuDNLmp.s 			page 12


  78 0008 034B     		ldr	r3, .L7
  79 000a 1A63     		str	r2, [r3, #48]
  80              	.L4:
 554:Drivers/STM32C0xx_HAL_Driver/Src/stm32c0xx_hal_flash_ex.c ****   }
 555:Drivers/STM32C0xx_HAL_Driver/Src/stm32c0xx_hal_flash_ex.c ****   else
 556:Drivers/STM32C0xx_HAL_Driver/Src/stm32c0xx_hal_flash_ex.c ****   {
 557:Drivers/STM32C0xx_HAL_Driver/Src/stm32c0xx_hal_flash_ex.c ****     FLASH->WRP1AR = ((WRDPEndOffset << FLASH_WRP1BR_WRP1B_END_Pos) | WRPStartOffset);
 558:Drivers/STM32C0xx_HAL_Driver/Src/stm32c0xx_hal_flash_ex.c ****   }
 559:Drivers/STM32C0xx_HAL_Driver/Src/stm32c0xx_hal_flash_ex.c **** }
  81              		.loc 1 559 1 view .LVU15
  82              		@ sp needed
  83 000c 7047     		bx	lr
  84              	.LVL2:
  85              	.L5:
 557:Drivers/STM32C0xx_HAL_Driver/Src/stm32c0xx_hal_flash_ex.c ****   }
  86              		.loc 1 557 5 is_stmt 1 view .LVU16
 557:Drivers/STM32C0xx_HAL_Driver/Src/stm32c0xx_hal_flash_ex.c ****   }
  87              		.loc 1 557 37 is_stmt 0 view .LVU17
  88 000e 1204     		lsls	r2, r2, #16
  89              	.LVL3:
 557:Drivers/STM32C0xx_HAL_Driver/Src/stm32c0xx_hal_flash_ex.c ****   }
  90              		.loc 1 557 68 view .LVU18
  91 0010 0A43     		orrs	r2, r1
 557:Drivers/STM32C0xx_HAL_Driver/Src/stm32c0xx_hal_flash_ex.c ****   }
  92              		.loc 1 557 19 view .LVU19
  93 0012 014B     		ldr	r3, .L7
  94 0014 DA62     		str	r2, [r3, #44]
  95              		.loc 1 559 1 view .LVU20
  96 0016 F9E7     		b	.L4
  97              	.L8:
  98              		.align	2
  99              	.L7:
 100 0018 00200240 		.word	1073881088
 101              		.cfi_endproc
 102              	.LFE226:
 104              		.section	.text.FLASH_OB_OptrConfig,"ax",%progbits
 105              		.align	1
 106              		.syntax unified
 107              		.code	16
 108              		.thumb_func
 110              	FLASH_OB_OptrConfig:
 111              	.LVL4:
 112              	.LFB227:
 560:Drivers/STM32C0xx_HAL_Driver/Src/stm32c0xx_hal_flash_ex.c **** 
 561:Drivers/STM32C0xx_HAL_Driver/Src/stm32c0xx_hal_flash_ex.c **** /**
 562:Drivers/STM32C0xx_HAL_Driver/Src/stm32c0xx_hal_flash_ex.c ****   * @brief  Set user & RDP configuration
 563:Drivers/STM32C0xx_HAL_Driver/Src/stm32c0xx_hal_flash_ex.c ****   * @note   !!! Warning : When enabling OB_RDP level 2 it is no more possible
 564:Drivers/STM32C0xx_HAL_Driver/Src/stm32c0xx_hal_flash_ex.c ****   *         to go back to level 1 or 0 !!!
 565:Drivers/STM32C0xx_HAL_Driver/Src/stm32c0xx_hal_flash_ex.c ****   * @param  UserType  The FLASH User Option Bytes to be modified.
 566:Drivers/STM32C0xx_HAL_Driver/Src/stm32c0xx_hal_flash_ex.c ****   *         This parameter can be a combination of @ref FLASH_OB_USER_Type
 567:Drivers/STM32C0xx_HAL_Driver/Src/stm32c0xx_hal_flash_ex.c ****   * @param  UserConfig  The FLASH User Option Bytes values.
 568:Drivers/STM32C0xx_HAL_Driver/Src/stm32c0xx_hal_flash_ex.c ****   *         This parameter can be a combination of:
 569:Drivers/STM32C0xx_HAL_Driver/Src/stm32c0xx_hal_flash_ex.c ****   *         @arg @ref OB_USER_BOR_ENABLE,
 570:Drivers/STM32C0xx_HAL_Driver/Src/stm32c0xx_hal_flash_ex.c ****   *         @arg @ref OB_USER_BOR_LEVEL,
 571:Drivers/STM32C0xx_HAL_Driver/Src/stm32c0xx_hal_flash_ex.c ****   *         @arg @ref OB_USER_nRST_STOP,
 572:Drivers/STM32C0xx_HAL_Driver/Src/stm32c0xx_hal_flash_ex.c ****   *         @arg @ref OB_USER_nRST_STANDBY,
 573:Drivers/STM32C0xx_HAL_Driver/Src/stm32c0xx_hal_flash_ex.c ****   *         @arg @ref OB_USER_nRST_SHUTDOWN,
ARM GAS  C:\Users\main\AppData\Local\Temp\ccuDNLmp.s 			page 13


 574:Drivers/STM32C0xx_HAL_Driver/Src/stm32c0xx_hal_flash_ex.c ****   *         @arg @ref OB_USER_IWDG_SW,
 575:Drivers/STM32C0xx_HAL_Driver/Src/stm32c0xx_hal_flash_ex.c ****   *         @arg @ref OB_USER_IWDG_STOP,
 576:Drivers/STM32C0xx_HAL_Driver/Src/stm32c0xx_hal_flash_ex.c ****   *         @arg @ref OB_USER_IWDG_STANDBY,
 577:Drivers/STM32C0xx_HAL_Driver/Src/stm32c0xx_hal_flash_ex.c ****   *         @arg @ref OB_USER_WWDG_SW,
 578:Drivers/STM32C0xx_HAL_Driver/Src/stm32c0xx_hal_flash_ex.c ****   *         @arg @ref OB_USER_SRAM_PARITY,
 579:Drivers/STM32C0xx_HAL_Driver/Src/stm32c0xx_hal_flash_ex.c ****   *         @arg @ref OB_USER_nBOOT_SEL,
 580:Drivers/STM32C0xx_HAL_Driver/Src/stm32c0xx_hal_flash_ex.c ****   *         @arg @ref OB_USER_nBOOT1,
 581:Drivers/STM32C0xx_HAL_Driver/Src/stm32c0xx_hal_flash_ex.c ****   *         @arg @ref OB_USER_nBOOT0,
 582:Drivers/STM32C0xx_HAL_Driver/Src/stm32c0xx_hal_flash_ex.c ****   *         @arg @ref OB_USER_INPUT_RESET_HOLDER
 583:Drivers/STM32C0xx_HAL_Driver/Src/stm32c0xx_hal_flash_ex.c ****   *         @arg @ref OB_USER_SECURE_MUXING_EN
 584:Drivers/STM32C0xx_HAL_Driver/Src/stm32c0xx_hal_flash_ex.c ****   *         @arg @ref OB_USER_HSE_NOT_REMAPPED (*)
 585:Drivers/STM32C0xx_HAL_Driver/Src/stm32c0xx_hal_flash_ex.c ****   * @param  RDPLevel  specifies the read protection level.
 586:Drivers/STM32C0xx_HAL_Driver/Src/stm32c0xx_hal_flash_ex.c ****   *         This parameter can be one of the following values:
 587:Drivers/STM32C0xx_HAL_Driver/Src/stm32c0xx_hal_flash_ex.c ****   *            @arg @ref OB_RDP_LEVEL_0 No protection
 588:Drivers/STM32C0xx_HAL_Driver/Src/stm32c0xx_hal_flash_ex.c ****   *            @arg @ref OB_RDP_LEVEL_1 Memory Read protection
 589:Drivers/STM32C0xx_HAL_Driver/Src/stm32c0xx_hal_flash_ex.c ****   *            @arg @ref OB_RDP_LEVEL_2 Full chip protection
 590:Drivers/STM32C0xx_HAL_Driver/Src/stm32c0xx_hal_flash_ex.c ****   * @retval None
 591:Drivers/STM32C0xx_HAL_Driver/Src/stm32c0xx_hal_flash_ex.c ****   *
 592:Drivers/STM32C0xx_HAL_Driver/Src/stm32c0xx_hal_flash_ex.c ****   * @note   (*) available only on STM32C071xx, STM32C051xx and STM32C091/92xx devices.
 593:Drivers/STM32C0xx_HAL_Driver/Src/stm32c0xx_hal_flash_ex.c ****   */
 594:Drivers/STM32C0xx_HAL_Driver/Src/stm32c0xx_hal_flash_ex.c **** static void FLASH_OB_OptrConfig(uint32_t UserType, uint32_t UserConfig, uint32_t RDPLevel)
 595:Drivers/STM32C0xx_HAL_Driver/Src/stm32c0xx_hal_flash_ex.c **** {
 113              		.loc 1 595 1 is_stmt 1 view -0
 114              		.cfi_startproc
 115              		@ args = 0, pretend = 0, frame = 0
 116              		@ frame_needed = 0, uses_anonymous_args = 0
 117              		.loc 1 595 1 is_stmt 0 view .LVU22
 118 0000 30B5     		push	{r4, r5, lr}
 119              		.cfi_def_cfa_offset 12
 120              		.cfi_offset 4, -12
 121              		.cfi_offset 5, -8
 122              		.cfi_offset 14, -4
 596:Drivers/STM32C0xx_HAL_Driver/Src/stm32c0xx_hal_flash_ex.c ****   uint32_t optr;
 123              		.loc 1 596 3 is_stmt 1 view .LVU23
 597:Drivers/STM32C0xx_HAL_Driver/Src/stm32c0xx_hal_flash_ex.c **** 
 598:Drivers/STM32C0xx_HAL_Driver/Src/stm32c0xx_hal_flash_ex.c ****   /* Check the parameters */
 599:Drivers/STM32C0xx_HAL_Driver/Src/stm32c0xx_hal_flash_ex.c ****   assert_param(IS_OB_USER_TYPE(UserType));
 124              		.loc 1 599 3 view .LVU24
 600:Drivers/STM32C0xx_HAL_Driver/Src/stm32c0xx_hal_flash_ex.c ****   assert_param(IS_OB_USER_CONFIG(UserType, UserConfig));
 125              		.loc 1 600 3 view .LVU25
 601:Drivers/STM32C0xx_HAL_Driver/Src/stm32c0xx_hal_flash_ex.c ****   assert_param(IS_OB_RDP_LEVEL(RDPLevel));
 126              		.loc 1 601 3 view .LVU26
 602:Drivers/STM32C0xx_HAL_Driver/Src/stm32c0xx_hal_flash_ex.c **** 
 603:Drivers/STM32C0xx_HAL_Driver/Src/stm32c0xx_hal_flash_ex.c ****   /* Configure the RDP level in the option bytes register */
 604:Drivers/STM32C0xx_HAL_Driver/Src/stm32c0xx_hal_flash_ex.c ****   optr = FLASH->OPTR;
 127              		.loc 1 604 3 view .LVU27
 128              		.loc 1 604 8 is_stmt 0 view .LVU28
 129 0002 044C     		ldr	r4, .L10
 130 0004 236A     		ldr	r3, [r4, #32]
 131              	.LVL5:
 605:Drivers/STM32C0xx_HAL_Driver/Src/stm32c0xx_hal_flash_ex.c ****   optr &= ~(UserType | FLASH_OPTR_RDP);
 132              		.loc 1 605 3 is_stmt 1 view .LVU29
 133              		.loc 1 605 22 is_stmt 0 view .LVU30
 134 0006 FF25     		movs	r5, #255
 135 0008 2843     		orrs	r0, r5
 136              	.LVL6:
 137              		.loc 1 605 8 view .LVU31
ARM GAS  C:\Users\main\AppData\Local\Temp\ccuDNLmp.s 			page 14


 138 000a 8343     		bics	r3, r0
 139              	.LVL7:
 606:Drivers/STM32C0xx_HAL_Driver/Src/stm32c0xx_hal_flash_ex.c ****   FLASH->OPTR = (optr | UserConfig | RDPLevel);
 140              		.loc 1 606 3 is_stmt 1 view .LVU32
 141              		.loc 1 606 23 is_stmt 0 view .LVU33
 142 000c 0B43     		orrs	r3, r1
 143              	.LVL8:
 144              		.loc 1 606 36 view .LVU34
 145 000e 1343     		orrs	r3, r2
 146              		.loc 1 606 15 view .LVU35
 147 0010 2362     		str	r3, [r4, #32]
 607:Drivers/STM32C0xx_HAL_Driver/Src/stm32c0xx_hal_flash_ex.c **** }
 148              		.loc 1 607 1 view .LVU36
 149              		@ sp needed
 150 0012 30BD     		pop	{r4, r5, pc}
 151              	.L11:
 152              		.align	2
 153              	.L10:
 154 0014 00200240 		.word	1073881088
 155              		.cfi_endproc
 156              	.LFE227:
 158              		.section	.text.FLASH_OB_PCROP1AConfig,"ax",%progbits
 159              		.align	1
 160              		.syntax unified
 161              		.code	16
 162              		.thumb_func
 164              	FLASH_OB_PCROP1AConfig:
 165              	.LVL9:
 166              	.LFB228:
 608:Drivers/STM32C0xx_HAL_Driver/Src/stm32c0xx_hal_flash_ex.c **** 
 609:Drivers/STM32C0xx_HAL_Driver/Src/stm32c0xx_hal_flash_ex.c **** /**
 610:Drivers/STM32C0xx_HAL_Driver/Src/stm32c0xx_hal_flash_ex.c ****   * @brief  Configure the 1A Proprietary code readout protection & erase configuration on RDP regre
 611:Drivers/STM32C0xx_HAL_Driver/Src/stm32c0xx_hal_flash_ex.c ****   * @note   It is recommended to align PCROP zone with page granularity when using PCROP_RDP or avo
 612:Drivers/STM32C0xx_HAL_Driver/Src/stm32c0xx_hal_flash_ex.c ****   *         having some executable code in a page where PCROP zone starts or ends.
 613:Drivers/STM32C0xx_HAL_Driver/Src/stm32c0xx_hal_flash_ex.c ****   * @note   Minimum PCROP area size is 2 times the chosen granularity: PCROPA_STRT and PCROPA_END.
 614:Drivers/STM32C0xx_HAL_Driver/Src/stm32c0xx_hal_flash_ex.c ****   *         So if the requirement is to be able to read-protect 1KB areas, the ROP granularity
 615:Drivers/STM32C0xx_HAL_Driver/Src/stm32c0xx_hal_flash_ex.c ****   *         has to be set to 512 Bytes
 616:Drivers/STM32C0xx_HAL_Driver/Src/stm32c0xx_hal_flash_ex.c ****   * @param  PCROPConfig  specifies the erase configuration (OB_PCROP_RDP_NOT_ERASE or OB_PCROP_RDP_
 617:Drivers/STM32C0xx_HAL_Driver/Src/stm32c0xx_hal_flash_ex.c ****   *         on RDP level 1 regression.
 618:Drivers/STM32C0xx_HAL_Driver/Src/stm32c0xx_hal_flash_ex.c ****   * @param  PCROP1AStartAddr Specifies the Zone 1A Start address of the Proprietary code readout pr
 619:Drivers/STM32C0xx_HAL_Driver/Src/stm32c0xx_hal_flash_ex.c ****   *          This parameter can be an address between begin and end of the flash
 620:Drivers/STM32C0xx_HAL_Driver/Src/stm32c0xx_hal_flash_ex.c ****   * @param  PCROP1AEndAddr Specifies the Zone 1A end address of the Proprietary code readout protec
 621:Drivers/STM32C0xx_HAL_Driver/Src/stm32c0xx_hal_flash_ex.c ****   *          This parameter can be an address between PCROP1AStartAddr and end of the flash
 622:Drivers/STM32C0xx_HAL_Driver/Src/stm32c0xx_hal_flash_ex.c ****   * @retval None
 623:Drivers/STM32C0xx_HAL_Driver/Src/stm32c0xx_hal_flash_ex.c ****   */
 624:Drivers/STM32C0xx_HAL_Driver/Src/stm32c0xx_hal_flash_ex.c **** static void FLASH_OB_PCROP1AConfig(uint32_t PCROPConfig, uint32_t PCROP1AStartAddr, uint32_t PCROP1
 625:Drivers/STM32C0xx_HAL_Driver/Src/stm32c0xx_hal_flash_ex.c **** {
 167              		.loc 1 625 1 is_stmt 1 view -0
 168              		.cfi_startproc
 169              		@ args = 0, pretend = 0, frame = 0
 170              		@ frame_needed = 0, uses_anonymous_args = 0
 171              		.loc 1 625 1 is_stmt 0 view .LVU38
 172 0000 10B5     		push	{r4, lr}
 173              		.cfi_def_cfa_offset 8
 174              		.cfi_offset 4, -8
 175              		.cfi_offset 14, -4
 626:Drivers/STM32C0xx_HAL_Driver/Src/stm32c0xx_hal_flash_ex.c ****   uint32_t startoffset;
ARM GAS  C:\Users\main\AppData\Local\Temp\ccuDNLmp.s 			page 15


 176              		.loc 1 626 3 is_stmt 1 view .LVU39
 627:Drivers/STM32C0xx_HAL_Driver/Src/stm32c0xx_hal_flash_ex.c ****   uint32_t endoffset;
 177              		.loc 1 627 3 view .LVU40
 628:Drivers/STM32C0xx_HAL_Driver/Src/stm32c0xx_hal_flash_ex.c ****   uint32_t pcrop1aend;
 178              		.loc 1 628 3 view .LVU41
 629:Drivers/STM32C0xx_HAL_Driver/Src/stm32c0xx_hal_flash_ex.c **** 
 630:Drivers/STM32C0xx_HAL_Driver/Src/stm32c0xx_hal_flash_ex.c ****   /* Check the parameters */
 631:Drivers/STM32C0xx_HAL_Driver/Src/stm32c0xx_hal_flash_ex.c ****   assert_param(IS_OB_PCROP_CONFIG(PCROPConfig));
 179              		.loc 1 631 3 view .LVU42
 632:Drivers/STM32C0xx_HAL_Driver/Src/stm32c0xx_hal_flash_ex.c ****   assert_param(IS_FLASH_MAIN_MEM_ADDRESS(PCROP1AStartAddr));
 180              		.loc 1 632 3 view .LVU43
 633:Drivers/STM32C0xx_HAL_Driver/Src/stm32c0xx_hal_flash_ex.c ****   assert_param(IS_FLASH_MAIN_MEM_ADDRESS(PCROP1AEndAddr));
 181              		.loc 1 633 3 view .LVU44
 634:Drivers/STM32C0xx_HAL_Driver/Src/stm32c0xx_hal_flash_ex.c **** 
 635:Drivers/STM32C0xx_HAL_Driver/Src/stm32c0xx_hal_flash_ex.c ****   /* get pcrop 1A end register */
 636:Drivers/STM32C0xx_HAL_Driver/Src/stm32c0xx_hal_flash_ex.c ****   pcrop1aend = FLASH->PCROP1AER;
 182              		.loc 1 636 3 view .LVU45
 183              		.loc 1 636 14 is_stmt 0 view .LVU46
 184 0002 0C4B     		ldr	r3, .L17
 185 0004 9B6A     		ldr	r3, [r3, #40]
 186              	.LVL10:
 637:Drivers/STM32C0xx_HAL_Driver/Src/stm32c0xx_hal_flash_ex.c **** 
 638:Drivers/STM32C0xx_HAL_Driver/Src/stm32c0xx_hal_flash_ex.c ****   /* Configure the Proprietary code readout protection offset */
 639:Drivers/STM32C0xx_HAL_Driver/Src/stm32c0xx_hal_flash_ex.c ****   if ((PCROPConfig & OB_PCROP_ZONE_A) != 0x00U)
 187              		.loc 1 639 3 is_stmt 1 view .LVU47
 188              		.loc 1 639 6 is_stmt 0 view .LVU48
 189 0006 C407     		lsls	r4, r0, #31
 190 0008 0BD5     		bpl	.L13
 640:Drivers/STM32C0xx_HAL_Driver/Src/stm32c0xx_hal_flash_ex.c ****   {
 641:Drivers/STM32C0xx_HAL_Driver/Src/stm32c0xx_hal_flash_ex.c ****     /* Compute offset depending on pcrop granularity */
 642:Drivers/STM32C0xx_HAL_Driver/Src/stm32c0xx_hal_flash_ex.c ****     startoffset = ((PCROP1AStartAddr - FLASH_BASE) >> FLASH_PCROP_GRANULARITY_OFFSET);
 191              		.loc 1 642 5 is_stmt 1 view .LVU49
 192              		.loc 1 642 38 is_stmt 0 view .LVU50
 193 000a F824     		movs	r4, #248
 194 000c 2406     		lsls	r4, r4, #24
 195 000e A446     		mov	ip, r4
 196 0010 6144     		add	r1, r1, ip
 197              	.LVL11:
 198              		.loc 1 642 17 view .LVU51
 199 0012 490A     		lsrs	r1, r1, #9
 200              	.LVL12:
 643:Drivers/STM32C0xx_HAL_Driver/Src/stm32c0xx_hal_flash_ex.c ****     endoffset = ((PCROP1AEndAddr - FLASH_BASE) >> FLASH_PCROP_GRANULARITY_OFFSET);
 201              		.loc 1 643 5 is_stmt 1 view .LVU52
 202              		.loc 1 643 34 is_stmt 0 view .LVU53
 203 0014 6244     		add	r2, r2, ip
 204              	.LVL13:
 205              		.loc 1 643 15 view .LVU54
 206 0016 520A     		lsrs	r2, r2, #9
 207              	.LVL14:
 644:Drivers/STM32C0xx_HAL_Driver/Src/stm32c0xx_hal_flash_ex.c **** 
 645:Drivers/STM32C0xx_HAL_Driver/Src/stm32c0xx_hal_flash_ex.c ****     /* Set Zone A start offset */
 646:Drivers/STM32C0xx_HAL_Driver/Src/stm32c0xx_hal_flash_ex.c ****     FLASH->PCROP1ASR = startoffset;
 208              		.loc 1 646 5 is_stmt 1 view .LVU55
 209              		.loc 1 646 22 is_stmt 0 view .LVU56
 210 0018 064C     		ldr	r4, .L17
 211 001a 6162     		str	r1, [r4, #36]
 647:Drivers/STM32C0xx_HAL_Driver/Src/stm32c0xx_hal_flash_ex.c **** 
ARM GAS  C:\Users\main\AppData\Local\Temp\ccuDNLmp.s 			page 16


 648:Drivers/STM32C0xx_HAL_Driver/Src/stm32c0xx_hal_flash_ex.c ****     /* Set Zone A end offset */
 649:Drivers/STM32C0xx_HAL_Driver/Src/stm32c0xx_hal_flash_ex.c ****     pcrop1aend &= ~FLASH_PCROP1AER_PCROP1A_END;
 212              		.loc 1 649 5 is_stmt 1 view .LVU57
 213              		.loc 1 649 16 is_stmt 0 view .LVU58
 214 001c 3F21     		movs	r1, #63
 215              	.LVL15:
 216              		.loc 1 649 16 view .LVU59
 217 001e 8B43     		bics	r3, r1
 218              	.LVL16:
 650:Drivers/STM32C0xx_HAL_Driver/Src/stm32c0xx_hal_flash_ex.c ****     pcrop1aend |= endoffset;
 219              		.loc 1 650 5 is_stmt 1 view .LVU60
 220              		.loc 1 650 16 is_stmt 0 view .LVU61
 221 0020 1343     		orrs	r3, r2
 222              	.LVL17:
 223              	.L13:
 651:Drivers/STM32C0xx_HAL_Driver/Src/stm32c0xx_hal_flash_ex.c ****   }
 652:Drivers/STM32C0xx_HAL_Driver/Src/stm32c0xx_hal_flash_ex.c **** 
 653:Drivers/STM32C0xx_HAL_Driver/Src/stm32c0xx_hal_flash_ex.c ****   /* Set RDP erase protection if needed. This bit is only set & will be reset by mass erase */
 654:Drivers/STM32C0xx_HAL_Driver/Src/stm32c0xx_hal_flash_ex.c ****   if ((PCROPConfig & OB_PCROP_RDP_ERASE) != 0x00U)
 224              		.loc 1 654 3 is_stmt 1 view .LVU62
 225              		.loc 1 654 6 is_stmt 0 view .LVU63
 226 0022 0028     		cmp	r0, #0
 227 0024 02DB     		blt	.L16
 228              	.LVL18:
 229              	.L14:
 655:Drivers/STM32C0xx_HAL_Driver/Src/stm32c0xx_hal_flash_ex.c ****   {
 656:Drivers/STM32C0xx_HAL_Driver/Src/stm32c0xx_hal_flash_ex.c ****     pcrop1aend |= FLASH_PCROP1AER_PCROP_RDP;
 657:Drivers/STM32C0xx_HAL_Driver/Src/stm32c0xx_hal_flash_ex.c ****   }
 658:Drivers/STM32C0xx_HAL_Driver/Src/stm32c0xx_hal_flash_ex.c **** 
 659:Drivers/STM32C0xx_HAL_Driver/Src/stm32c0xx_hal_flash_ex.c ****   /* set 1A End register */
 660:Drivers/STM32C0xx_HAL_Driver/Src/stm32c0xx_hal_flash_ex.c ****   FLASH->PCROP1AER = pcrop1aend;
 230              		.loc 1 660 3 is_stmt 1 view .LVU64
 231              		.loc 1 660 20 is_stmt 0 view .LVU65
 232 0026 034A     		ldr	r2, .L17
 233 0028 9362     		str	r3, [r2, #40]
 661:Drivers/STM32C0xx_HAL_Driver/Src/stm32c0xx_hal_flash_ex.c **** }
 234              		.loc 1 661 1 view .LVU66
 235              		@ sp needed
 236 002a 10BD     		pop	{r4, pc}
 237              	.L16:
 656:Drivers/STM32C0xx_HAL_Driver/Src/stm32c0xx_hal_flash_ex.c ****   }
 238              		.loc 1 656 5 is_stmt 1 view .LVU67
 656:Drivers/STM32C0xx_HAL_Driver/Src/stm32c0xx_hal_flash_ex.c ****   }
 239              		.loc 1 656 16 is_stmt 0 view .LVU68
 240 002c 8022     		movs	r2, #128
 241 002e 1206     		lsls	r2, r2, #24
 242 0030 1343     		orrs	r3, r2
 243              	.LVL19:
 656:Drivers/STM32C0xx_HAL_Driver/Src/stm32c0xx_hal_flash_ex.c ****   }
 244              		.loc 1 656 16 view .LVU69
 245 0032 F8E7     		b	.L14
 246              	.L18:
 247              		.align	2
 248              	.L17:
 249 0034 00200240 		.word	1073881088
 250              		.cfi_endproc
 251              	.LFE228:
ARM GAS  C:\Users\main\AppData\Local\Temp\ccuDNLmp.s 			page 17


 253              		.section	.text.FLASH_OB_PCROP1BConfig,"ax",%progbits
 254              		.align	1
 255              		.syntax unified
 256              		.code	16
 257              		.thumb_func
 259              	FLASH_OB_PCROP1BConfig:
 260              	.LVL20:
 261              	.LFB229:
 662:Drivers/STM32C0xx_HAL_Driver/Src/stm32c0xx_hal_flash_ex.c **** 
 663:Drivers/STM32C0xx_HAL_Driver/Src/stm32c0xx_hal_flash_ex.c **** /**
 664:Drivers/STM32C0xx_HAL_Driver/Src/stm32c0xx_hal_flash_ex.c ****   * @brief  Configure the 1B Proprietary code readout protection.
 665:Drivers/STM32C0xx_HAL_Driver/Src/stm32c0xx_hal_flash_ex.c ****   * @note   It is recommended to align PCROP zone with page granularity when using PCROP_RDP or avo
 666:Drivers/STM32C0xx_HAL_Driver/Src/stm32c0xx_hal_flash_ex.c ****   *         having some executable code in a page where PCROP zone starts or ends.
 667:Drivers/STM32C0xx_HAL_Driver/Src/stm32c0xx_hal_flash_ex.c ****   * @note   Minimum PCROP area size is 2 times the chosen granularity: PCROPA_STRT and PCROPA_END.
 668:Drivers/STM32C0xx_HAL_Driver/Src/stm32c0xx_hal_flash_ex.c ****   *         So if the requirement is to be able to read-protect 1KB areas, the ROP granularity
 669:Drivers/STM32C0xx_HAL_Driver/Src/stm32c0xx_hal_flash_ex.c ****   *         has to be set to 512 Bytes
 670:Drivers/STM32C0xx_HAL_Driver/Src/stm32c0xx_hal_flash_ex.c ****   * @param  PCROP1BStartAddr  Specifies the Zone 1B Start address of the Proprietary code readout p
 671:Drivers/STM32C0xx_HAL_Driver/Src/stm32c0xx_hal_flash_ex.c ****   *         This parameter can be an address between begin and end of the flash
 672:Drivers/STM32C0xx_HAL_Driver/Src/stm32c0xx_hal_flash_ex.c ****   * @param  PCROP1BEndAddr  Specifies the Zone 1B end address of the Proprietary code readout prote
 673:Drivers/STM32C0xx_HAL_Driver/Src/stm32c0xx_hal_flash_ex.c ****   *         This parameter can be an address between PCROP1BStartAddr and end of the flash
 674:Drivers/STM32C0xx_HAL_Driver/Src/stm32c0xx_hal_flash_ex.c ****   * @retval None
 675:Drivers/STM32C0xx_HAL_Driver/Src/stm32c0xx_hal_flash_ex.c ****   */
 676:Drivers/STM32C0xx_HAL_Driver/Src/stm32c0xx_hal_flash_ex.c **** static void FLASH_OB_PCROP1BConfig(uint32_t PCROP1BStartAddr, uint32_t PCROP1BEndAddr)
 677:Drivers/STM32C0xx_HAL_Driver/Src/stm32c0xx_hal_flash_ex.c **** {
 262              		.loc 1 677 1 is_stmt 1 view -0
 263              		.cfi_startproc
 264              		@ args = 0, pretend = 0, frame = 0
 265              		@ frame_needed = 0, uses_anonymous_args = 0
 266              		@ link register save eliminated.
 678:Drivers/STM32C0xx_HAL_Driver/Src/stm32c0xx_hal_flash_ex.c ****   uint32_t startoffset;
 267              		.loc 1 678 3 view .LVU71
 679:Drivers/STM32C0xx_HAL_Driver/Src/stm32c0xx_hal_flash_ex.c ****   uint32_t endoffset;
 268              		.loc 1 679 3 view .LVU72
 680:Drivers/STM32C0xx_HAL_Driver/Src/stm32c0xx_hal_flash_ex.c **** 
 681:Drivers/STM32C0xx_HAL_Driver/Src/stm32c0xx_hal_flash_ex.c ****   /* Check the parameters */
 682:Drivers/STM32C0xx_HAL_Driver/Src/stm32c0xx_hal_flash_ex.c ****   assert_param(IS_FLASH_MAIN_MEM_ADDRESS(PCROP1BStartAddr));
 269              		.loc 1 682 3 view .LVU73
 683:Drivers/STM32C0xx_HAL_Driver/Src/stm32c0xx_hal_flash_ex.c ****   assert_param(IS_FLASH_MAIN_MEM_ADDRESS(PCROP1BEndAddr));
 270              		.loc 1 683 3 view .LVU74
 684:Drivers/STM32C0xx_HAL_Driver/Src/stm32c0xx_hal_flash_ex.c **** 
 685:Drivers/STM32C0xx_HAL_Driver/Src/stm32c0xx_hal_flash_ex.c ****   /* Configure the Proprietary code readout protection offset */
 686:Drivers/STM32C0xx_HAL_Driver/Src/stm32c0xx_hal_flash_ex.c ****   startoffset = ((PCROP1BStartAddr - FLASH_BASE) >> FLASH_PCROP_GRANULARITY_OFFSET);
 271              		.loc 1 686 3 view .LVU75
 272              		.loc 1 686 36 is_stmt 0 view .LVU76
 273 0000 F823     		movs	r3, #248
 274 0002 1B06     		lsls	r3, r3, #24
 275 0004 9C46     		mov	ip, r3
 276 0006 6044     		add	r0, r0, ip
 277              	.LVL21:
 278              		.loc 1 686 15 view .LVU77
 279 0008 400A     		lsrs	r0, r0, #9
 280              	.LVL22:
 687:Drivers/STM32C0xx_HAL_Driver/Src/stm32c0xx_hal_flash_ex.c ****   endoffset = ((PCROP1BEndAddr - FLASH_BASE) >> FLASH_PCROP_GRANULARITY_OFFSET);
 281              		.loc 1 687 3 is_stmt 1 view .LVU78
 282              		.loc 1 687 32 is_stmt 0 view .LVU79
 283 000a 6144     		add	r1, r1, ip
 284              	.LVL23:
ARM GAS  C:\Users\main\AppData\Local\Temp\ccuDNLmp.s 			page 18


 285              		.loc 1 687 13 view .LVU80
 286 000c 490A     		lsrs	r1, r1, #9
 287              	.LVL24:
 688:Drivers/STM32C0xx_HAL_Driver/Src/stm32c0xx_hal_flash_ex.c **** 
 689:Drivers/STM32C0xx_HAL_Driver/Src/stm32c0xx_hal_flash_ex.c ****   /* Set Zone B start offset */
 690:Drivers/STM32C0xx_HAL_Driver/Src/stm32c0xx_hal_flash_ex.c ****   FLASH->PCROP1BSR = startoffset;
 288              		.loc 1 690 3 is_stmt 1 view .LVU81
 289              		.loc 1 690 20 is_stmt 0 view .LVU82
 290 000e 024B     		ldr	r3, .L20
 291 0010 5863     		str	r0, [r3, #52]
 691:Drivers/STM32C0xx_HAL_Driver/Src/stm32c0xx_hal_flash_ex.c ****   /* Set Zone B end offset */
 692:Drivers/STM32C0xx_HAL_Driver/Src/stm32c0xx_hal_flash_ex.c ****   FLASH->PCROP1BER = endoffset;
 292              		.loc 1 692 3 is_stmt 1 view .LVU83
 293              		.loc 1 692 20 is_stmt 0 view .LVU84
 294 0012 9963     		str	r1, [r3, #56]
 693:Drivers/STM32C0xx_HAL_Driver/Src/stm32c0xx_hal_flash_ex.c **** }
 295              		.loc 1 693 1 view .LVU85
 296              		@ sp needed
 297 0014 7047     		bx	lr
 298              	.L21:
 299 0016 C046     		.align	2
 300              	.L20:
 301 0018 00200240 		.word	1073881088
 302              		.cfi_endproc
 303              	.LFE229:
 305              		.section	.text.FLASH_OB_SecMemConfig,"ax",%progbits
 306              		.align	1
 307              		.syntax unified
 308              		.code	16
 309              		.thumb_func
 311              	FLASH_OB_SecMemConfig:
 312              	.LVL25:
 313              	.LFB230:
 694:Drivers/STM32C0xx_HAL_Driver/Src/stm32c0xx_hal_flash_ex.c **** 
 695:Drivers/STM32C0xx_HAL_Driver/Src/stm32c0xx_hal_flash_ex.c **** /**
 696:Drivers/STM32C0xx_HAL_Driver/Src/stm32c0xx_hal_flash_ex.c ****   * @brief  Configure Securable Memory area feature.
 697:Drivers/STM32C0xx_HAL_Driver/Src/stm32c0xx_hal_flash_ex.c ****   * @param  BootEntry  specifies if boot scheme is forced to Flash (System or user) or not
 698:Drivers/STM32C0xx_HAL_Driver/Src/stm32c0xx_hal_flash_ex.c ****   *         This parameter can be one of the following values:
 699:Drivers/STM32C0xx_HAL_Driver/Src/stm32c0xx_hal_flash_ex.c ****   *           @arg @ref OB_BOOT_ENTRY_FORCED_NONE No boot entry forced
 700:Drivers/STM32C0xx_HAL_Driver/Src/stm32c0xx_hal_flash_ex.c ****   *           @arg @ref OB_BOOT_ENTRY_FORCED_FLASH FLash selected as unique entry boot
 701:Drivers/STM32C0xx_HAL_Driver/Src/stm32c0xx_hal_flash_ex.c ****   * @param  SecSize specifies number of pages to protect as securable memory area, starting from
 702:Drivers/STM32C0xx_HAL_Driver/Src/stm32c0xx_hal_flash_ex.c ****   *         beginning of the Flash (page 0).
 703:Drivers/STM32C0xx_HAL_Driver/Src/stm32c0xx_hal_flash_ex.c ****   * @retval None
 704:Drivers/STM32C0xx_HAL_Driver/Src/stm32c0xx_hal_flash_ex.c ****   */
 705:Drivers/STM32C0xx_HAL_Driver/Src/stm32c0xx_hal_flash_ex.c **** static void FLASH_OB_SecMemConfig(uint32_t BootEntry, uint32_t SecSize)
 706:Drivers/STM32C0xx_HAL_Driver/Src/stm32c0xx_hal_flash_ex.c **** {
 314              		.loc 1 706 1 is_stmt 1 view -0
 315              		.cfi_startproc
 316              		@ args = 0, pretend = 0, frame = 0
 317              		@ frame_needed = 0, uses_anonymous_args = 0
 318              		.loc 1 706 1 is_stmt 0 view .LVU87
 319 0000 30B5     		push	{r4, r5, lr}
 320              		.cfi_def_cfa_offset 12
 321              		.cfi_offset 4, -12
 322              		.cfi_offset 5, -8
 323              		.cfi_offset 14, -4
 707:Drivers/STM32C0xx_HAL_Driver/Src/stm32c0xx_hal_flash_ex.c ****   uint32_t secmem;
ARM GAS  C:\Users\main\AppData\Local\Temp\ccuDNLmp.s 			page 19


 324              		.loc 1 707 3 is_stmt 1 view .LVU88
 708:Drivers/STM32C0xx_HAL_Driver/Src/stm32c0xx_hal_flash_ex.c **** 
 709:Drivers/STM32C0xx_HAL_Driver/Src/stm32c0xx_hal_flash_ex.c ****   /* Check the parameters */
 710:Drivers/STM32C0xx_HAL_Driver/Src/stm32c0xx_hal_flash_ex.c ****   assert_param(IS_OB_SEC_BOOT_LOCK(BootEntry));
 325              		.loc 1 710 3 view .LVU89
 711:Drivers/STM32C0xx_HAL_Driver/Src/stm32c0xx_hal_flash_ex.c ****   assert_param(IS_OB_SEC_SIZE(SecSize));
 326              		.loc 1 711 3 view .LVU90
 712:Drivers/STM32C0xx_HAL_Driver/Src/stm32c0xx_hal_flash_ex.c **** 
 713:Drivers/STM32C0xx_HAL_Driver/Src/stm32c0xx_hal_flash_ex.c ****   /* Set securable memory area configuration */
 714:Drivers/STM32C0xx_HAL_Driver/Src/stm32c0xx_hal_flash_ex.c ****   secmem = (FLASH->SECR & ~(FLASH_SECR_BOOT_LOCK | FLASH_SECR_SEC_SIZE));
 327              		.loc 1 714 3 view .LVU91
 328              		.loc 1 714 18 is_stmt 0 view .LVU92
 329 0002 044C     		ldr	r4, .L23
 330 0004 8022     		movs	r2, #128
 331 0006 A358     		ldr	r3, [r4, r2]
 332              		.loc 1 714 10 view .LVU93
 333 0008 034D     		ldr	r5, .L23+4
 334 000a 2B40     		ands	r3, r5
 335              	.LVL26:
 715:Drivers/STM32C0xx_HAL_Driver/Src/stm32c0xx_hal_flash_ex.c ****   FLASH->SECR = (secmem | BootEntry | SecSize);
 336              		.loc 1 715 3 is_stmt 1 view .LVU94
 337              		.loc 1 715 25 is_stmt 0 view .LVU95
 338 000c 0343     		orrs	r3, r0
 339              	.LVL27:
 340              		.loc 1 715 37 view .LVU96
 341 000e 0B43     		orrs	r3, r1
 342              		.loc 1 715 15 view .LVU97
 343 0010 A350     		str	r3, [r4, r2]
 716:Drivers/STM32C0xx_HAL_Driver/Src/stm32c0xx_hal_flash_ex.c **** }
 344              		.loc 1 716 1 view .LVU98
 345              		@ sp needed
 346 0012 30BD     		pop	{r4, r5, pc}
 347              	.L24:
 348              		.align	2
 349              	.L23:
 350 0014 00200240 		.word	1073881088
 351 0018 E0FFFEFF 		.word	-65568
 352              		.cfi_endproc
 353              	.LFE230:
 355              		.section	.text.FLASH_OB_GetWRP,"ax",%progbits
 356              		.align	1
 357              		.syntax unified
 358              		.code	16
 359              		.thumb_func
 361              	FLASH_OB_GetWRP:
 362              	.LVL28:
 363              	.LFB231:
 717:Drivers/STM32C0xx_HAL_Driver/Src/stm32c0xx_hal_flash_ex.c **** 
 718:Drivers/STM32C0xx_HAL_Driver/Src/stm32c0xx_hal_flash_ex.c **** /**
 719:Drivers/STM32C0xx_HAL_Driver/Src/stm32c0xx_hal_flash_ex.c ****   * @brief  Return the FLASH Write Protection Option Bytes value.
 720:Drivers/STM32C0xx_HAL_Driver/Src/stm32c0xx_hal_flash_ex.c ****   * @param[in]  WRPArea Specifies the area to be returned.
 721:Drivers/STM32C0xx_HAL_Driver/Src/stm32c0xx_hal_flash_ex.c ****   *             This parameter can be one of the following values:
 722:Drivers/STM32C0xx_HAL_Driver/Src/stm32c0xx_hal_flash_ex.c ****   *               @arg @ref OB_WRPAREA_ZONE_A Flash Zone A
 723:Drivers/STM32C0xx_HAL_Driver/Src/stm32c0xx_hal_flash_ex.c ****   *               @arg @ref OB_WRPAREA_ZONE_B Flash Zone B
 724:Drivers/STM32C0xx_HAL_Driver/Src/stm32c0xx_hal_flash_ex.c ****   * @param[out]  WRPStartOffset  Specifies the address where to copied the start page
 725:Drivers/STM32C0xx_HAL_Driver/Src/stm32c0xx_hal_flash_ex.c ****   *                         of the write protected area
 726:Drivers/STM32C0xx_HAL_Driver/Src/stm32c0xx_hal_flash_ex.c ****   * @param[out]  WRDPEndOffset  Dpecifies the address where to copied the end page of
ARM GAS  C:\Users\main\AppData\Local\Temp\ccuDNLmp.s 			page 20


 727:Drivers/STM32C0xx_HAL_Driver/Src/stm32c0xx_hal_flash_ex.c ****   *                        the write protected area
 728:Drivers/STM32C0xx_HAL_Driver/Src/stm32c0xx_hal_flash_ex.c ****   * @retval None
 729:Drivers/STM32C0xx_HAL_Driver/Src/stm32c0xx_hal_flash_ex.c ****   */
 730:Drivers/STM32C0xx_HAL_Driver/Src/stm32c0xx_hal_flash_ex.c **** static void FLASH_OB_GetWRP(uint32_t WRPArea, uint32_t *WRPStartOffset, uint32_t *WRDPEndOffset)
 731:Drivers/STM32C0xx_HAL_Driver/Src/stm32c0xx_hal_flash_ex.c **** {
 364              		.loc 1 731 1 is_stmt 1 view -0
 365              		.cfi_startproc
 366              		@ args = 0, pretend = 0, frame = 0
 367              		@ frame_needed = 0, uses_anonymous_args = 0
 368              		.loc 1 731 1 is_stmt 0 view .LVU100
 369 0000 10B5     		push	{r4, lr}
 370              		.cfi_def_cfa_offset 8
 371              		.cfi_offset 4, -8
 372              		.cfi_offset 14, -4
 732:Drivers/STM32C0xx_HAL_Driver/Src/stm32c0xx_hal_flash_ex.c ****   /* Check the parameters */
 733:Drivers/STM32C0xx_HAL_Driver/Src/stm32c0xx_hal_flash_ex.c ****   assert_param(IS_OB_WRPAREA(WRPArea));
 373              		.loc 1 733 3 is_stmt 1 view .LVU101
 734:Drivers/STM32C0xx_HAL_Driver/Src/stm32c0xx_hal_flash_ex.c **** 
 735:Drivers/STM32C0xx_HAL_Driver/Src/stm32c0xx_hal_flash_ex.c ****   /* Get the configuration of the write protected area */
 736:Drivers/STM32C0xx_HAL_Driver/Src/stm32c0xx_hal_flash_ex.c ****   if (WRPArea == OB_WRPAREA_ZONE_A)
 374              		.loc 1 736 3 view .LVU102
 375              		.loc 1 736 6 is_stmt 0 view .LVU103
 376 0002 0128     		cmp	r0, #1
 377 0004 09D0     		beq	.L28
 737:Drivers/STM32C0xx_HAL_Driver/Src/stm32c0xx_hal_flash_ex.c ****   {
 738:Drivers/STM32C0xx_HAL_Driver/Src/stm32c0xx_hal_flash_ex.c ****     *WRPStartOffset = READ_BIT(FLASH->WRP1AR, FLASH_WRP1AR_WRP1A_STRT);
 739:Drivers/STM32C0xx_HAL_Driver/Src/stm32c0xx_hal_flash_ex.c ****     *WRDPEndOffset = (READ_BIT(FLASH->WRP1AR, FLASH_WRP1AR_WRP1A_END) >> FLASH_WRP1AR_WRP1A_END_Pos
 740:Drivers/STM32C0xx_HAL_Driver/Src/stm32c0xx_hal_flash_ex.c ****   }
 741:Drivers/STM32C0xx_HAL_Driver/Src/stm32c0xx_hal_flash_ex.c ****   else
 742:Drivers/STM32C0xx_HAL_Driver/Src/stm32c0xx_hal_flash_ex.c ****   {
 743:Drivers/STM32C0xx_HAL_Driver/Src/stm32c0xx_hal_flash_ex.c ****     *WRPStartOffset = READ_BIT(FLASH->WRP1BR, FLASH_WRP1BR_WRP1B_STRT);
 378              		.loc 1 743 5 is_stmt 1 view .LVU104
 379              		.loc 1 743 23 is_stmt 0 view .LVU105
 380 0006 0A4C     		ldr	r4, .L29
 381 0008 206B     		ldr	r0, [r4, #48]
 382              	.LVL29:
 383              		.loc 1 743 23 view .LVU106
 384 000a 0F23     		movs	r3, #15
 385 000c 1840     		ands	r0, r3
 386              		.loc 1 743 21 view .LVU107
 387 000e 0860     		str	r0, [r1]
 744:Drivers/STM32C0xx_HAL_Driver/Src/stm32c0xx_hal_flash_ex.c ****     *WRDPEndOffset = (READ_BIT(FLASH->WRP1BR, FLASH_WRP1BR_WRP1B_END) >> FLASH_WRP1BR_WRP1B_END_Pos
 388              		.loc 1 744 5 is_stmt 1 view .LVU108
 389              		.loc 1 744 23 is_stmt 0 view .LVU109
 390 0010 216B     		ldr	r1, [r4, #48]
 391              	.LVL30:
 392              		.loc 1 744 71 view .LVU110
 393 0012 090C     		lsrs	r1, r1, #16
 394 0014 0B40     		ands	r3, r1
 395              		.loc 1 744 20 view .LVU111
 396 0016 1360     		str	r3, [r2]
 397              	.L25:
 745:Drivers/STM32C0xx_HAL_Driver/Src/stm32c0xx_hal_flash_ex.c ****   }
 746:Drivers/STM32C0xx_HAL_Driver/Src/stm32c0xx_hal_flash_ex.c **** }
 398              		.loc 1 746 1 view .LVU112
 399              		@ sp needed
 400 0018 10BD     		pop	{r4, pc}
ARM GAS  C:\Users\main\AppData\Local\Temp\ccuDNLmp.s 			page 21


 401              	.LVL31:
 402              	.L28:
 738:Drivers/STM32C0xx_HAL_Driver/Src/stm32c0xx_hal_flash_ex.c ****     *WRDPEndOffset = (READ_BIT(FLASH->WRP1AR, FLASH_WRP1AR_WRP1A_END) >> FLASH_WRP1AR_WRP1A_END_Pos
 403              		.loc 1 738 5 is_stmt 1 view .LVU113
 738:Drivers/STM32C0xx_HAL_Driver/Src/stm32c0xx_hal_flash_ex.c ****     *WRDPEndOffset = (READ_BIT(FLASH->WRP1AR, FLASH_WRP1AR_WRP1A_END) >> FLASH_WRP1AR_WRP1A_END_Pos
 404              		.loc 1 738 23 is_stmt 0 view .LVU114
 405 001a 054C     		ldr	r4, .L29
 406 001c E06A     		ldr	r0, [r4, #44]
 407              	.LVL32:
 738:Drivers/STM32C0xx_HAL_Driver/Src/stm32c0xx_hal_flash_ex.c ****     *WRDPEndOffset = (READ_BIT(FLASH->WRP1AR, FLASH_WRP1AR_WRP1A_END) >> FLASH_WRP1AR_WRP1A_END_Pos
 408              		.loc 1 738 23 view .LVU115
 409 001e 0F23     		movs	r3, #15
 410 0020 1840     		ands	r0, r3
 738:Drivers/STM32C0xx_HAL_Driver/Src/stm32c0xx_hal_flash_ex.c ****     *WRDPEndOffset = (READ_BIT(FLASH->WRP1AR, FLASH_WRP1AR_WRP1A_END) >> FLASH_WRP1AR_WRP1A_END_Pos
 411              		.loc 1 738 21 view .LVU116
 412 0022 0860     		str	r0, [r1]
 739:Drivers/STM32C0xx_HAL_Driver/Src/stm32c0xx_hal_flash_ex.c ****   }
 413              		.loc 1 739 5 is_stmt 1 view .LVU117
 739:Drivers/STM32C0xx_HAL_Driver/Src/stm32c0xx_hal_flash_ex.c ****   }
 414              		.loc 1 739 23 is_stmt 0 view .LVU118
 415 0024 E16A     		ldr	r1, [r4, #44]
 416              	.LVL33:
 739:Drivers/STM32C0xx_HAL_Driver/Src/stm32c0xx_hal_flash_ex.c ****   }
 417              		.loc 1 739 71 view .LVU119
 418 0026 090C     		lsrs	r1, r1, #16
 419 0028 0B40     		ands	r3, r1
 739:Drivers/STM32C0xx_HAL_Driver/Src/stm32c0xx_hal_flash_ex.c ****   }
 420              		.loc 1 739 20 view .LVU120
 421 002a 1360     		str	r3, [r2]
 422 002c F4E7     		b	.L25
 423              	.L30:
 424 002e C046     		.align	2
 425              	.L29:
 426 0030 00200240 		.word	1073881088
 427              		.cfi_endproc
 428              	.LFE231:
 430              		.section	.text.FLASH_OB_GetRDP,"ax",%progbits
 431              		.align	1
 432              		.syntax unified
 433              		.code	16
 434              		.thumb_func
 436              	FLASH_OB_GetRDP:
 437              	.LFB232:
 747:Drivers/STM32C0xx_HAL_Driver/Src/stm32c0xx_hal_flash_ex.c **** 
 748:Drivers/STM32C0xx_HAL_Driver/Src/stm32c0xx_hal_flash_ex.c **** /**
 749:Drivers/STM32C0xx_HAL_Driver/Src/stm32c0xx_hal_flash_ex.c ****   * @brief  Return the FLASH Read Protection level.
 750:Drivers/STM32C0xx_HAL_Driver/Src/stm32c0xx_hal_flash_ex.c ****   * @retval FLASH ReadOut Protection Status:
 751:Drivers/STM32C0xx_HAL_Driver/Src/stm32c0xx_hal_flash_ex.c ****   *         This return value can be one of the following values:
 752:Drivers/STM32C0xx_HAL_Driver/Src/stm32c0xx_hal_flash_ex.c ****   *            @arg @ref OB_RDP_LEVEL_0 No protection
 753:Drivers/STM32C0xx_HAL_Driver/Src/stm32c0xx_hal_flash_ex.c ****   *            @arg @ref OB_RDP_LEVEL_1 Read protection of the memory
 754:Drivers/STM32C0xx_HAL_Driver/Src/stm32c0xx_hal_flash_ex.c ****   *            @arg @ref OB_RDP_LEVEL_2 Full chip protection
 755:Drivers/STM32C0xx_HAL_Driver/Src/stm32c0xx_hal_flash_ex.c ****   */
 756:Drivers/STM32C0xx_HAL_Driver/Src/stm32c0xx_hal_flash_ex.c **** static uint32_t FLASH_OB_GetRDP(void)
 757:Drivers/STM32C0xx_HAL_Driver/Src/stm32c0xx_hal_flash_ex.c **** {
 438              		.loc 1 757 1 is_stmt 1 view -0
 439              		.cfi_startproc
 440              		@ args = 0, pretend = 0, frame = 0
ARM GAS  C:\Users\main\AppData\Local\Temp\ccuDNLmp.s 			page 22


 441              		@ frame_needed = 0, uses_anonymous_args = 0
 442              		@ link register save eliminated.
 758:Drivers/STM32C0xx_HAL_Driver/Src/stm32c0xx_hal_flash_ex.c ****   uint32_t rdplvl = READ_BIT(FLASH->OPTR, FLASH_OPTR_RDP);
 443              		.loc 1 758 3 view .LVU122
 444              		.loc 1 758 21 is_stmt 0 view .LVU123
 445 0000 044B     		ldr	r3, .L34
 446 0002 1B6A     		ldr	r3, [r3, #32]
 447              		.loc 1 758 12 view .LVU124
 448 0004 FF20     		movs	r0, #255
 449 0006 1840     		ands	r0, r3
 450              	.LVL34:
 759:Drivers/STM32C0xx_HAL_Driver/Src/stm32c0xx_hal_flash_ex.c **** 
 760:Drivers/STM32C0xx_HAL_Driver/Src/stm32c0xx_hal_flash_ex.c ****   if ((rdplvl != OB_RDP_LEVEL_0) && (rdplvl != OB_RDP_LEVEL_2))
 451              		.loc 1 760 3 is_stmt 1 view .LVU125
 452              		.loc 1 760 6 is_stmt 0 view .LVU126
 453 0008 AA28     		cmp	r0, #170
 454 000a 02D0     		beq	.L31
 455              		.loc 1 760 34 discriminator 1 view .LVU127
 456 000c CC28     		cmp	r0, #204
 457 000e 00D0     		beq	.L31
 761:Drivers/STM32C0xx_HAL_Driver/Src/stm32c0xx_hal_flash_ex.c ****   {
 762:Drivers/STM32C0xx_HAL_Driver/Src/stm32c0xx_hal_flash_ex.c ****     return (OB_RDP_LEVEL_1);
 458              		.loc 1 762 12 view .LVU128
 459 0010 BB20     		movs	r0, #187
 460              	.LVL35:
 461              	.L31:
 763:Drivers/STM32C0xx_HAL_Driver/Src/stm32c0xx_hal_flash_ex.c ****   }
 764:Drivers/STM32C0xx_HAL_Driver/Src/stm32c0xx_hal_flash_ex.c ****   else
 765:Drivers/STM32C0xx_HAL_Driver/Src/stm32c0xx_hal_flash_ex.c ****   {
 766:Drivers/STM32C0xx_HAL_Driver/Src/stm32c0xx_hal_flash_ex.c ****     return rdplvl;
 767:Drivers/STM32C0xx_HAL_Driver/Src/stm32c0xx_hal_flash_ex.c ****   }
 768:Drivers/STM32C0xx_HAL_Driver/Src/stm32c0xx_hal_flash_ex.c **** }
 462              		.loc 1 768 1 view .LVU129
 463              		@ sp needed
 464 0012 7047     		bx	lr
 465              	.L35:
 466              		.align	2
 467              	.L34:
 468 0014 00200240 		.word	1073881088
 469              		.cfi_endproc
 470              	.LFE232:
 472              		.section	.text.FLASH_OB_GetUser,"ax",%progbits
 473              		.align	1
 474              		.syntax unified
 475              		.code	16
 476              		.thumb_func
 478              	FLASH_OB_GetUser:
 479              	.LFB233:
 769:Drivers/STM32C0xx_HAL_Driver/Src/stm32c0xx_hal_flash_ex.c **** 
 770:Drivers/STM32C0xx_HAL_Driver/Src/stm32c0xx_hal_flash_ex.c **** /**
 771:Drivers/STM32C0xx_HAL_Driver/Src/stm32c0xx_hal_flash_ex.c ****   * @brief  Return the FLASH User Option Byte value.
 772:Drivers/STM32C0xx_HAL_Driver/Src/stm32c0xx_hal_flash_ex.c ****   * @retval The FLASH User Option Bytes values. It will be a combination of all the following value
 773:Drivers/STM32C0xx_HAL_Driver/Src/stm32c0xx_hal_flash_ex.c ****   *         @arg @ref OB_USER_BOR_ENABLE,
 774:Drivers/STM32C0xx_HAL_Driver/Src/stm32c0xx_hal_flash_ex.c ****   *         @ref OB_USER_BOR_LEVEL,
 775:Drivers/STM32C0xx_HAL_Driver/Src/stm32c0xx_hal_flash_ex.c ****   *         @ref OB_USER_nRST_STOP,
 776:Drivers/STM32C0xx_HAL_Driver/Src/stm32c0xx_hal_flash_ex.c ****   *         @ref OB_USER_nRST_STANDBY,
 777:Drivers/STM32C0xx_HAL_Driver/Src/stm32c0xx_hal_flash_ex.c ****   *         @ref OB_USER_nRST_SHUTDOWN,
ARM GAS  C:\Users\main\AppData\Local\Temp\ccuDNLmp.s 			page 23


 778:Drivers/STM32C0xx_HAL_Driver/Src/stm32c0xx_hal_flash_ex.c ****   *         @ref OB_USER_IWDG_SW,
 779:Drivers/STM32C0xx_HAL_Driver/Src/stm32c0xx_hal_flash_ex.c ****   *         @ref OB_USER_IWDG_STOP,
 780:Drivers/STM32C0xx_HAL_Driver/Src/stm32c0xx_hal_flash_ex.c ****   *         @ref OB_USER_IWDG_STANDBY,
 781:Drivers/STM32C0xx_HAL_Driver/Src/stm32c0xx_hal_flash_ex.c ****   *         @ref OB_USER_WWDG_SW,
 782:Drivers/STM32C0xx_HAL_Driver/Src/stm32c0xx_hal_flash_ex.c ****   *         @ref OB_USER_SRAM_PARITY,
 783:Drivers/STM32C0xx_HAL_Driver/Src/stm32c0xx_hal_flash_ex.c ****   *         @ref OB_USER_nBOOT_SEL,
 784:Drivers/STM32C0xx_HAL_Driver/Src/stm32c0xx_hal_flash_ex.c ****   *         @ref OB_USER_nBOOT1,
 785:Drivers/STM32C0xx_HAL_Driver/Src/stm32c0xx_hal_flash_ex.c ****   *         @ref OB_USER_nBOOT0,
 786:Drivers/STM32C0xx_HAL_Driver/Src/stm32c0xx_hal_flash_ex.c ****   *         @ref OB_USER_INPUT_RESET_HOLDER
 787:Drivers/STM32C0xx_HAL_Driver/Src/stm32c0xx_hal_flash_ex.c ****   *         @ref OB_USER_SECURE_MUXING_EN
 788:Drivers/STM32C0xx_HAL_Driver/Src/stm32c0xx_hal_flash_ex.c ****   *         @ref OB_USER_HSE_NOT_REMAPPED (*)
 789:Drivers/STM32C0xx_HAL_Driver/Src/stm32c0xx_hal_flash_ex.c ****   *
 790:Drivers/STM32C0xx_HAL_Driver/Src/stm32c0xx_hal_flash_ex.c ****   * @note   (*) available only on STM32C071xx, STM32C051xx and STM32C091/92xx devices.
 791:Drivers/STM32C0xx_HAL_Driver/Src/stm32c0xx_hal_flash_ex.c ****   */
 792:Drivers/STM32C0xx_HAL_Driver/Src/stm32c0xx_hal_flash_ex.c **** static uint32_t FLASH_OB_GetUser(void)
 793:Drivers/STM32C0xx_HAL_Driver/Src/stm32c0xx_hal_flash_ex.c **** {
 480              		.loc 1 793 1 is_stmt 1 view -0
 481              		.cfi_startproc
 482              		@ args = 0, pretend = 0, frame = 0
 483              		@ frame_needed = 0, uses_anonymous_args = 0
 484              		@ link register save eliminated.
 794:Drivers/STM32C0xx_HAL_Driver/Src/stm32c0xx_hal_flash_ex.c ****   uint32_t user = ((FLASH->OPTR & ~FLASH_OPTR_RDP) & OB_USER_ALL);
 485              		.loc 1 794 3 view .LVU131
 486              		.loc 1 794 26 is_stmt 0 view .LVU132
 487 0000 024B     		ldr	r3, .L37
 488 0002 186A     		ldr	r0, [r3, #32]
 489              		.loc 1 794 12 view .LVU133
 490 0004 024B     		ldr	r3, .L37+4
 491 0006 1840     		ands	r0, r3
 492              	.LVL36:
 795:Drivers/STM32C0xx_HAL_Driver/Src/stm32c0xx_hal_flash_ex.c ****   return user;
 493              		.loc 1 795 3 is_stmt 1 view .LVU134
 796:Drivers/STM32C0xx_HAL_Driver/Src/stm32c0xx_hal_flash_ex.c **** }
 494              		.loc 1 796 1 is_stmt 0 view .LVU135
 495              		@ sp needed
 496 0008 7047     		bx	lr
 497              	.L38:
 498 000a C046     		.align	2
 499              	.L37:
 500 000c 00200240 		.word	1073881088
 501 0010 00FFEF3F 		.word	1072692992
 502              		.cfi_endproc
 503              	.LFE233:
 505              		.section	.text.FLASH_OB_GetPCROP1A,"ax",%progbits
 506              		.align	1
 507              		.syntax unified
 508              		.code	16
 509              		.thumb_func
 511              	FLASH_OB_GetPCROP1A:
 512              	.LVL37:
 513              	.LFB234:
 797:Drivers/STM32C0xx_HAL_Driver/Src/stm32c0xx_hal_flash_ex.c **** 
 798:Drivers/STM32C0xx_HAL_Driver/Src/stm32c0xx_hal_flash_ex.c **** /**
 799:Drivers/STM32C0xx_HAL_Driver/Src/stm32c0xx_hal_flash_ex.c ****   * @brief  Return the FLASH PCROP Protection Option Bytes value.
 800:Drivers/STM32C0xx_HAL_Driver/Src/stm32c0xx_hal_flash_ex.c ****   * @param  PCROPConfig [out]  specifies the configuration of PCROP_RDP option.
 801:Drivers/STM32C0xx_HAL_Driver/Src/stm32c0xx_hal_flash_ex.c ****   * @param  PCROP1AStartAddr [out]  Specifies the address where to copied the start address
 802:Drivers/STM32C0xx_HAL_Driver/Src/stm32c0xx_hal_flash_ex.c ****   *         of the 1A Proprietary code readout protection
ARM GAS  C:\Users\main\AppData\Local\Temp\ccuDNLmp.s 			page 24


 803:Drivers/STM32C0xx_HAL_Driver/Src/stm32c0xx_hal_flash_ex.c ****   * @param  PCROP1AEndAddr [out]  Specifies the address where to copied the end address of
 804:Drivers/STM32C0xx_HAL_Driver/Src/stm32c0xx_hal_flash_ex.c ****   *         the 1A Proprietary code readout protection
 805:Drivers/STM32C0xx_HAL_Driver/Src/stm32c0xx_hal_flash_ex.c ****   * @retval None
 806:Drivers/STM32C0xx_HAL_Driver/Src/stm32c0xx_hal_flash_ex.c ****   */
 807:Drivers/STM32C0xx_HAL_Driver/Src/stm32c0xx_hal_flash_ex.c **** static void FLASH_OB_GetPCROP1A(uint32_t *PCROPConfig, uint32_t *PCROP1AStartAddr, uint32_t *PCROP1
 808:Drivers/STM32C0xx_HAL_Driver/Src/stm32c0xx_hal_flash_ex.c **** {
 514              		.loc 1 808 1 is_stmt 1 view -0
 515              		.cfi_startproc
 516              		@ args = 0, pretend = 0, frame = 0
 517              		@ frame_needed = 0, uses_anonymous_args = 0
 518              		.loc 1 808 1 is_stmt 0 view .LVU137
 519 0000 70B5     		push	{r4, r5, r6, lr}
 520              		.cfi_def_cfa_offset 16
 521              		.cfi_offset 4, -16
 522              		.cfi_offset 5, -12
 523              		.cfi_offset 6, -8
 524              		.cfi_offset 14, -4
 809:Drivers/STM32C0xx_HAL_Driver/Src/stm32c0xx_hal_flash_ex.c ****   uint32_t pcrop;
 525              		.loc 1 809 3 is_stmt 1 view .LVU138
 810:Drivers/STM32C0xx_HAL_Driver/Src/stm32c0xx_hal_flash_ex.c **** 
 811:Drivers/STM32C0xx_HAL_Driver/Src/stm32c0xx_hal_flash_ex.c ****   pcrop = (FLASH->PCROP1ASR & FLASH_PCROP1ASR_PCROP1A_STRT);
 526              		.loc 1 811 3 view .LVU139
 527              		.loc 1 811 17 is_stmt 0 view .LVU140
 528 0002 0E4D     		ldr	r5, .L40
 529 0004 6B6A     		ldr	r3, [r5, #36]
 530              	.LVL38:
 812:Drivers/STM32C0xx_HAL_Driver/Src/stm32c0xx_hal_flash_ex.c ****   *PCROP1AStartAddr = (pcrop << FLASH_PCROP_GRANULARITY_OFFSET);
 531              		.loc 1 812 3 is_stmt 1 view .LVU141
 532              		.loc 1 812 30 is_stmt 0 view .LVU142
 533 0006 5B02     		lsls	r3, r3, #9
 534              	.LVL39:
 535              		.loc 1 812 30 view .LVU143
 536 0008 FC24     		movs	r4, #252
 537 000a E401     		lsls	r4, r4, #7
 538 000c 2340     		ands	r3, r4
 539              		.loc 1 812 21 view .LVU144
 540 000e 0B60     		str	r3, [r1]
 813:Drivers/STM32C0xx_HAL_Driver/Src/stm32c0xx_hal_flash_ex.c ****   *PCROP1AStartAddr += FLASH_BASE;
 541              		.loc 1 813 3 is_stmt 1 view .LVU145
 542              		.loc 1 813 21 is_stmt 0 view .LVU146
 543 0010 8026     		movs	r6, #128
 544 0012 3605     		lsls	r6, r6, #20
 545 0014 B446     		mov	ip, r6
 546 0016 6344     		add	r3, r3, ip
 547 0018 0B60     		str	r3, [r1]
 814:Drivers/STM32C0xx_HAL_Driver/Src/stm32c0xx_hal_flash_ex.c **** 
 815:Drivers/STM32C0xx_HAL_Driver/Src/stm32c0xx_hal_flash_ex.c ****   pcrop = FLASH->PCROP1AER;
 548              		.loc 1 815 3 is_stmt 1 view .LVU147
 549              		.loc 1 815 9 is_stmt 0 view .LVU148
 550 001a A96A     		ldr	r1, [r5, #40]
 551              	.LVL40:
 816:Drivers/STM32C0xx_HAL_Driver/Src/stm32c0xx_hal_flash_ex.c ****   *PCROP1AEndAddr = ((pcrop & FLASH_PCROP1AER_PCROP1A_END) << FLASH_PCROP_GRANULARITY_OFFSET);
 552              		.loc 1 816 3 is_stmt 1 view .LVU149
 553              		.loc 1 816 60 is_stmt 0 view .LVU150
 554 001c 4B02     		lsls	r3, r1, #9
 555 001e 2340     		ands	r3, r4
 556              		.loc 1 816 19 view .LVU151
ARM GAS  C:\Users\main\AppData\Local\Temp\ccuDNLmp.s 			page 25


 557 0020 1360     		str	r3, [r2]
 817:Drivers/STM32C0xx_HAL_Driver/Src/stm32c0xx_hal_flash_ex.c ****   *PCROP1AEndAddr += (FLASH_BASE + FLASH_PCROP_GRANULARITY - 1U);
 558              		.loc 1 817 3 is_stmt 1 view .LVU152
 559              		.loc 1 817 19 is_stmt 0 view .LVU153
 560 0022 074C     		ldr	r4, .L40+4
 561 0024 A446     		mov	ip, r4
 562 0026 6344     		add	r3, r3, ip
 563 0028 1360     		str	r3, [r2]
 818:Drivers/STM32C0xx_HAL_Driver/Src/stm32c0xx_hal_flash_ex.c **** 
 819:Drivers/STM32C0xx_HAL_Driver/Src/stm32c0xx_hal_flash_ex.c ****   *PCROPConfig &= ~OB_PCROP_RDP_ERASE;
 564              		.loc 1 819 3 is_stmt 1 view .LVU154
 565 002a 0368     		ldr	r3, [r0]
 566              		.loc 1 819 16 is_stmt 0 view .LVU155
 567 002c 5B00     		lsls	r3, r3, #1
 568 002e 5B08     		lsrs	r3, r3, #1
 569 0030 0360     		str	r3, [r0]
 820:Drivers/STM32C0xx_HAL_Driver/Src/stm32c0xx_hal_flash_ex.c ****   *PCROPConfig |= (pcrop & FLASH_PCROP1AER_PCROP_RDP);
 570              		.loc 1 820 3 is_stmt 1 view .LVU156
 571              		.loc 1 820 26 is_stmt 0 view .LVU157
 572 0032 C90F     		lsrs	r1, r1, #31
 573              	.LVL41:
 574              		.loc 1 820 26 view .LVU158
 575 0034 C907     		lsls	r1, r1, #31
 576              		.loc 1 820 16 view .LVU159
 577 0036 0B43     		orrs	r3, r1
 578 0038 0360     		str	r3, [r0]
 821:Drivers/STM32C0xx_HAL_Driver/Src/stm32c0xx_hal_flash_ex.c **** }
 579              		.loc 1 821 1 view .LVU160
 580              		@ sp needed
 581 003a 70BD     		pop	{r4, r5, r6, pc}
 582              	.L41:
 583              		.align	2
 584              	.L40:
 585 003c 00200240 		.word	1073881088
 586 0040 FF010008 		.word	134218239
 587              		.cfi_endproc
 588              	.LFE234:
 590              		.section	.text.FLASH_OB_GetPCROP1B,"ax",%progbits
 591              		.align	1
 592              		.syntax unified
 593              		.code	16
 594              		.thumb_func
 596              	FLASH_OB_GetPCROP1B:
 597              	.LVL42:
 598              	.LFB235:
 822:Drivers/STM32C0xx_HAL_Driver/Src/stm32c0xx_hal_flash_ex.c **** 
 823:Drivers/STM32C0xx_HAL_Driver/Src/stm32c0xx_hal_flash_ex.c **** 
 824:Drivers/STM32C0xx_HAL_Driver/Src/stm32c0xx_hal_flash_ex.c **** /**
 825:Drivers/STM32C0xx_HAL_Driver/Src/stm32c0xx_hal_flash_ex.c ****   * @brief  Return the FLASH PCROP Protection Option Bytes value.
 826:Drivers/STM32C0xx_HAL_Driver/Src/stm32c0xx_hal_flash_ex.c ****   * @param  PCROP1BStartAddr [out]  Specifies the address where to copied the start address
 827:Drivers/STM32C0xx_HAL_Driver/Src/stm32c0xx_hal_flash_ex.c ****   *         of the 1B Proprietary code readout protection
 828:Drivers/STM32C0xx_HAL_Driver/Src/stm32c0xx_hal_flash_ex.c ****   * @param  PCROP1BEndAddr [out]  Specifies the address where to copied the end address of
 829:Drivers/STM32C0xx_HAL_Driver/Src/stm32c0xx_hal_flash_ex.c ****   *         the 1B Proprietary code readout protection
 830:Drivers/STM32C0xx_HAL_Driver/Src/stm32c0xx_hal_flash_ex.c ****   * @retval None
 831:Drivers/STM32C0xx_HAL_Driver/Src/stm32c0xx_hal_flash_ex.c ****   */
 832:Drivers/STM32C0xx_HAL_Driver/Src/stm32c0xx_hal_flash_ex.c **** static void FLASH_OB_GetPCROP1B(uint32_t *PCROP1BStartAddr, uint32_t *PCROP1BEndAddr)
 833:Drivers/STM32C0xx_HAL_Driver/Src/stm32c0xx_hal_flash_ex.c **** {
ARM GAS  C:\Users\main\AppData\Local\Temp\ccuDNLmp.s 			page 26


 599              		.loc 1 833 1 is_stmt 1 view -0
 600              		.cfi_startproc
 601              		@ args = 0, pretend = 0, frame = 0
 602              		@ frame_needed = 0, uses_anonymous_args = 0
 603              		.loc 1 833 1 is_stmt 0 view .LVU162
 604 0000 30B5     		push	{r4, r5, lr}
 605              		.cfi_def_cfa_offset 12
 606              		.cfi_offset 4, -12
 607              		.cfi_offset 5, -8
 608              		.cfi_offset 14, -4
 834:Drivers/STM32C0xx_HAL_Driver/Src/stm32c0xx_hal_flash_ex.c ****   uint32_t pcrop;
 609              		.loc 1 834 3 is_stmt 1 view .LVU163
 835:Drivers/STM32C0xx_HAL_Driver/Src/stm32c0xx_hal_flash_ex.c **** 
 836:Drivers/STM32C0xx_HAL_Driver/Src/stm32c0xx_hal_flash_ex.c ****   pcrop = (FLASH->PCROP1BSR & FLASH_PCROP1BSR_PCROP1B_STRT);
 610              		.loc 1 836 3 view .LVU164
 611              		.loc 1 836 17 is_stmt 0 view .LVU165
 612 0002 0A4C     		ldr	r4, .L43
 613 0004 636B     		ldr	r3, [r4, #52]
 614              	.LVL43:
 837:Drivers/STM32C0xx_HAL_Driver/Src/stm32c0xx_hal_flash_ex.c ****   *PCROP1BStartAddr = (pcrop << FLASH_PCROP_GRANULARITY_OFFSET);
 615              		.loc 1 837 3 is_stmt 1 view .LVU166
 616              		.loc 1 837 30 is_stmt 0 view .LVU167
 617 0006 5B02     		lsls	r3, r3, #9
 618              	.LVL44:
 619              		.loc 1 837 30 view .LVU168
 620 0008 FC22     		movs	r2, #252
 621 000a D201     		lsls	r2, r2, #7
 622 000c 1340     		ands	r3, r2
 623              		.loc 1 837 21 view .LVU169
 624 000e 0360     		str	r3, [r0]
 838:Drivers/STM32C0xx_HAL_Driver/Src/stm32c0xx_hal_flash_ex.c ****   *PCROP1BStartAddr += FLASH_BASE;
 625              		.loc 1 838 3 is_stmt 1 view .LVU170
 626              		.loc 1 838 21 is_stmt 0 view .LVU171
 627 0010 8025     		movs	r5, #128
 628 0012 2D05     		lsls	r5, r5, #20
 629 0014 AC46     		mov	ip, r5
 630 0016 6344     		add	r3, r3, ip
 631 0018 0360     		str	r3, [r0]
 839:Drivers/STM32C0xx_HAL_Driver/Src/stm32c0xx_hal_flash_ex.c **** 
 840:Drivers/STM32C0xx_HAL_Driver/Src/stm32c0xx_hal_flash_ex.c ****   pcrop = (FLASH->PCROP1BER & FLASH_PCROP1BER_PCROP1B_END);
 632              		.loc 1 840 3 is_stmt 1 view .LVU172
 633              		.loc 1 840 17 is_stmt 0 view .LVU173
 634 001a A36B     		ldr	r3, [r4, #56]
 635              	.LVL45:
 841:Drivers/STM32C0xx_HAL_Driver/Src/stm32c0xx_hal_flash_ex.c ****   *PCROP1BEndAddr = (pcrop << FLASH_PCROP_GRANULARITY_OFFSET);
 636              		.loc 1 841 3 is_stmt 1 view .LVU174
 637              		.loc 1 841 28 is_stmt 0 view .LVU175
 638 001c 5B02     		lsls	r3, r3, #9
 639              	.LVL46:
 640              		.loc 1 841 28 view .LVU176
 641 001e 1340     		ands	r3, r2
 642              		.loc 1 841 19 view .LVU177
 643 0020 0B60     		str	r3, [r1]
 842:Drivers/STM32C0xx_HAL_Driver/Src/stm32c0xx_hal_flash_ex.c ****   *PCROP1BEndAddr += (FLASH_BASE + FLASH_PCROP_GRANULARITY - 1U);
 644              		.loc 1 842 3 is_stmt 1 view .LVU178
 645              		.loc 1 842 19 is_stmt 0 view .LVU179
 646 0022 034A     		ldr	r2, .L43+4
ARM GAS  C:\Users\main\AppData\Local\Temp\ccuDNLmp.s 			page 27


 647 0024 9446     		mov	ip, r2
 648 0026 6344     		add	r3, r3, ip
 649 0028 0B60     		str	r3, [r1]
 843:Drivers/STM32C0xx_HAL_Driver/Src/stm32c0xx_hal_flash_ex.c **** }
 650              		.loc 1 843 1 view .LVU180
 651              		@ sp needed
 652 002a 30BD     		pop	{r4, r5, pc}
 653              	.L44:
 654              		.align	2
 655              	.L43:
 656 002c 00200240 		.word	1073881088
 657 0030 FF010008 		.word	134218239
 658              		.cfi_endproc
 659              	.LFE235:
 661              		.section	.text.FLASH_OB_GetSecMem,"ax",%progbits
 662              		.align	1
 663              		.syntax unified
 664              		.code	16
 665              		.thumb_func
 667              	FLASH_OB_GetSecMem:
 668              	.LVL47:
 669              	.LFB236:
 844:Drivers/STM32C0xx_HAL_Driver/Src/stm32c0xx_hal_flash_ex.c **** 
 845:Drivers/STM32C0xx_HAL_Driver/Src/stm32c0xx_hal_flash_ex.c **** /**
 846:Drivers/STM32C0xx_HAL_Driver/Src/stm32c0xx_hal_flash_ex.c ****   * @brief  Return the FLASH Securable memory area protection Option Bytes value.
 847:Drivers/STM32C0xx_HAL_Driver/Src/stm32c0xx_hal_flash_ex.c ****   * @param  BootEntry  specifies boot scheme configuration
 848:Drivers/STM32C0xx_HAL_Driver/Src/stm32c0xx_hal_flash_ex.c ****   * @param  SecSize specifies number of pages to protect as secure memory area, starting from
 849:Drivers/STM32C0xx_HAL_Driver/Src/stm32c0xx_hal_flash_ex.c ****   *         beginning of the Flash (page 0).
 850:Drivers/STM32C0xx_HAL_Driver/Src/stm32c0xx_hal_flash_ex.c ****   * @retval None
 851:Drivers/STM32C0xx_HAL_Driver/Src/stm32c0xx_hal_flash_ex.c ****   */
 852:Drivers/STM32C0xx_HAL_Driver/Src/stm32c0xx_hal_flash_ex.c **** static void FLASH_OB_GetSecMem(uint32_t *BootEntry, uint32_t *SecSize)
 853:Drivers/STM32C0xx_HAL_Driver/Src/stm32c0xx_hal_flash_ex.c **** {
 670              		.loc 1 853 1 is_stmt 1 view -0
 671              		.cfi_startproc
 672              		@ args = 0, pretend = 0, frame = 0
 673              		@ frame_needed = 0, uses_anonymous_args = 0
 674              		@ link register save eliminated.
 854:Drivers/STM32C0xx_HAL_Driver/Src/stm32c0xx_hal_flash_ex.c ****   uint32_t secmem = FLASH->SECR;
 675              		.loc 1 854 3 view .LVU182
 676              		.loc 1 854 12 is_stmt 0 view .LVU183
 677 0000 054A     		ldr	r2, .L46
 678 0002 8023     		movs	r3, #128
 679 0004 D258     		ldr	r2, [r2, r3]
 680              	.LVL48:
 855:Drivers/STM32C0xx_HAL_Driver/Src/stm32c0xx_hal_flash_ex.c **** 
 856:Drivers/STM32C0xx_HAL_Driver/Src/stm32c0xx_hal_flash_ex.c ****   *BootEntry = (secmem & FLASH_SECR_BOOT_LOCK);
 681              		.loc 1 856 3 is_stmt 1 view .LVU184
 682              		.loc 1 856 24 is_stmt 0 view .LVU185
 683 0006 8023     		movs	r3, #128
 684 0008 5B02     		lsls	r3, r3, #9
 685 000a 1340     		ands	r3, r2
 686              		.loc 1 856 14 view .LVU186
 687 000c 0360     		str	r3, [r0]
 857:Drivers/STM32C0xx_HAL_Driver/Src/stm32c0xx_hal_flash_ex.c ****   *SecSize = (secmem & FLASH_SECR_SEC_SIZE);
 688              		.loc 1 857 3 is_stmt 1 view .LVU187
 689              		.loc 1 857 22 is_stmt 0 view .LVU188
 690 000e 1F23     		movs	r3, #31
ARM GAS  C:\Users\main\AppData\Local\Temp\ccuDNLmp.s 			page 28


 691 0010 1340     		ands	r3, r2
 692              		.loc 1 857 12 view .LVU189
 693 0012 0B60     		str	r3, [r1]
 858:Drivers/STM32C0xx_HAL_Driver/Src/stm32c0xx_hal_flash_ex.c **** }
 694              		.loc 1 858 1 view .LVU190
 695              		@ sp needed
 696 0014 7047     		bx	lr
 697              	.L47:
 698 0016 C046     		.align	2
 699              	.L46:
 700 0018 00200240 		.word	1073881088
 701              		.cfi_endproc
 702              	.LFE236:
 704              		.section	.text.HAL_FLASHEx_OBProgram,"ax",%progbits
 705              		.align	1
 706              		.global	HAL_FLASHEx_OBProgram
 707              		.syntax unified
 708              		.code	16
 709              		.thumb_func
 711              	HAL_FLASHEx_OBProgram:
 712              	.LVL49:
 713              	.LFB216:
 271:Drivers/STM32C0xx_HAL_Driver/Src/stm32c0xx_hal_flash_ex.c ****   uint32_t optr;
 714              		.loc 1 271 1 is_stmt 1 view -0
 715              		.cfi_startproc
 716              		@ args = 0, pretend = 0, frame = 0
 717              		@ frame_needed = 0, uses_anonymous_args = 0
 271:Drivers/STM32C0xx_HAL_Driver/Src/stm32c0xx_hal_flash_ex.c ****   uint32_t optr;
 718              		.loc 1 271 1 is_stmt 0 view .LVU192
 719 0000 10B5     		push	{r4, lr}
 720              		.cfi_def_cfa_offset 8
 721              		.cfi_offset 4, -8
 722              		.cfi_offset 14, -4
 723 0002 0400     		movs	r4, r0
 272:Drivers/STM32C0xx_HAL_Driver/Src/stm32c0xx_hal_flash_ex.c ****   HAL_StatusTypeDef status;
 724              		.loc 1 272 3 is_stmt 1 view .LVU193
 273:Drivers/STM32C0xx_HAL_Driver/Src/stm32c0xx_hal_flash_ex.c **** 
 725              		.loc 1 273 3 view .LVU194
 276:Drivers/STM32C0xx_HAL_Driver/Src/stm32c0xx_hal_flash_ex.c **** 
 726              		.loc 1 276 3 view .LVU195
 279:Drivers/STM32C0xx_HAL_Driver/Src/stm32c0xx_hal_flash_ex.c **** 
 727              		.loc 1 279 3 view .LVU196
 279:Drivers/STM32C0xx_HAL_Driver/Src/stm32c0xx_hal_flash_ex.c **** 
 728              		.loc 1 279 3 view .LVU197
 729 0004 334B     		ldr	r3, .L71
 730 0006 1B78     		ldrb	r3, [r3]
 731 0008 012B     		cmp	r3, #1
 732 000a 60D0     		beq	.L58
 279:Drivers/STM32C0xx_HAL_Driver/Src/stm32c0xx_hal_flash_ex.c **** 
 733              		.loc 1 279 3 discriminator 2 view .LVU198
 734 000c 314B     		ldr	r3, .L71
 735 000e 0122     		movs	r2, #1
 736 0010 1A70     		strb	r2, [r3]
 279:Drivers/STM32C0xx_HAL_Driver/Src/stm32c0xx_hal_flash_ex.c **** 
 737              		.loc 1 279 3 view .LVU199
 281:Drivers/STM32C0xx_HAL_Driver/Src/stm32c0xx_hal_flash_ex.c **** 
 738              		.loc 1 281 3 view .LVU200
ARM GAS  C:\Users\main\AppData\Local\Temp\ccuDNLmp.s 			page 29


 281:Drivers/STM32C0xx_HAL_Driver/Src/stm32c0xx_hal_flash_ex.c **** 
 739              		.loc 1 281 20 is_stmt 0 view .LVU201
 740 0012 0021     		movs	r1, #0
 741 0014 5960     		str	r1, [r3, #4]
 284:Drivers/STM32C0xx_HAL_Driver/Src/stm32c0xx_hal_flash_ex.c ****   {
 742              		.loc 1 284 3 is_stmt 1 view .LVU202
 284:Drivers/STM32C0xx_HAL_Driver/Src/stm32c0xx_hal_flash_ex.c ****   {
 743              		.loc 1 284 15 is_stmt 0 view .LVU203
 744 0016 0368     		ldr	r3, [r0]
 284:Drivers/STM32C0xx_HAL_Driver/Src/stm32c0xx_hal_flash_ex.c ****   {
 745              		.loc 1 284 6 view .LVU204
 746 0018 1A42     		tst	r2, r3
 747 001a 1FD1     		bne	.L63
 748              	.LVL50:
 749              	.L50:
 291:Drivers/STM32C0xx_HAL_Driver/Src/stm32c0xx_hal_flash_ex.c ****   {
 750              		.loc 1 291 3 is_stmt 1 view .LVU205
 291:Drivers/STM32C0xx_HAL_Driver/Src/stm32c0xx_hal_flash_ex.c ****   {
 751              		.loc 1 291 15 is_stmt 0 view .LVU206
 752 001c 2268     		ldr	r2, [r4]
 291:Drivers/STM32C0xx_HAL_Driver/Src/stm32c0xx_hal_flash_ex.c ****   {
 753              		.loc 1 291 28 view .LVU207
 754 001e 0623     		movs	r3, #6
 755 0020 1340     		ands	r3, r2
 291:Drivers/STM32C0xx_HAL_Driver/Src/stm32c0xx_hal_flash_ex.c ****   {
 756              		.loc 1 291 6 view .LVU208
 757 0022 062B     		cmp	r3, #6
 758 0024 20D0     		beq	.L64
 296:Drivers/STM32C0xx_HAL_Driver/Src/stm32c0xx_hal_flash_ex.c ****   {
 759              		.loc 1 296 8 is_stmt 1 view .LVU209
 296:Drivers/STM32C0xx_HAL_Driver/Src/stm32c0xx_hal_flash_ex.c ****   {
 760              		.loc 1 296 11 is_stmt 0 view .LVU210
 761 0026 9307     		lsls	r3, r2, #30
 762 0028 24D4     		bmi	.L65
 302:Drivers/STM32C0xx_HAL_Driver/Src/stm32c0xx_hal_flash_ex.c ****   {
 763              		.loc 1 302 8 is_stmt 1 view .LVU211
 302:Drivers/STM32C0xx_HAL_Driver/Src/stm32c0xx_hal_flash_ex.c ****   {
 764              		.loc 1 302 11 is_stmt 0 view .LVU212
 765 002a 5207     		lsls	r2, r2, #29
 766 002c 29D4     		bmi	.L66
 767              	.L52:
 311:Drivers/STM32C0xx_HAL_Driver/Src/stm32c0xx_hal_flash_ex.c **** 
 768              		.loc 1 311 3 is_stmt 1 view .LVU213
 314:Drivers/STM32C0xx_HAL_Driver/Src/stm32c0xx_hal_flash_ex.c ****   {
 769              		.loc 1 314 3 view .LVU214
 314:Drivers/STM32C0xx_HAL_Driver/Src/stm32c0xx_hal_flash_ex.c ****   {
 770              		.loc 1 314 15 is_stmt 0 view .LVU215
 771 002e 2368     		ldr	r3, [r4]
 314:Drivers/STM32C0xx_HAL_Driver/Src/stm32c0xx_hal_flash_ex.c ****   {
 772              		.loc 1 314 6 view .LVU216
 773 0030 1B07     		lsls	r3, r3, #28
 774 0032 06D5     		bpl	.L54
 317:Drivers/STM32C0xx_HAL_Driver/Src/stm32c0xx_hal_flash_ex.c **** 
 775              		.loc 1 317 5 is_stmt 1 view .LVU217
 319:Drivers/STM32C0xx_HAL_Driver/Src/stm32c0xx_hal_flash_ex.c ****     {
 776              		.loc 1 319 5 view .LVU218
 319:Drivers/STM32C0xx_HAL_Driver/Src/stm32c0xx_hal_flash_ex.c ****     {
ARM GAS  C:\Users\main\AppData\Local\Temp\ccuDNLmp.s 			page 30


 777              		.loc 1 319 17 is_stmt 0 view .LVU219
 778 0034 E069     		ldr	r0, [r4, #28]
 319:Drivers/STM32C0xx_HAL_Driver/Src/stm32c0xx_hal_flash_ex.c ****     {
 779              		.loc 1 319 31 view .LVU220
 780 0036 284B     		ldr	r3, .L71+4
 319:Drivers/STM32C0xx_HAL_Driver/Src/stm32c0xx_hal_flash_ex.c ****     {
 781              		.loc 1 319 8 view .LVU221
 782 0038 1842     		tst	r0, r3
 783 003a 2AD1     		bne	.L67
 784              	.L55:
 325:Drivers/STM32C0xx_HAL_Driver/Src/stm32c0xx_hal_flash_ex.c ****     {
 785              		.loc 1 325 5 is_stmt 1 view .LVU222
 325:Drivers/STM32C0xx_HAL_Driver/Src/stm32c0xx_hal_flash_ex.c ****     {
 786              		.loc 1 325 17 is_stmt 0 view .LVU223
 787 003c E369     		ldr	r3, [r4, #28]
 325:Drivers/STM32C0xx_HAL_Driver/Src/stm32c0xx_hal_flash_ex.c ****     {
 788              		.loc 1 325 8 view .LVU224
 789 003e 9B07     		lsls	r3, r3, #30
 790 0040 2CD4     		bmi	.L68
 791              	.L54:
 333:Drivers/STM32C0xx_HAL_Driver/Src/stm32c0xx_hal_flash_ex.c ****   {
 792              		.loc 1 333 3 is_stmt 1 view .LVU225
 333:Drivers/STM32C0xx_HAL_Driver/Src/stm32c0xx_hal_flash_ex.c ****   {
 793              		.loc 1 333 15 is_stmt 0 view .LVU226
 794 0042 2368     		ldr	r3, [r4]
 333:Drivers/STM32C0xx_HAL_Driver/Src/stm32c0xx_hal_flash_ex.c ****   {
 795              		.loc 1 333 6 view .LVU227
 796 0044 DB06     		lsls	r3, r3, #27
 797 0046 2ED4     		bmi	.L69
 798              	.L56:
 341:Drivers/STM32C0xx_HAL_Driver/Src/stm32c0xx_hal_flash_ex.c **** 
 799              		.loc 1 341 3 is_stmt 1 view .LVU228
 341:Drivers/STM32C0xx_HAL_Driver/Src/stm32c0xx_hal_flash_ex.c **** 
 800              		.loc 1 341 12 is_stmt 0 view .LVU229
 801 0048 FA20     		movs	r0, #250
 802 004a 8000     		lsls	r0, r0, #2
 803 004c FFF7FEFF 		bl	FLASH_WaitForLastOperation
 804              	.LVL51:
 343:Drivers/STM32C0xx_HAL_Driver/Src/stm32c0xx_hal_flash_ex.c ****   {
 805              		.loc 1 343 3 is_stmt 1 view .LVU230
 343:Drivers/STM32C0xx_HAL_Driver/Src/stm32c0xx_hal_flash_ex.c ****   {
 806              		.loc 1 343 6 is_stmt 0 view .LVU231
 807 0050 0028     		cmp	r0, #0
 808 0052 2DD0     		beq	.L70
 809              	.LVL52:
 810              	.L57:
 356:Drivers/STM32C0xx_HAL_Driver/Src/stm32c0xx_hal_flash_ex.c **** 
 811              		.loc 1 356 3 is_stmt 1 view .LVU232
 356:Drivers/STM32C0xx_HAL_Driver/Src/stm32c0xx_hal_flash_ex.c **** 
 812              		.loc 1 356 3 view .LVU233
 813 0054 1F4B     		ldr	r3, .L71
 814 0056 0022     		movs	r2, #0
 815 0058 1A70     		strb	r2, [r3]
 356:Drivers/STM32C0xx_HAL_Driver/Src/stm32c0xx_hal_flash_ex.c **** 
 816              		.loc 1 356 3 view .LVU234
 359:Drivers/STM32C0xx_HAL_Driver/Src/stm32c0xx_hal_flash_ex.c **** }
 817              		.loc 1 359 3 view .LVU235
ARM GAS  C:\Users\main\AppData\Local\Temp\ccuDNLmp.s 			page 31


 818              	.LVL53:
 819              	.L49:
 360:Drivers/STM32C0xx_HAL_Driver/Src/stm32c0xx_hal_flash_ex.c **** 
 820              		.loc 1 360 1 is_stmt 0 view .LVU236
 821              		@ sp needed
 822 005a 10BD     		pop	{r4, pc}
 823              	.LVL54:
 824              	.L63:
 287:Drivers/STM32C0xx_HAL_Driver/Src/stm32c0xx_hal_flash_ex.c ****   }
 825              		.loc 1 287 5 is_stmt 1 view .LVU237
 826 005c C268     		ldr	r2, [r0, #12]
 827 005e 8168     		ldr	r1, [r0, #8]
 828 0060 4068     		ldr	r0, [r0, #4]
 829              	.LVL55:
 287:Drivers/STM32C0xx_HAL_Driver/Src/stm32c0xx_hal_flash_ex.c ****   }
 830              		.loc 1 287 5 is_stmt 0 view .LVU238
 831 0062 FFF7FEFF 		bl	FLASH_OB_WRPConfig
 832              	.LVL56:
 833 0066 D9E7     		b	.L50
 834              	.L64:
 294:Drivers/STM32C0xx_HAL_Driver/Src/stm32c0xx_hal_flash_ex.c ****   }
 835              		.loc 1 294 5 is_stmt 1 view .LVU239
 836 0068 2269     		ldr	r2, [r4, #16]
 837 006a A169     		ldr	r1, [r4, #24]
 838 006c 6069     		ldr	r0, [r4, #20]
 839 006e FFF7FEFF 		bl	FLASH_OB_OptrConfig
 840              	.LVL57:
 841 0072 DCE7     		b	.L52
 842              	.L65:
 299:Drivers/STM32C0xx_HAL_Driver/Src/stm32c0xx_hal_flash_ex.c ****     FLASH_OB_OptrConfig(optr, optr, pOBInit->RDPLevel);
 843              		.loc 1 299 5 view .LVU240
 299:Drivers/STM32C0xx_HAL_Driver/Src/stm32c0xx_hal_flash_ex.c ****     FLASH_OB_OptrConfig(optr, optr, pOBInit->RDPLevel);
 844              		.loc 1 299 12 is_stmt 0 view .LVU241
 845 0074 FFF7FEFF 		bl	FLASH_OB_GetUser
 846              	.LVL58:
 300:Drivers/STM32C0xx_HAL_Driver/Src/stm32c0xx_hal_flash_ex.c ****   }
 847              		.loc 1 300 5 is_stmt 1 view .LVU242
 848 0078 2269     		ldr	r2, [r4, #16]
 849 007a 0100     		movs	r1, r0
 850 007c FFF7FEFF 		bl	FLASH_OB_OptrConfig
 851              	.LVL59:
 300:Drivers/STM32C0xx_HAL_Driver/Src/stm32c0xx_hal_flash_ex.c ****   }
 852              		.loc 1 300 5 is_stmt 0 view .LVU243
 853 0080 D5E7     		b	.L52
 854              	.LVL60:
 855              	.L66:
 305:Drivers/STM32C0xx_HAL_Driver/Src/stm32c0xx_hal_flash_ex.c ****     FLASH_OB_OptrConfig(pOBInit->USERType, pOBInit->USERConfig, optr);
 856              		.loc 1 305 5 is_stmt 1 view .LVU244
 305:Drivers/STM32C0xx_HAL_Driver/Src/stm32c0xx_hal_flash_ex.c ****     FLASH_OB_OptrConfig(pOBInit->USERType, pOBInit->USERConfig, optr);
 857              		.loc 1 305 12 is_stmt 0 view .LVU245
 858 0082 FFF7FEFF 		bl	FLASH_OB_GetRDP
 859              	.LVL61:
 860 0086 0200     		movs	r2, r0
 861              	.LVL62:
 306:Drivers/STM32C0xx_HAL_Driver/Src/stm32c0xx_hal_flash_ex.c ****   }
 862              		.loc 1 306 5 is_stmt 1 view .LVU246
 863 0088 A169     		ldr	r1, [r4, #24]
ARM GAS  C:\Users\main\AppData\Local\Temp\ccuDNLmp.s 			page 32


 864 008a 6069     		ldr	r0, [r4, #20]
 865              	.LVL63:
 306:Drivers/STM32C0xx_HAL_Driver/Src/stm32c0xx_hal_flash_ex.c ****   }
 866              		.loc 1 306 5 is_stmt 0 view .LVU247
 867 008c FFF7FEFF 		bl	FLASH_OB_OptrConfig
 868              	.LVL64:
 306:Drivers/STM32C0xx_HAL_Driver/Src/stm32c0xx_hal_flash_ex.c ****   }
 869              		.loc 1 306 5 view .LVU248
 870 0090 CDE7     		b	.L52
 871              	.LVL65:
 872              	.L67:
 322:Drivers/STM32C0xx_HAL_Driver/Src/stm32c0xx_hal_flash_ex.c ****     }
 873              		.loc 1 322 7 is_stmt 1 view .LVU249
 874 0092 626A     		ldr	r2, [r4, #36]
 875 0094 216A     		ldr	r1, [r4, #32]
 876 0096 FFF7FEFF 		bl	FLASH_OB_PCROP1AConfig
 877              	.LVL66:
 878 009a CFE7     		b	.L55
 879              	.L68:
 328:Drivers/STM32C0xx_HAL_Driver/Src/stm32c0xx_hal_flash_ex.c ****     }
 880              		.loc 1 328 7 view .LVU250
 881 009c E16A     		ldr	r1, [r4, #44]
 882 009e A06A     		ldr	r0, [r4, #40]
 883 00a0 FFF7FEFF 		bl	FLASH_OB_PCROP1BConfig
 884              	.LVL67:
 885 00a4 CDE7     		b	.L54
 886              	.L69:
 336:Drivers/STM32C0xx_HAL_Driver/Src/stm32c0xx_hal_flash_ex.c ****   }
 887              		.loc 1 336 5 view .LVU251
 888 00a6 616B     		ldr	r1, [r4, #52]
 889 00a8 206B     		ldr	r0, [r4, #48]
 890 00aa FFF7FEFF 		bl	FLASH_OB_SecMemConfig
 891              	.LVL68:
 892 00ae CBE7     		b	.L56
 893              	.LVL69:
 894              	.L70:
 346:Drivers/STM32C0xx_HAL_Driver/Src/stm32c0xx_hal_flash_ex.c **** 
 895              		.loc 1 346 5 view .LVU252
 896 00b0 0A4C     		ldr	r4, .L71+8
 897              	.LVL70:
 346:Drivers/STM32C0xx_HAL_Driver/Src/stm32c0xx_hal_flash_ex.c **** 
 898              		.loc 1 346 5 is_stmt 0 view .LVU253
 899 00b2 6269     		ldr	r2, [r4, #20]
 900 00b4 8023     		movs	r3, #128
 901 00b6 9B02     		lsls	r3, r3, #10
 902 00b8 1343     		orrs	r3, r2
 903 00ba 6361     		str	r3, [r4, #20]
 349:Drivers/STM32C0xx_HAL_Driver/Src/stm32c0xx_hal_flash_ex.c **** 
 904              		.loc 1 349 5 is_stmt 1 view .LVU254
 349:Drivers/STM32C0xx_HAL_Driver/Src/stm32c0xx_hal_flash_ex.c **** 
 905              		.loc 1 349 14 is_stmt 0 view .LVU255
 906 00bc FA30     		adds	r0, r0, #250
 907              	.LVL71:
 349:Drivers/STM32C0xx_HAL_Driver/Src/stm32c0xx_hal_flash_ex.c **** 
 908              		.loc 1 349 14 view .LVU256
 909 00be 8000     		lsls	r0, r0, #2
 910              	.LVL72:
ARM GAS  C:\Users\main\AppData\Local\Temp\ccuDNLmp.s 			page 33


 349:Drivers/STM32C0xx_HAL_Driver/Src/stm32c0xx_hal_flash_ex.c **** 
 911              		.loc 1 349 14 view .LVU257
 912 00c0 FFF7FEFF 		bl	FLASH_WaitForLastOperation
 913              	.LVL73:
 352:Drivers/STM32C0xx_HAL_Driver/Src/stm32c0xx_hal_flash_ex.c ****   }
 914              		.loc 1 352 5 is_stmt 1 view .LVU258
 915 00c4 6369     		ldr	r3, [r4, #20]
 916 00c6 064A     		ldr	r2, .L71+12
 917 00c8 1340     		ands	r3, r2
 918 00ca 6361     		str	r3, [r4, #20]
 919 00cc C2E7     		b	.L57
 920              	.LVL74:
 921              	.L58:
 279:Drivers/STM32C0xx_HAL_Driver/Src/stm32c0xx_hal_flash_ex.c **** 
 922              		.loc 1 279 3 is_stmt 0 discriminator 1 view .LVU259
 923 00ce 0220     		movs	r0, #2
 924              	.LVL75:
 279:Drivers/STM32C0xx_HAL_Driver/Src/stm32c0xx_hal_flash_ex.c **** 
 925              		.loc 1 279 3 discriminator 1 view .LVU260
 926 00d0 C3E7     		b	.L49
 927              	.L72:
 928 00d2 C046     		.align	2
 929              	.L71:
 930 00d4 00000000 		.word	pFlash
 931 00d8 01000080 		.word	-2147483647
 932 00dc 00200240 		.word	1073881088
 933 00e0 FFFFFDFF 		.word	-131073
 934              		.cfi_endproc
 935              	.LFE216:
 937              		.section	.text.HAL_FLASHEx_OBGetConfig,"ax",%progbits
 938              		.align	1
 939              		.global	HAL_FLASHEx_OBGetConfig
 940              		.syntax unified
 941              		.code	16
 942              		.thumb_func
 944              	HAL_FLASHEx_OBGetConfig:
 945              	.LVL76:
 946              	.LFB217:
 374:Drivers/STM32C0xx_HAL_Driver/Src/stm32c0xx_hal_flash_ex.c ****   pOBInit->OptionType = OPTIONBYTE_ALL;
 947              		.loc 1 374 1 is_stmt 1 view -0
 948              		.cfi_startproc
 949              		@ args = 0, pretend = 0, frame = 0
 950              		@ frame_needed = 0, uses_anonymous_args = 0
 374:Drivers/STM32C0xx_HAL_Driver/Src/stm32c0xx_hal_flash_ex.c ****   pOBInit->OptionType = OPTIONBYTE_ALL;
 951              		.loc 1 374 1 is_stmt 0 view .LVU262
 952 0000 10B5     		push	{r4, lr}
 953              		.cfi_def_cfa_offset 8
 954              		.cfi_offset 4, -8
 955              		.cfi_offset 14, -4
 956 0002 0400     		movs	r4, r0
 375:Drivers/STM32C0xx_HAL_Driver/Src/stm32c0xx_hal_flash_ex.c **** 
 957              		.loc 1 375 3 is_stmt 1 view .LVU263
 375:Drivers/STM32C0xx_HAL_Driver/Src/stm32c0xx_hal_flash_ex.c **** 
 958              		.loc 1 375 23 is_stmt 0 view .LVU264
 959 0004 0723     		movs	r3, #7
 960 0006 0360     		str	r3, [r0]
 378:Drivers/STM32C0xx_HAL_Driver/Src/stm32c0xx_hal_flash_ex.c **** 
ARM GAS  C:\Users\main\AppData\Local\Temp\ccuDNLmp.s 			page 34


 961              		.loc 1 378 3 is_stmt 1 view .LVU265
 962 0008 0200     		movs	r2, r0
 963 000a 0C32     		adds	r2, r2, #12
 964 000c 0100     		movs	r1, r0
 965 000e 0831     		adds	r1, r1, #8
 966 0010 4068     		ldr	r0, [r0, #4]
 967              	.LVL77:
 378:Drivers/STM32C0xx_HAL_Driver/Src/stm32c0xx_hal_flash_ex.c **** 
 968              		.loc 1 378 3 is_stmt 0 view .LVU266
 969 0012 FFF7FEFF 		bl	FLASH_OB_GetWRP
 970              	.LVL78:
 381:Drivers/STM32C0xx_HAL_Driver/Src/stm32c0xx_hal_flash_ex.c **** 
 971              		.loc 1 381 3 is_stmt 1 view .LVU267
 381:Drivers/STM32C0xx_HAL_Driver/Src/stm32c0xx_hal_flash_ex.c **** 
 972              		.loc 1 381 23 is_stmt 0 view .LVU268
 973 0016 FFF7FEFF 		bl	FLASH_OB_GetRDP
 974              	.LVL79:
 381:Drivers/STM32C0xx_HAL_Driver/Src/stm32c0xx_hal_flash_ex.c **** 
 975              		.loc 1 381 21 discriminator 1 view .LVU269
 976 001a 2061     		str	r0, [r4, #16]
 384:Drivers/STM32C0xx_HAL_Driver/Src/stm32c0xx_hal_flash_ex.c ****   pOBInit->USERType = OB_USER_ALL;
 977              		.loc 1 384 3 is_stmt 1 view .LVU270
 384:Drivers/STM32C0xx_HAL_Driver/Src/stm32c0xx_hal_flash_ex.c ****   pOBInit->USERType = OB_USER_ALL;
 978              		.loc 1 384 25 is_stmt 0 view .LVU271
 979 001c FFF7FEFF 		bl	FLASH_OB_GetUser
 980              	.LVL80:
 384:Drivers/STM32C0xx_HAL_Driver/Src/stm32c0xx_hal_flash_ex.c ****   pOBInit->USERType = OB_USER_ALL;
 981              		.loc 1 384 23 discriminator 1 view .LVU272
 982 0020 A061     		str	r0, [r4, #24]
 385:Drivers/STM32C0xx_HAL_Driver/Src/stm32c0xx_hal_flash_ex.c **** 
 983              		.loc 1 385 3 is_stmt 1 view .LVU273
 385:Drivers/STM32C0xx_HAL_Driver/Src/stm32c0xx_hal_flash_ex.c **** 
 984              		.loc 1 385 21 is_stmt 0 view .LVU274
 985 0022 0D4B     		ldr	r3, .L74
 986 0024 6361     		str	r3, [r4, #20]
 388:Drivers/STM32C0xx_HAL_Driver/Src/stm32c0xx_hal_flash_ex.c ****   FLASH_OB_GetPCROP1B(&(pOBInit->PCROP1BStartAddr), &(pOBInit->PCROP1BEndAddr));
 987              		.loc 1 388 3 is_stmt 1 view .LVU275
 988 0026 2200     		movs	r2, r4
 989 0028 2432     		adds	r2, r2, #36
 990 002a 2100     		movs	r1, r4
 991 002c 2031     		adds	r1, r1, #32
 992 002e 2000     		movs	r0, r4
 993 0030 1C30     		adds	r0, r0, #28
 994 0032 FFF7FEFF 		bl	FLASH_OB_GetPCROP1A
 995              	.LVL81:
 389:Drivers/STM32C0xx_HAL_Driver/Src/stm32c0xx_hal_flash_ex.c ****   pOBInit->PCROPConfig |= (OB_PCROP_ZONE_A | OB_PCROP_ZONE_B);
 996              		.loc 1 389 3 view .LVU276
 997 0036 2100     		movs	r1, r4
 998 0038 2C31     		adds	r1, r1, #44
 999 003a 2000     		movs	r0, r4
 1000 003c 2830     		adds	r0, r0, #40
 1001 003e FFF7FEFF 		bl	FLASH_OB_GetPCROP1B
 1002              	.LVL82:
 390:Drivers/STM32C0xx_HAL_Driver/Src/stm32c0xx_hal_flash_ex.c **** 
 1003              		.loc 1 390 3 view .LVU277
 390:Drivers/STM32C0xx_HAL_Driver/Src/stm32c0xx_hal_flash_ex.c **** 
 1004              		.loc 1 390 10 is_stmt 0 view .LVU278
ARM GAS  C:\Users\main\AppData\Local\Temp\ccuDNLmp.s 			page 35


 1005 0042 E369     		ldr	r3, [r4, #28]
 390:Drivers/STM32C0xx_HAL_Driver/Src/stm32c0xx_hal_flash_ex.c **** 
 1006              		.loc 1 390 24 view .LVU279
 1007 0044 0322     		movs	r2, #3
 1008 0046 1343     		orrs	r3, r2
 1009 0048 E361     		str	r3, [r4, #28]
 393:Drivers/STM32C0xx_HAL_Driver/Src/stm32c0xx_hal_flash_ex.c **** }
 1010              		.loc 1 393 3 is_stmt 1 view .LVU280
 1011 004a 2100     		movs	r1, r4
 1012 004c 3431     		adds	r1, r1, #52
 1013 004e 2000     		movs	r0, r4
 1014 0050 3030     		adds	r0, r0, #48
 1015 0052 FFF7FEFF 		bl	FLASH_OB_GetSecMem
 1016              	.LVL83:
 394:Drivers/STM32C0xx_HAL_Driver/Src/stm32c0xx_hal_flash_ex.c **** 
 1017              		.loc 1 394 1 is_stmt 0 view .LVU281
 1018              		@ sp needed
 1019              	.LVL84:
 394:Drivers/STM32C0xx_HAL_Driver/Src/stm32c0xx_hal_flash_ex.c **** 
 1020              		.loc 1 394 1 view .LVU282
 1021 0056 10BD     		pop	{r4, pc}
 1022              	.L75:
 1023              		.align	2
 1024              	.L74:
 1025 0058 00FFEF3F 		.word	1072692992
 1026              		.cfi_endproc
 1027              	.LFE217:
 1029              		.section	.text.HAL_FLASHEx_EnableDebugger,"ax",%progbits
 1030              		.align	1
 1031              		.global	HAL_FLASHEx_EnableDebugger
 1032              		.syntax unified
 1033              		.code	16
 1034              		.thumb_func
 1036              	HAL_FLASHEx_EnableDebugger:
 1037              	.LFB218:
 402:Drivers/STM32C0xx_HAL_Driver/Src/stm32c0xx_hal_flash_ex.c ****   FLASH->ACR |= FLASH_ACR_DBG_SWEN;
 1038              		.loc 1 402 1 is_stmt 1 view -0
 1039              		.cfi_startproc
 1040              		@ args = 0, pretend = 0, frame = 0
 1041              		@ frame_needed = 0, uses_anonymous_args = 0
 1042              		@ link register save eliminated.
 403:Drivers/STM32C0xx_HAL_Driver/Src/stm32c0xx_hal_flash_ex.c **** }
 1043              		.loc 1 403 3 view .LVU284
 403:Drivers/STM32C0xx_HAL_Driver/Src/stm32c0xx_hal_flash_ex.c **** }
 1044              		.loc 1 403 8 is_stmt 0 view .LVU285
 1045 0000 034A     		ldr	r2, .L77
 1046 0002 1168     		ldr	r1, [r2]
 403:Drivers/STM32C0xx_HAL_Driver/Src/stm32c0xx_hal_flash_ex.c **** }
 1047              		.loc 1 403 14 view .LVU286
 1048 0004 8023     		movs	r3, #128
 1049 0006 DB02     		lsls	r3, r3, #11
 1050 0008 0B43     		orrs	r3, r1
 1051 000a 1360     		str	r3, [r2]
 404:Drivers/STM32C0xx_HAL_Driver/Src/stm32c0xx_hal_flash_ex.c **** 
 1052              		.loc 1 404 1 view .LVU287
 1053              		@ sp needed
 1054 000c 7047     		bx	lr
ARM GAS  C:\Users\main\AppData\Local\Temp\ccuDNLmp.s 			page 36


 1055              	.L78:
 1056 000e C046     		.align	2
 1057              	.L77:
 1058 0010 00200240 		.word	1073881088
 1059              		.cfi_endproc
 1060              	.LFE218:
 1062              		.section	.text.HAL_FLASHEx_DisableDebugger,"ax",%progbits
 1063              		.align	1
 1064              		.global	HAL_FLASHEx_DisableDebugger
 1065              		.syntax unified
 1066              		.code	16
 1067              		.thumb_func
 1069              	HAL_FLASHEx_DisableDebugger:
 1070              	.LFB219:
 413:Drivers/STM32C0xx_HAL_Driver/Src/stm32c0xx_hal_flash_ex.c ****   FLASH->ACR &= ~FLASH_ACR_DBG_SWEN;
 1071              		.loc 1 413 1 is_stmt 1 view -0
 1072              		.cfi_startproc
 1073              		@ args = 0, pretend = 0, frame = 0
 1074              		@ frame_needed = 0, uses_anonymous_args = 0
 1075              		@ link register save eliminated.
 414:Drivers/STM32C0xx_HAL_Driver/Src/stm32c0xx_hal_flash_ex.c **** }
 1076              		.loc 1 414 3 view .LVU289
 414:Drivers/STM32C0xx_HAL_Driver/Src/stm32c0xx_hal_flash_ex.c **** }
 1077              		.loc 1 414 8 is_stmt 0 view .LVU290
 1078 0000 024A     		ldr	r2, .L80
 1079 0002 1368     		ldr	r3, [r2]
 414:Drivers/STM32C0xx_HAL_Driver/Src/stm32c0xx_hal_flash_ex.c **** }
 1080              		.loc 1 414 14 view .LVU291
 1081 0004 0249     		ldr	r1, .L80+4
 1082 0006 0B40     		ands	r3, r1
 1083 0008 1360     		str	r3, [r2]
 415:Drivers/STM32C0xx_HAL_Driver/Src/stm32c0xx_hal_flash_ex.c **** 
 1084              		.loc 1 415 1 view .LVU292
 1085              		@ sp needed
 1086 000a 7047     		bx	lr
 1087              	.L81:
 1088              		.align	2
 1089              	.L80:
 1090 000c 00200240 		.word	1073881088
 1091 0010 FFFFFBFF 		.word	-262145
 1092              		.cfi_endproc
 1093              	.LFE219:
 1095              		.section	.text.HAL_FLASHEx_FlashEmptyCheck,"ax",%progbits
 1096              		.align	1
 1097              		.global	HAL_FLASHEx_FlashEmptyCheck
 1098              		.syntax unified
 1099              		.code	16
 1100              		.thumb_func
 1102              	HAL_FLASHEx_FlashEmptyCheck:
 1103              	.LFB220:
 424:Drivers/STM32C0xx_HAL_Driver/Src/stm32c0xx_hal_flash_ex.c ****   return ((FLASH->ACR & FLASH_ACR_PROGEMPTY));
 1104              		.loc 1 424 1 is_stmt 1 view -0
 1105              		.cfi_startproc
 1106              		@ args = 0, pretend = 0, frame = 0
 1107              		@ frame_needed = 0, uses_anonymous_args = 0
 1108              		@ link register save eliminated.
 425:Drivers/STM32C0xx_HAL_Driver/Src/stm32c0xx_hal_flash_ex.c **** }
ARM GAS  C:\Users\main\AppData\Local\Temp\ccuDNLmp.s 			page 37


 1109              		.loc 1 425 3 view .LVU294
 425:Drivers/STM32C0xx_HAL_Driver/Src/stm32c0xx_hal_flash_ex.c **** }
 1110              		.loc 1 425 17 is_stmt 0 view .LVU295
 1111 0000 024B     		ldr	r3, .L83
 1112 0002 1868     		ldr	r0, [r3]
 425:Drivers/STM32C0xx_HAL_Driver/Src/stm32c0xx_hal_flash_ex.c **** }
 1113              		.loc 1 425 23 view .LVU296
 1114 0004 8023     		movs	r3, #128
 1115 0006 5B02     		lsls	r3, r3, #9
 1116 0008 1840     		ands	r0, r3
 426:Drivers/STM32C0xx_HAL_Driver/Src/stm32c0xx_hal_flash_ex.c **** 
 1117              		.loc 1 426 1 view .LVU297
 1118              		@ sp needed
 1119 000a 7047     		bx	lr
 1120              	.L84:
 1121              		.align	2
 1122              	.L83:
 1123 000c 00200240 		.word	1073881088
 1124              		.cfi_endproc
 1125              	.LFE220:
 1127              		.section	.text.HAL_FLASHEx_ForceFlashEmpty,"ax",%progbits
 1128              		.align	1
 1129              		.global	HAL_FLASHEx_ForceFlashEmpty
 1130              		.syntax unified
 1131              		.code	16
 1132              		.thumb_func
 1134              	HAL_FLASHEx_ForceFlashEmpty:
 1135              	.LVL85:
 1136              	.LFB221:
 438:Drivers/STM32C0xx_HAL_Driver/Src/stm32c0xx_hal_flash_ex.c ****   uint32_t acr;
 1137              		.loc 1 438 1 is_stmt 1 view -0
 1138              		.cfi_startproc
 1139              		@ args = 0, pretend = 0, frame = 0
 1140              		@ frame_needed = 0, uses_anonymous_args = 0
 1141              		@ link register save eliminated.
 439:Drivers/STM32C0xx_HAL_Driver/Src/stm32c0xx_hal_flash_ex.c ****   assert_param(IS_FLASH_EMPTY_CHECK(FlashEmpty));
 1142              		.loc 1 439 3 view .LVU299
 440:Drivers/STM32C0xx_HAL_Driver/Src/stm32c0xx_hal_flash_ex.c **** 
 1143              		.loc 1 440 3 view .LVU300
 442:Drivers/STM32C0xx_HAL_Driver/Src/stm32c0xx_hal_flash_ex.c ****   FLASH->ACR = (acr | FlashEmpty);
 1144              		.loc 1 442 3 view .LVU301
 442:Drivers/STM32C0xx_HAL_Driver/Src/stm32c0xx_hal_flash_ex.c ****   FLASH->ACR = (acr | FlashEmpty);
 1145              		.loc 1 442 15 is_stmt 0 view .LVU302
 1146 0000 034A     		ldr	r2, .L86
 1147 0002 1368     		ldr	r3, [r2]
 442:Drivers/STM32C0xx_HAL_Driver/Src/stm32c0xx_hal_flash_ex.c ****   FLASH->ACR = (acr | FlashEmpty);
 1148              		.loc 1 442 7 view .LVU303
 1149 0004 0349     		ldr	r1, .L86+4
 1150 0006 0B40     		ands	r3, r1
 1151              	.LVL86:
 443:Drivers/STM32C0xx_HAL_Driver/Src/stm32c0xx_hal_flash_ex.c **** }
 1152              		.loc 1 443 3 is_stmt 1 view .LVU304
 443:Drivers/STM32C0xx_HAL_Driver/Src/stm32c0xx_hal_flash_ex.c **** }
 1153              		.loc 1 443 21 is_stmt 0 view .LVU305
 1154 0008 0343     		orrs	r3, r0
 1155              	.LVL87:
 443:Drivers/STM32C0xx_HAL_Driver/Src/stm32c0xx_hal_flash_ex.c **** }
ARM GAS  C:\Users\main\AppData\Local\Temp\ccuDNLmp.s 			page 38


 1156              		.loc 1 443 14 view .LVU306
 1157 000a 1360     		str	r3, [r2]
 444:Drivers/STM32C0xx_HAL_Driver/Src/stm32c0xx_hal_flash_ex.c **** 
 1158              		.loc 1 444 1 view .LVU307
 1159              		@ sp needed
 1160 000c 7047     		bx	lr
 1161              	.L87:
 1162 000e C046     		.align	2
 1163              	.L86:
 1164 0010 00200240 		.word	1073881088
 1165 0014 FFFFFEFF 		.word	-65537
 1166              		.cfi_endproc
 1167              	.LFE221:
 1169              		.section	.text.HAL_FLASHEx_EnableSecMemProtection,"ax",%progbits
 1170              		.align	1
 1171              		.global	HAL_FLASHEx_EnableSecMemProtection
 1172              		.syntax unified
 1173              		.code	16
 1174              		.thumb_func
 1176              	HAL_FLASHEx_EnableSecMemProtection:
 1177              	.LVL88:
 1178              	.LFB222:
 457:Drivers/STM32C0xx_HAL_Driver/Src/stm32c0xx_hal_flash_ex.c ****   assert_param(IS_FLASH_BANK(Bank));
 1179              		.loc 1 457 1 is_stmt 1 view -0
 1180              		.cfi_startproc
 1181              		@ args = 0, pretend = 0, frame = 0
 1182              		@ frame_needed = 0, uses_anonymous_args = 0
 1183              		@ link register save eliminated.
 458:Drivers/STM32C0xx_HAL_Driver/Src/stm32c0xx_hal_flash_ex.c ****   FLASH->CR |= FLASH_CR_SEC_PROT;
 1184              		.loc 1 458 3 view .LVU309
 459:Drivers/STM32C0xx_HAL_Driver/Src/stm32c0xx_hal_flash_ex.c **** }
 1185              		.loc 1 459 3 view .LVU310
 459:Drivers/STM32C0xx_HAL_Driver/Src/stm32c0xx_hal_flash_ex.c **** }
 1186              		.loc 1 459 8 is_stmt 0 view .LVU311
 1187 0000 034A     		ldr	r2, .L89
 1188 0002 5169     		ldr	r1, [r2, #20]
 459:Drivers/STM32C0xx_HAL_Driver/Src/stm32c0xx_hal_flash_ex.c **** }
 1189              		.loc 1 459 13 view .LVU312
 1190 0004 8023     		movs	r3, #128
 1191 0006 5B05     		lsls	r3, r3, #21
 1192 0008 0B43     		orrs	r3, r1
 1193 000a 5361     		str	r3, [r2, #20]
 460:Drivers/STM32C0xx_HAL_Driver/Src/stm32c0xx_hal_flash_ex.c **** 
 1194              		.loc 1 460 1 view .LVU313
 1195              		@ sp needed
 1196 000c 7047     		bx	lr
 1197              	.L90:
 1198 000e C046     		.align	2
 1199              	.L89:
 1200 0010 00200240 		.word	1073881088
 1201              		.cfi_endproc
 1202              	.LFE222:
 1204              		.section	.text.FLASH_PageErase,"ax",%progbits
 1205              		.align	1
 1206              		.global	FLASH_PageErase
 1207              		.syntax unified
 1208              		.code	16
ARM GAS  C:\Users\main\AppData\Local\Temp\ccuDNLmp.s 			page 39


 1209              		.thumb_func
 1211              	FLASH_PageErase:
 1212              	.LVL89:
 1213              	.LFB224:
 492:Drivers/STM32C0xx_HAL_Driver/Src/stm32c0xx_hal_flash_ex.c ****   uint32_t tmp;
 1214              		.loc 1 492 1 is_stmt 1 view -0
 1215              		.cfi_startproc
 1216              		@ args = 0, pretend = 0, frame = 0
 1217              		@ frame_needed = 0, uses_anonymous_args = 0
 1218              		@ link register save eliminated.
 493:Drivers/STM32C0xx_HAL_Driver/Src/stm32c0xx_hal_flash_ex.c **** 
 1219              		.loc 1 493 3 view .LVU315
 496:Drivers/STM32C0xx_HAL_Driver/Src/stm32c0xx_hal_flash_ex.c **** 
 1220              		.loc 1 496 3 view .LVU316
 499:Drivers/STM32C0xx_HAL_Driver/Src/stm32c0xx_hal_flash_ex.c **** 
 1221              		.loc 1 499 3 view .LVU317
 499:Drivers/STM32C0xx_HAL_Driver/Src/stm32c0xx_hal_flash_ex.c **** 
 1222              		.loc 1 499 15 is_stmt 0 view .LVU318
 1223 0000 044A     		ldr	r2, .L92
 1224 0002 5369     		ldr	r3, [r2, #20]
 499:Drivers/STM32C0xx_HAL_Driver/Src/stm32c0xx_hal_flash_ex.c **** 
 1225              		.loc 1 499 7 view .LVU319
 1226 0004 7821     		movs	r1, #120
 1227 0006 8B43     		bics	r3, r1
 1228              	.LVL90:
 502:Drivers/STM32C0xx_HAL_Driver/Src/stm32c0xx_hal_flash_ex.c **** }
 1229              		.loc 1 502 3 is_stmt 1 view .LVU320
 502:Drivers/STM32C0xx_HAL_Driver/Src/stm32c0xx_hal_flash_ex.c **** }
 1230              		.loc 1 502 45 is_stmt 0 view .LVU321
 1231 0008 C000     		lsls	r0, r0, #3
 1232              	.LVL91:
 502:Drivers/STM32C0xx_HAL_Driver/Src/stm32c0xx_hal_flash_ex.c **** }
 1233              		.loc 1 502 20 view .LVU322
 1234 000a 1843     		orrs	r0, r3
 1235 000c 024B     		ldr	r3, .L92+4
 1236              	.LVL92:
 502:Drivers/STM32C0xx_HAL_Driver/Src/stm32c0xx_hal_flash_ex.c **** }
 1237              		.loc 1 502 20 view .LVU323
 1238 000e 0343     		orrs	r3, r0
 502:Drivers/STM32C0xx_HAL_Driver/Src/stm32c0xx_hal_flash_ex.c **** }
 1239              		.loc 1 502 13 view .LVU324
 1240 0010 5361     		str	r3, [r2, #20]
 503:Drivers/STM32C0xx_HAL_Driver/Src/stm32c0xx_hal_flash_ex.c **** 
 1241              		.loc 1 503 1 view .LVU325
 1242              		@ sp needed
 1243 0012 7047     		bx	lr
 1244              	.L93:
 1245              		.align	2
 1246              	.L92:
 1247 0014 00200240 		.word	1073881088
 1248 0018 02000100 		.word	65538
 1249              		.cfi_endproc
 1250              	.LFE224:
 1252              		.section	.text.HAL_FLASHEx_Erase,"ax",%progbits
 1253              		.align	1
 1254              		.global	HAL_FLASHEx_Erase
 1255              		.syntax unified
ARM GAS  C:\Users\main\AppData\Local\Temp\ccuDNLmp.s 			page 40


 1256              		.code	16
 1257              		.thumb_func
 1259              	HAL_FLASHEx_Erase:
 1260              	.LVL93:
 1261              	.LFB214:
 140:Drivers/STM32C0xx_HAL_Driver/Src/stm32c0xx_hal_flash_ex.c ****   HAL_StatusTypeDef status;
 1262              		.loc 1 140 1 is_stmt 1 view -0
 1263              		.cfi_startproc
 1264              		@ args = 0, pretend = 0, frame = 0
 1265              		@ frame_needed = 0, uses_anonymous_args = 0
 140:Drivers/STM32C0xx_HAL_Driver/Src/stm32c0xx_hal_flash_ex.c ****   HAL_StatusTypeDef status;
 1266              		.loc 1 140 1 is_stmt 0 view .LVU327
 1267 0000 70B5     		push	{r4, r5, r6, lr}
 1268              		.cfi_def_cfa_offset 16
 1269              		.cfi_offset 4, -16
 1270              		.cfi_offset 5, -12
 1271              		.cfi_offset 6, -8
 1272              		.cfi_offset 14, -4
 1273 0002 0500     		movs	r5, r0
 1274 0004 0E00     		movs	r6, r1
 141:Drivers/STM32C0xx_HAL_Driver/Src/stm32c0xx_hal_flash_ex.c ****   uint32_t index;
 1275              		.loc 1 141 3 is_stmt 1 view .LVU328
 142:Drivers/STM32C0xx_HAL_Driver/Src/stm32c0xx_hal_flash_ex.c **** 
 1276              		.loc 1 142 3 view .LVU329
 145:Drivers/STM32C0xx_HAL_Driver/Src/stm32c0xx_hal_flash_ex.c **** 
 1277              		.loc 1 145 3 view .LVU330
 148:Drivers/STM32C0xx_HAL_Driver/Src/stm32c0xx_hal_flash_ex.c **** 
 1278              		.loc 1 148 3 view .LVU331
 148:Drivers/STM32C0xx_HAL_Driver/Src/stm32c0xx_hal_flash_ex.c **** 
 1279              		.loc 1 148 3 view .LVU332
 1280 0006 1C4B     		ldr	r3, .L105
 1281 0008 1B78     		ldrb	r3, [r3]
 1282 000a 012B     		cmp	r3, #1
 1283 000c 32D0     		beq	.L102
 148:Drivers/STM32C0xx_HAL_Driver/Src/stm32c0xx_hal_flash_ex.c **** 
 1284              		.loc 1 148 3 discriminator 2 view .LVU333
 1285 000e 1A4B     		ldr	r3, .L105
 1286 0010 0122     		movs	r2, #1
 1287 0012 1A70     		strb	r2, [r3]
 148:Drivers/STM32C0xx_HAL_Driver/Src/stm32c0xx_hal_flash_ex.c **** 
 1288              		.loc 1 148 3 view .LVU334
 151:Drivers/STM32C0xx_HAL_Driver/Src/stm32c0xx_hal_flash_ex.c **** 
 1289              		.loc 1 151 3 view .LVU335
 151:Drivers/STM32C0xx_HAL_Driver/Src/stm32c0xx_hal_flash_ex.c **** 
 1290              		.loc 1 151 20 is_stmt 0 view .LVU336
 1291 0014 0022     		movs	r2, #0
 1292 0016 5A60     		str	r2, [r3, #4]
 154:Drivers/STM32C0xx_HAL_Driver/Src/stm32c0xx_hal_flash_ex.c **** 
 1293              		.loc 1 154 3 is_stmt 1 view .LVU337
 154:Drivers/STM32C0xx_HAL_Driver/Src/stm32c0xx_hal_flash_ex.c **** 
 1294              		.loc 1 154 12 is_stmt 0 view .LVU338
 1295 0018 FA20     		movs	r0, #250
 1296              	.LVL94:
 154:Drivers/STM32C0xx_HAL_Driver/Src/stm32c0xx_hal_flash_ex.c **** 
 1297              		.loc 1 154 12 view .LVU339
 1298 001a 8000     		lsls	r0, r0, #2
 1299 001c FFF7FEFF 		bl	FLASH_WaitForLastOperation
ARM GAS  C:\Users\main\AppData\Local\Temp\ccuDNLmp.s 			page 41


 1300              	.LVL95:
 156:Drivers/STM32C0xx_HAL_Driver/Src/stm32c0xx_hal_flash_ex.c ****   {
 1301              		.loc 1 156 3 is_stmt 1 view .LVU340
 156:Drivers/STM32C0xx_HAL_Driver/Src/stm32c0xx_hal_flash_ex.c ****   {
 1302              		.loc 1 156 6 is_stmt 0 view .LVU341
 1303 0020 0028     		cmp	r0, #0
 1304 0022 23D1     		bne	.L96
 158:Drivers/STM32C0xx_HAL_Driver/Src/stm32c0xx_hal_flash_ex.c ****     {
 1305              		.loc 1 158 5 is_stmt 1 view .LVU342
 158:Drivers/STM32C0xx_HAL_Driver/Src/stm32c0xx_hal_flash_ex.c ****     {
 1306              		.loc 1 158 19 is_stmt 0 view .LVU343
 1307 0024 2B68     		ldr	r3, [r5]
 158:Drivers/STM32C0xx_HAL_Driver/Src/stm32c0xx_hal_flash_ex.c ****     {
 1308              		.loc 1 158 8 view .LVU344
 1309 0026 042B     		cmp	r3, #4
 1310 0028 13D0     		beq	.L103
 169:Drivers/STM32C0xx_HAL_Driver/Src/stm32c0xx_hal_flash_ex.c **** 
 1311              		.loc 1 169 7 is_stmt 1 view .LVU345
 169:Drivers/STM32C0xx_HAL_Driver/Src/stm32c0xx_hal_flash_ex.c **** 
 1312              		.loc 1 169 18 is_stmt 0 view .LVU346
 1313 002a 0123     		movs	r3, #1
 1314 002c 5B42     		rsbs	r3, r3, #0
 1315 002e 3360     		str	r3, [r6]
 171:Drivers/STM32C0xx_HAL_Driver/Src/stm32c0xx_hal_flash_ex.c ****       {
 1316              		.loc 1 171 7 is_stmt 1 view .LVU347
 171:Drivers/STM32C0xx_HAL_Driver/Src/stm32c0xx_hal_flash_ex.c ****       {
 1317              		.loc 1 171 18 is_stmt 0 view .LVU348
 1318 0030 6C68     		ldr	r4, [r5, #4]
 1319              	.LVL96:
 1320              	.L98:
 171:Drivers/STM32C0xx_HAL_Driver/Src/stm32c0xx_hal_flash_ex.c ****       {
 1321              		.loc 1 171 44 is_stmt 1 discriminator 1 view .LVU349
 171:Drivers/STM32C0xx_HAL_Driver/Src/stm32c0xx_hal_flash_ex.c ****       {
 1322              		.loc 1 171 57 is_stmt 0 discriminator 1 view .LVU350
 1323 0032 6B68     		ldr	r3, [r5, #4]
 171:Drivers/STM32C0xx_HAL_Driver/Src/stm32c0xx_hal_flash_ex.c ****       {
 1324              		.loc 1 171 76 discriminator 1 view .LVU351
 1325 0034 AA68     		ldr	r2, [r5, #8]
 171:Drivers/STM32C0xx_HAL_Driver/Src/stm32c0xx_hal_flash_ex.c ****       {
 1326              		.loc 1 171 64 discriminator 1 view .LVU352
 1327 0036 9B18     		adds	r3, r3, r2
 171:Drivers/STM32C0xx_HAL_Driver/Src/stm32c0xx_hal_flash_ex.c ****       {
 1328              		.loc 1 171 44 discriminator 1 view .LVU353
 1329 0038 A342     		cmp	r3, r4
 1330 003a 12D9     		bls	.L100
 174:Drivers/STM32C0xx_HAL_Driver/Src/stm32c0xx_hal_flash_ex.c **** 
 1331              		.loc 1 174 9 is_stmt 1 view .LVU354
 1332 003c 2000     		movs	r0, r4
 1333              	.LVL97:
 174:Drivers/STM32C0xx_HAL_Driver/Src/stm32c0xx_hal_flash_ex.c **** 
 1334              		.loc 1 174 9 is_stmt 0 view .LVU355
 1335 003e FFF7FEFF 		bl	FLASH_PageErase
 1336              	.LVL98:
 177:Drivers/STM32C0xx_HAL_Driver/Src/stm32c0xx_hal_flash_ex.c **** 
 1337              		.loc 1 177 9 is_stmt 1 view .LVU356
 177:Drivers/STM32C0xx_HAL_Driver/Src/stm32c0xx_hal_flash_ex.c **** 
 1338              		.loc 1 177 18 is_stmt 0 view .LVU357
ARM GAS  C:\Users\main\AppData\Local\Temp\ccuDNLmp.s 			page 42


 1339 0042 FA20     		movs	r0, #250
 1340 0044 8000     		lsls	r0, r0, #2
 1341 0046 FFF7FEFF 		bl	FLASH_WaitForLastOperation
 1342              	.LVL99:
 179:Drivers/STM32C0xx_HAL_Driver/Src/stm32c0xx_hal_flash_ex.c ****         {
 1343              		.loc 1 179 9 is_stmt 1 view .LVU358
 179:Drivers/STM32C0xx_HAL_Driver/Src/stm32c0xx_hal_flash_ex.c ****         {
 1344              		.loc 1 179 12 is_stmt 0 view .LVU359
 1345 004a 0028     		cmp	r0, #0
 1346 004c 08D1     		bne	.L104
 171:Drivers/STM32C0xx_HAL_Driver/Src/stm32c0xx_hal_flash_ex.c ****       {
 1347              		.loc 1 171 93 is_stmt 1 discriminator 2 view .LVU360
 1348 004e 0134     		adds	r4, r4, #1
 1349              	.LVL100:
 171:Drivers/STM32C0xx_HAL_Driver/Src/stm32c0xx_hal_flash_ex.c ****       {
 1350              		.loc 1 171 93 is_stmt 0 discriminator 2 view .LVU361
 1351 0050 EFE7     		b	.L98
 1352              	.LVL101:
 1353              	.L103:
 161:Drivers/STM32C0xx_HAL_Driver/Src/stm32c0xx_hal_flash_ex.c **** 
 1354              		.loc 1 161 7 is_stmt 1 view .LVU362
 1355 0052 FFF7FEFF 		bl	FLASH_MassErase
 1356              	.LVL102:
 164:Drivers/STM32C0xx_HAL_Driver/Src/stm32c0xx_hal_flash_ex.c ****     }
 1357              		.loc 1 164 7 view .LVU363
 164:Drivers/STM32C0xx_HAL_Driver/Src/stm32c0xx_hal_flash_ex.c ****     }
 1358              		.loc 1 164 16 is_stmt 0 view .LVU364
 1359 0056 FA20     		movs	r0, #250
 1360 0058 8000     		lsls	r0, r0, #2
 1361 005a FFF7FEFF 		bl	FLASH_WaitForLastOperation
 1362              	.LVL103:
 164:Drivers/STM32C0xx_HAL_Driver/Src/stm32c0xx_hal_flash_ex.c ****     }
 1363              		.loc 1 164 16 view .LVU365
 1364 005e 05E0     		b	.L96
 1365              	.LVL104:
 1366              	.L104:
 182:Drivers/STM32C0xx_HAL_Driver/Src/stm32c0xx_hal_flash_ex.c ****           break;
 1367              		.loc 1 182 11 is_stmt 1 view .LVU366
 182:Drivers/STM32C0xx_HAL_Driver/Src/stm32c0xx_hal_flash_ex.c ****           break;
 1368              		.loc 1 182 22 is_stmt 0 view .LVU367
 1369 0060 3460     		str	r4, [r6]
 183:Drivers/STM32C0xx_HAL_Driver/Src/stm32c0xx_hal_flash_ex.c ****         }
 1370              		.loc 1 183 11 is_stmt 1 view .LVU368
 1371              	.LVL105:
 1372              	.L100:
 188:Drivers/STM32C0xx_HAL_Driver/Src/stm32c0xx_hal_flash_ex.c ****     }
 1373              		.loc 1 188 7 view .LVU369
 1374 0062 064A     		ldr	r2, .L105+4
 1375 0064 5369     		ldr	r3, [r2, #20]
 1376 0066 0221     		movs	r1, #2
 1377 0068 8B43     		bics	r3, r1
 1378 006a 5361     		str	r3, [r2, #20]
 1379              	.LVL106:
 1380              	.L96:
 193:Drivers/STM32C0xx_HAL_Driver/Src/stm32c0xx_hal_flash_ex.c **** 
 1381              		.loc 1 193 3 view .LVU370
 193:Drivers/STM32C0xx_HAL_Driver/Src/stm32c0xx_hal_flash_ex.c **** 
ARM GAS  C:\Users\main\AppData\Local\Temp\ccuDNLmp.s 			page 43


 1382              		.loc 1 193 3 view .LVU371
 1383 006c 024B     		ldr	r3, .L105
 1384 006e 0022     		movs	r2, #0
 1385 0070 1A70     		strb	r2, [r3]
 193:Drivers/STM32C0xx_HAL_Driver/Src/stm32c0xx_hal_flash_ex.c **** 
 1386              		.loc 1 193 3 view .LVU372
 196:Drivers/STM32C0xx_HAL_Driver/Src/stm32c0xx_hal_flash_ex.c **** }
 1387              		.loc 1 196 3 view .LVU373
 1388              	.LVL107:
 1389              	.L95:
 197:Drivers/STM32C0xx_HAL_Driver/Src/stm32c0xx_hal_flash_ex.c **** 
 1390              		.loc 1 197 1 is_stmt 0 view .LVU374
 1391              		@ sp needed
 1392              	.LVL108:
 1393              	.LVL109:
 197:Drivers/STM32C0xx_HAL_Driver/Src/stm32c0xx_hal_flash_ex.c **** 
 1394              		.loc 1 197 1 view .LVU375
 1395 0072 70BD     		pop	{r4, r5, r6, pc}
 1396              	.LVL110:
 1397              	.L102:
 148:Drivers/STM32C0xx_HAL_Driver/Src/stm32c0xx_hal_flash_ex.c **** 
 1398              		.loc 1 148 3 discriminator 1 view .LVU376
 1399 0074 0220     		movs	r0, #2
 1400              	.LVL111:
 148:Drivers/STM32C0xx_HAL_Driver/Src/stm32c0xx_hal_flash_ex.c **** 
 1401              		.loc 1 148 3 discriminator 1 view .LVU377
 1402 0076 FCE7     		b	.L95
 1403              	.L106:
 1404              		.align	2
 1405              	.L105:
 1406 0078 00000000 		.word	pFlash
 1407 007c 00200240 		.word	1073881088
 1408              		.cfi_endproc
 1409              	.LFE214:
 1411              		.section	.text.HAL_FLASHEx_Erase_IT,"ax",%progbits
 1412              		.align	1
 1413              		.global	HAL_FLASHEx_Erase_IT
 1414              		.syntax unified
 1415              		.code	16
 1416              		.thumb_func
 1418              	HAL_FLASHEx_Erase_IT:
 1419              	.LVL112:
 1420              	.LFB215:
 207:Drivers/STM32C0xx_HAL_Driver/Src/stm32c0xx_hal_flash_ex.c ****   HAL_StatusTypeDef status;
 1421              		.loc 1 207 1 is_stmt 1 view -0
 1422              		.cfi_startproc
 1423              		@ args = 0, pretend = 0, frame = 0
 1424              		@ frame_needed = 0, uses_anonymous_args = 0
 207:Drivers/STM32C0xx_HAL_Driver/Src/stm32c0xx_hal_flash_ex.c ****   HAL_StatusTypeDef status;
 1425              		.loc 1 207 1 is_stmt 0 view .LVU379
 1426 0000 70B5     		push	{r4, r5, r6, lr}
 1427              		.cfi_def_cfa_offset 16
 1428              		.cfi_offset 4, -16
 1429              		.cfi_offset 5, -12
 1430              		.cfi_offset 6, -8
 1431              		.cfi_offset 14, -4
 1432 0002 0400     		movs	r4, r0
ARM GAS  C:\Users\main\AppData\Local\Temp\ccuDNLmp.s 			page 44


 208:Drivers/STM32C0xx_HAL_Driver/Src/stm32c0xx_hal_flash_ex.c **** 
 1433              		.loc 1 208 3 is_stmt 1 view .LVU380
 211:Drivers/STM32C0xx_HAL_Driver/Src/stm32c0xx_hal_flash_ex.c **** 
 1434              		.loc 1 211 3 view .LVU381
 214:Drivers/STM32C0xx_HAL_Driver/Src/stm32c0xx_hal_flash_ex.c **** 
 1435              		.loc 1 214 3 view .LVU382
 214:Drivers/STM32C0xx_HAL_Driver/Src/stm32c0xx_hal_flash_ex.c **** 
 1436              		.loc 1 214 3 view .LVU383
 1437 0004 174B     		ldr	r3, .L113
 1438 0006 1B78     		ldrb	r3, [r3]
 1439 0008 012B     		cmp	r3, #1
 1440 000a 28D0     		beq	.L111
 214:Drivers/STM32C0xx_HAL_Driver/Src/stm32c0xx_hal_flash_ex.c **** 
 1441              		.loc 1 214 3 discriminator 2 view .LVU384
 1442 000c 154B     		ldr	r3, .L113
 1443 000e 0122     		movs	r2, #1
 1444 0010 1A70     		strb	r2, [r3]
 214:Drivers/STM32C0xx_HAL_Driver/Src/stm32c0xx_hal_flash_ex.c **** 
 1445              		.loc 1 214 3 view .LVU385
 217:Drivers/STM32C0xx_HAL_Driver/Src/stm32c0xx_hal_flash_ex.c **** 
 1446              		.loc 1 217 3 view .LVU386
 217:Drivers/STM32C0xx_HAL_Driver/Src/stm32c0xx_hal_flash_ex.c **** 
 1447              		.loc 1 217 20 is_stmt 0 view .LVU387
 1448 0012 0022     		movs	r2, #0
 1449 0014 5A60     		str	r2, [r3, #4]
 220:Drivers/STM32C0xx_HAL_Driver/Src/stm32c0xx_hal_flash_ex.c **** 
 1450              		.loc 1 220 3 is_stmt 1 view .LVU388
 220:Drivers/STM32C0xx_HAL_Driver/Src/stm32c0xx_hal_flash_ex.c **** 
 1451              		.loc 1 220 39 is_stmt 0 view .LVU389
 1452 0016 0268     		ldr	r2, [r0]
 220:Drivers/STM32C0xx_HAL_Driver/Src/stm32c0xx_hal_flash_ex.c **** 
 1453              		.loc 1 220 27 view .LVU390
 1454 0018 9A60     		str	r2, [r3, #8]
 223:Drivers/STM32C0xx_HAL_Driver/Src/stm32c0xx_hal_flash_ex.c **** 
 1455              		.loc 1 223 3 is_stmt 1 view .LVU391
 223:Drivers/STM32C0xx_HAL_Driver/Src/stm32c0xx_hal_flash_ex.c **** 
 1456              		.loc 1 223 12 is_stmt 0 view .LVU392
 1457 001a FA20     		movs	r0, #250
 1458              	.LVL113:
 223:Drivers/STM32C0xx_HAL_Driver/Src/stm32c0xx_hal_flash_ex.c **** 
 1459              		.loc 1 223 12 view .LVU393
 1460 001c 8000     		lsls	r0, r0, #2
 1461 001e FFF7FEFF 		bl	FLASH_WaitForLastOperation
 1462              	.LVL114:
 1463 0022 051E     		subs	r5, r0, #0
 1464              	.LVL115:
 225:Drivers/STM32C0xx_HAL_Driver/Src/stm32c0xx_hal_flash_ex.c ****   {
 1465              		.loc 1 225 3 is_stmt 1 view .LVU394
 225:Drivers/STM32C0xx_HAL_Driver/Src/stm32c0xx_hal_flash_ex.c ****   {
 1466              		.loc 1 225 6 is_stmt 0 view .LVU395
 1467 0024 04D0     		beq	.L109
 228:Drivers/STM32C0xx_HAL_Driver/Src/stm32c0xx_hal_flash_ex.c ****   }
 1468              		.loc 1 228 5 is_stmt 1 view .LVU396
 228:Drivers/STM32C0xx_HAL_Driver/Src/stm32c0xx_hal_flash_ex.c ****   }
 1469              		.loc 1 228 5 view .LVU397
 1470 0026 0F4B     		ldr	r3, .L113
 1471 0028 0022     		movs	r2, #0
ARM GAS  C:\Users\main\AppData\Local\Temp\ccuDNLmp.s 			page 45


 1472 002a 1A70     		strb	r2, [r3]
 228:Drivers/STM32C0xx_HAL_Driver/Src/stm32c0xx_hal_flash_ex.c ****   }
 1473              		.loc 1 228 5 view .LVU398
 1474              	.LVL116:
 1475              	.L108:
 256:Drivers/STM32C0xx_HAL_Driver/Src/stm32c0xx_hal_flash_ex.c **** 
 1476              		.loc 1 256 1 is_stmt 0 view .LVU399
 1477 002c 2800     		movs	r0, r5
 1478              		@ sp needed
 1479              	.LVL117:
 256:Drivers/STM32C0xx_HAL_Driver/Src/stm32c0xx_hal_flash_ex.c **** 
 1480              		.loc 1 256 1 view .LVU400
 1481 002e 70BD     		pop	{r4, r5, r6, pc}
 1482              	.LVL118:
 1483              	.L109:
 233:Drivers/STM32C0xx_HAL_Driver/Src/stm32c0xx_hal_flash_ex.c **** 
 1484              		.loc 1 233 5 is_stmt 1 view .LVU401
 1485 0030 0D4A     		ldr	r2, .L113+4
 1486 0032 5169     		ldr	r1, [r2, #20]
 1487 0034 C023     		movs	r3, #192
 1488 0036 9B04     		lsls	r3, r3, #18
 1489 0038 0B43     		orrs	r3, r1
 1490 003a 5361     		str	r3, [r2, #20]
 235:Drivers/STM32C0xx_HAL_Driver/Src/stm32c0xx_hal_flash_ex.c ****     {
 1491              		.loc 1 235 5 view .LVU402
 235:Drivers/STM32C0xx_HAL_Driver/Src/stm32c0xx_hal_flash_ex.c ****     {
 1492              		.loc 1 235 19 is_stmt 0 view .LVU403
 1493 003c 2368     		ldr	r3, [r4]
 235:Drivers/STM32C0xx_HAL_Driver/Src/stm32c0xx_hal_flash_ex.c ****     {
 1494              		.loc 1 235 8 view .LVU404
 1495 003e 042B     		cmp	r3, #4
 1496 0040 07D0     		beq	.L112
 246:Drivers/STM32C0xx_HAL_Driver/Src/stm32c0xx_hal_flash_ex.c ****       pFlash.Page = pEraseInit->Page;
 1497              		.loc 1 246 7 is_stmt 1 view .LVU405
 246:Drivers/STM32C0xx_HAL_Driver/Src/stm32c0xx_hal_flash_ex.c ****       pFlash.Page = pEraseInit->Page;
 1498              		.loc 1 246 41 is_stmt 0 view .LVU406
 1499 0042 A268     		ldr	r2, [r4, #8]
 246:Drivers/STM32C0xx_HAL_Driver/Src/stm32c0xx_hal_flash_ex.c ****       pFlash.Page = pEraseInit->Page;
 1500              		.loc 1 246 29 view .LVU407
 1501 0044 074B     		ldr	r3, .L113
 1502 0046 5A61     		str	r2, [r3, #20]
 247:Drivers/STM32C0xx_HAL_Driver/Src/stm32c0xx_hal_flash_ex.c **** 
 1503              		.loc 1 247 7 is_stmt 1 view .LVU408
 247:Drivers/STM32C0xx_HAL_Driver/Src/stm32c0xx_hal_flash_ex.c **** 
 1504              		.loc 1 247 31 is_stmt 0 view .LVU409
 1505 0048 6068     		ldr	r0, [r4, #4]
 1506              	.LVL119:
 247:Drivers/STM32C0xx_HAL_Driver/Src/stm32c0xx_hal_flash_ex.c **** 
 1507              		.loc 1 247 19 view .LVU410
 1508 004a 1861     		str	r0, [r3, #16]
 250:Drivers/STM32C0xx_HAL_Driver/Src/stm32c0xx_hal_flash_ex.c ****     }
 1509              		.loc 1 250 7 is_stmt 1 view .LVU411
 1510 004c FFF7FEFF 		bl	FLASH_PageErase
 1511              	.LVL120:
 1512 0050 ECE7     		b	.L108
 1513              	.LVL121:
 1514              	.L112:
ARM GAS  C:\Users\main\AppData\Local\Temp\ccuDNLmp.s 			page 46


 238:Drivers/STM32C0xx_HAL_Driver/Src/stm32c0xx_hal_flash_ex.c **** 
 1515              		.loc 1 238 7 view .LVU412
 238:Drivers/STM32C0xx_HAL_Driver/Src/stm32c0xx_hal_flash_ex.c **** 
 1516              		.loc 1 238 19 is_stmt 0 view .LVU413
 1517 0052 044B     		ldr	r3, .L113
 1518 0054 0022     		movs	r2, #0
 1519 0056 1A61     		str	r2, [r3, #16]
 241:Drivers/STM32C0xx_HAL_Driver/Src/stm32c0xx_hal_flash_ex.c ****     }
 1520              		.loc 1 241 7 is_stmt 1 view .LVU414
 1521 0058 FFF7FEFF 		bl	FLASH_MassErase
 1522              	.LVL122:
 241:Drivers/STM32C0xx_HAL_Driver/Src/stm32c0xx_hal_flash_ex.c ****     }
 1523              		.loc 1 241 7 is_stmt 0 view .LVU415
 1524 005c E6E7     		b	.L108
 1525              	.LVL123:
 1526              	.L111:
 214:Drivers/STM32C0xx_HAL_Driver/Src/stm32c0xx_hal_flash_ex.c **** 
 1527              		.loc 1 214 3 discriminator 1 view .LVU416
 1528 005e 0225     		movs	r5, #2
 1529 0060 E4E7     		b	.L108
 1530              	.L114:
 1531 0062 C046     		.align	2
 1532              	.L113:
 1533 0064 00000000 		.word	pFlash
 1534 0068 00200240 		.word	1073881088
 1535              		.cfi_endproc
 1536              	.LFE215:
 1538              		.section	.text.FLASH_FlushCaches,"ax",%progbits
 1539              		.align	1
 1540              		.global	FLASH_FlushCaches
 1541              		.syntax unified
 1542              		.code	16
 1543              		.thumb_func
 1545              	FLASH_FlushCaches:
 1546              	.LFB225:
 510:Drivers/STM32C0xx_HAL_Driver/Src/stm32c0xx_hal_flash_ex.c ****   /* Flush instruction cache  */
 1547              		.loc 1 510 1 is_stmt 1 view -0
 1548              		.cfi_startproc
 1549              		@ args = 0, pretend = 0, frame = 0
 1550              		@ frame_needed = 0, uses_anonymous_args = 0
 1551              		@ link register save eliminated.
 512:Drivers/STM32C0xx_HAL_Driver/Src/stm32c0xx_hal_flash_ex.c ****   {
 1552              		.loc 1 512 3 view .LVU418
 512:Drivers/STM32C0xx_HAL_Driver/Src/stm32c0xx_hal_flash_ex.c ****   {
 1553              		.loc 1 512 7 is_stmt 0 view .LVU419
 1554 0000 0B4B     		ldr	r3, .L118
 1555 0002 1B68     		ldr	r3, [r3]
 512:Drivers/STM32C0xx_HAL_Driver/Src/stm32c0xx_hal_flash_ex.c ****   {
 1556              		.loc 1 512 6 view .LVU420
 1557 0004 9B05     		lsls	r3, r3, #22
 1558 0006 12D5     		bpl	.L115
 515:Drivers/STM32C0xx_HAL_Driver/Src/stm32c0xx_hal_flash_ex.c ****     /* Reset instruction cache */
 1559              		.loc 1 515 5 is_stmt 1 view .LVU421
 1560 0008 094B     		ldr	r3, .L118
 1561 000a 1A68     		ldr	r2, [r3]
 1562 000c 0949     		ldr	r1, .L118+4
 1563 000e 0A40     		ands	r2, r1
ARM GAS  C:\Users\main\AppData\Local\Temp\ccuDNLmp.s 			page 47


 1564 0010 1A60     		str	r2, [r3]
 517:Drivers/STM32C0xx_HAL_Driver/Src/stm32c0xx_hal_flash_ex.c ****     /* Enable instruction cache */
 1565              		.loc 1 517 5 view .LVU422
 517:Drivers/STM32C0xx_HAL_Driver/Src/stm32c0xx_hal_flash_ex.c ****     /* Enable instruction cache */
 1566              		.loc 1 517 5 view .LVU423
 1567 0012 1968     		ldr	r1, [r3]
 1568 0014 8022     		movs	r2, #128
 1569 0016 1201     		lsls	r2, r2, #4
 1570 0018 0A43     		orrs	r2, r1
 1571 001a 1A60     		str	r2, [r3]
 517:Drivers/STM32C0xx_HAL_Driver/Src/stm32c0xx_hal_flash_ex.c ****     /* Enable instruction cache */
 1572              		.loc 1 517 5 view .LVU424
 1573 001c 1A68     		ldr	r2, [r3]
 1574 001e 0649     		ldr	r1, .L118+8
 1575 0020 0A40     		ands	r2, r1
 1576 0022 1A60     		str	r2, [r3]
 517:Drivers/STM32C0xx_HAL_Driver/Src/stm32c0xx_hal_flash_ex.c ****     /* Enable instruction cache */
 1577              		.loc 1 517 5 view .LVU425
 519:Drivers/STM32C0xx_HAL_Driver/Src/stm32c0xx_hal_flash_ex.c ****   }
 1578              		.loc 1 519 5 view .LVU426
 1579 0024 1968     		ldr	r1, [r3]
 1580 0026 8022     		movs	r2, #128
 1581 0028 9200     		lsls	r2, r2, #2
 1582 002a 0A43     		orrs	r2, r1
 1583 002c 1A60     		str	r2, [r3]
 1584              	.L115:
 521:Drivers/STM32C0xx_HAL_Driver/Src/stm32c0xx_hal_flash_ex.c **** 
 1585              		.loc 1 521 1 is_stmt 0 view .LVU427
 1586              		@ sp needed
 1587 002e 7047     		bx	lr
 1588              	.L119:
 1589              		.align	2
 1590              	.L118:
 1591 0030 00200240 		.word	1073881088
 1592 0034 FFFDFFFF 		.word	-513
 1593 0038 FFF7FFFF 		.word	-2049
 1594              		.cfi_endproc
 1595              	.LFE225:
 1597              		.text
 1598              	.Letext0:
 1599              		.file 2 "C:/Users/main/AppData/Roaming/Code/User/globalStorage/bmd.stm32-for-vscode/@xpack-dev-too
 1600              		.file 3 "C:/Users/main/AppData/Roaming/Code/User/globalStorage/bmd.stm32-for-vscode/@xpack-dev-too
 1601              		.file 4 "Drivers/CMSIS/Device/ST/STM32C0xx/Include/stm32c031xx.h"
 1602              		.file 5 "Drivers/STM32C0xx_HAL_Driver/Inc/stm32c0xx_hal_def.h"
 1603              		.file 6 "Drivers/STM32C0xx_HAL_Driver/Inc/stm32c0xx_hal_flash.h"
ARM GAS  C:\Users\main\AppData\Local\Temp\ccuDNLmp.s 			page 48

