ARM GAS  C:\Users\main\AppData\Local\Temp\ccIdQiyd.s 			page 1


   1              		.cpu cortex-m0plus
   2              		.arch armv6s-m
   3              		.fpu softvfp
   4              		.eabi_attribute 20, 1
   5              		.eabi_attribute 21, 1
   6              		.eabi_attribute 23, 3
   7              		.eabi_attribute 24, 1
   8              		.eabi_attribute 25, 1
   9              		.eabi_attribute 26, 1
  10              		.eabi_attribute 30, 1
  11              		.eabi_attribute 34, 0
  12              		.eabi_attribute 18, 4
  13              		.file	"usart.c"
  14              		.text
  15              	.Ltext0:
  16              		.cfi_sections	.debug_frame
  17              		.file 1 "Core/Src/usart.c"
  18              		.section	.text.MX_USART1_UART_Init,"ax",%progbits
  19              		.align	1
  20              		.global	MX_USART1_UART_Init
  21              		.syntax unified
  22              		.code	16
  23              		.thumb_func
  25              	MX_USART1_UART_Init:
  26              	.LFB217:
   1:Core/Src/usart.c **** /* USER CODE BEGIN Header */
   2:Core/Src/usart.c **** /**
   3:Core/Src/usart.c ****   ******************************************************************************
   4:Core/Src/usart.c ****   * @file    usart.c
   5:Core/Src/usart.c ****   * @brief   This file provides code for the configuration
   6:Core/Src/usart.c ****   *          of the USART instances.
   7:Core/Src/usart.c ****   ******************************************************************************
   8:Core/Src/usart.c ****   * @attention
   9:Core/Src/usart.c ****   *
  10:Core/Src/usart.c ****   * Copyright (c) 2025 STMicroelectronics.
  11:Core/Src/usart.c ****   * All rights reserved.
  12:Core/Src/usart.c ****   *
  13:Core/Src/usart.c ****   * This software is licensed under terms that can be found in the LICENSE file
  14:Core/Src/usart.c ****   * in the root directory of this software component.
  15:Core/Src/usart.c ****   * If no LICENSE file comes with this software, it is provided AS-IS.
  16:Core/Src/usart.c ****   *
  17:Core/Src/usart.c ****   ******************************************************************************
  18:Core/Src/usart.c ****   */
  19:Core/Src/usart.c **** /* USER CODE END Header */
  20:Core/Src/usart.c **** /* Includes ------------------------------------------------------------------*/
  21:Core/Src/usart.c **** #include "usart.h"
  22:Core/Src/usart.c **** 
  23:Core/Src/usart.c **** /* USER CODE BEGIN 0 */
  24:Core/Src/usart.c **** // #define PUTCHAR_PROTOTYPE int __io_putchar(int ch)
  25:Core/Src/usart.c **** /* USER CODE END 0 */
  26:Core/Src/usart.c **** 
  27:Core/Src/usart.c **** UART_HandleTypeDef huart1;
  28:Core/Src/usart.c **** 
  29:Core/Src/usart.c **** /* USART1 init function */
  30:Core/Src/usart.c **** 
  31:Core/Src/usart.c **** void MX_USART1_UART_Init(void)
  32:Core/Src/usart.c **** {
ARM GAS  C:\Users\main\AppData\Local\Temp\ccIdQiyd.s 			page 2


  27              		.loc 1 32 1 view -0
  28              		.cfi_startproc
  29              		@ args = 0, pretend = 0, frame = 0
  30              		@ frame_needed = 0, uses_anonymous_args = 0
  31 0000 10B5     		push	{r4, lr}
  32              		.cfi_def_cfa_offset 8
  33              		.cfi_offset 4, -8
  34              		.cfi_offset 14, -4
  33:Core/Src/usart.c **** 
  34:Core/Src/usart.c ****   /* USER CODE BEGIN USART1_Init 0 */
  35:Core/Src/usart.c **** 
  36:Core/Src/usart.c ****   /* USER CODE END USART1_Init 0 */
  37:Core/Src/usart.c **** 
  38:Core/Src/usart.c ****   /* USER CODE BEGIN USART1_Init 1 */
  39:Core/Src/usart.c **** 
  40:Core/Src/usart.c ****   /* USER CODE END USART1_Init 1 */
  41:Core/Src/usart.c ****   huart1.Instance = USART2;
  35              		.loc 1 41 3 view .LVU1
  36              		.loc 1 41 19 is_stmt 0 view .LVU2
  37 0002 1948     		ldr	r0, .L10
  38 0004 194B     		ldr	r3, .L10+4
  39 0006 0360     		str	r3, [r0]
  42:Core/Src/usart.c ****   huart1.Init.BaudRate = 115200;
  40              		.loc 1 42 3 is_stmt 1 view .LVU3
  41              		.loc 1 42 24 is_stmt 0 view .LVU4
  42 0008 E123     		movs	r3, #225
  43 000a 5B02     		lsls	r3, r3, #9
  44 000c 4360     		str	r3, [r0, #4]
  43:Core/Src/usart.c ****   huart1.Init.WordLength = UART_WORDLENGTH_8B;
  45              		.loc 1 43 3 is_stmt 1 view .LVU5
  46              		.loc 1 43 26 is_stmt 0 view .LVU6
  47 000e 0023     		movs	r3, #0
  48 0010 8360     		str	r3, [r0, #8]
  44:Core/Src/usart.c ****   huart1.Init.StopBits = UART_STOPBITS_1;
  49              		.loc 1 44 3 is_stmt 1 view .LVU7
  50              		.loc 1 44 24 is_stmt 0 view .LVU8
  51 0012 C360     		str	r3, [r0, #12]
  45:Core/Src/usart.c ****   huart1.Init.Parity = UART_PARITY_NONE;
  52              		.loc 1 45 3 is_stmt 1 view .LVU9
  53              		.loc 1 45 22 is_stmt 0 view .LVU10
  54 0014 0361     		str	r3, [r0, #16]
  46:Core/Src/usart.c ****   huart1.Init.Mode = UART_MODE_TX_RX;
  55              		.loc 1 46 3 is_stmt 1 view .LVU11
  56              		.loc 1 46 20 is_stmt 0 view .LVU12
  57 0016 0C22     		movs	r2, #12
  58 0018 4261     		str	r2, [r0, #20]
  47:Core/Src/usart.c ****   huart1.Init.HwFlowCtl = UART_HWCONTROL_NONE;
  59              		.loc 1 47 3 is_stmt 1 view .LVU13
  60              		.loc 1 47 25 is_stmt 0 view .LVU14
  61 001a 8361     		str	r3, [r0, #24]
  48:Core/Src/usart.c ****   huart1.Init.OverSampling = UART_OVERSAMPLING_16;
  62              		.loc 1 48 3 is_stmt 1 view .LVU15
  63              		.loc 1 48 28 is_stmt 0 view .LVU16
  64 001c C361     		str	r3, [r0, #28]
  49:Core/Src/usart.c ****   huart1.Init.OneBitSampling = UART_ONE_BIT_SAMPLE_DISABLE;
  65              		.loc 1 49 3 is_stmt 1 view .LVU17
  66              		.loc 1 49 30 is_stmt 0 view .LVU18
ARM GAS  C:\Users\main\AppData\Local\Temp\ccIdQiyd.s 			page 3


  67 001e 0362     		str	r3, [r0, #32]
  50:Core/Src/usart.c ****   huart1.Init.ClockPrescaler = UART_PRESCALER_DIV1;
  68              		.loc 1 50 3 is_stmt 1 view .LVU19
  69              		.loc 1 50 30 is_stmt 0 view .LVU20
  70 0020 4362     		str	r3, [r0, #36]
  51:Core/Src/usart.c ****   huart1.AdvancedInit.AdvFeatureInit = UART_ADVFEATURE_NO_INIT;
  71              		.loc 1 51 3 is_stmt 1 view .LVU21
  72              		.loc 1 51 38 is_stmt 0 view .LVU22
  73 0022 8362     		str	r3, [r0, #40]
  52:Core/Src/usart.c ****   if (HAL_UART_Init(&huart1) != HAL_OK)
  74              		.loc 1 52 3 is_stmt 1 view .LVU23
  75              		.loc 1 52 7 is_stmt 0 view .LVU24
  76 0024 FFF7FEFF 		bl	HAL_UART_Init
  77              	.LVL0:
  78              		.loc 1 52 6 discriminator 1 view .LVU25
  79 0028 0028     		cmp	r0, #0
  80 002a 11D1     		bne	.L6
  81              	.L2:
  53:Core/Src/usart.c ****   {
  54:Core/Src/usart.c ****     Error_Handler();
  55:Core/Src/usart.c ****   }
  56:Core/Src/usart.c ****   if (HAL_UARTEx_SetTxFifoThreshold(&huart1, UART_TXFIFO_THRESHOLD_1_8) != HAL_OK)
  82              		.loc 1 56 3 is_stmt 1 view .LVU26
  83              		.loc 1 56 7 is_stmt 0 view .LVU27
  84 002c 0E48     		ldr	r0, .L10
  85 002e 0021     		movs	r1, #0
  86 0030 FFF7FEFF 		bl	HAL_UARTEx_SetTxFifoThreshold
  87              	.LVL1:
  88              		.loc 1 56 6 discriminator 1 view .LVU28
  89 0034 0028     		cmp	r0, #0
  90 0036 0ED1     		bne	.L7
  91              	.L3:
  57:Core/Src/usart.c ****   {
  58:Core/Src/usart.c ****     Error_Handler();
  59:Core/Src/usart.c ****   }
  60:Core/Src/usart.c ****   if (HAL_UARTEx_SetRxFifoThreshold(&huart1, UART_RXFIFO_THRESHOLD_1_8) != HAL_OK)
  92              		.loc 1 60 3 is_stmt 1 view .LVU29
  93              		.loc 1 60 7 is_stmt 0 view .LVU30
  94 0038 0B48     		ldr	r0, .L10
  95 003a 0021     		movs	r1, #0
  96 003c FFF7FEFF 		bl	HAL_UARTEx_SetRxFifoThreshold
  97              	.LVL2:
  98              		.loc 1 60 6 discriminator 1 view .LVU31
  99 0040 0028     		cmp	r0, #0
 100 0042 0BD1     		bne	.L8
 101              	.L4:
  61:Core/Src/usart.c ****   {
  62:Core/Src/usart.c ****     Error_Handler();
  63:Core/Src/usart.c ****   }
  64:Core/Src/usart.c ****   if (HAL_UARTEx_DisableFifoMode(&huart1) != HAL_OK)
 102              		.loc 1 64 3 is_stmt 1 view .LVU32
 103              		.loc 1 64 7 is_stmt 0 view .LVU33
 104 0044 0848     		ldr	r0, .L10
 105 0046 FFF7FEFF 		bl	HAL_UARTEx_DisableFifoMode
 106              	.LVL3:
 107              		.loc 1 64 6 discriminator 1 view .LVU34
 108 004a 0028     		cmp	r0, #0
ARM GAS  C:\Users\main\AppData\Local\Temp\ccIdQiyd.s 			page 4


 109 004c 09D1     		bne	.L9
 110              	.L1:
  65:Core/Src/usart.c ****   {
  66:Core/Src/usart.c ****     Error_Handler();
  67:Core/Src/usart.c ****   }
  68:Core/Src/usart.c ****   /* USER CODE BEGIN USART1_Init 2 */
  69:Core/Src/usart.c **** 
  70:Core/Src/usart.c ****   /* USER CODE END USART1_Init 2 */
  71:Core/Src/usart.c **** 
  72:Core/Src/usart.c **** }
 111              		.loc 1 72 1 view .LVU35
 112              		@ sp needed
 113 004e 10BD     		pop	{r4, pc}
 114              	.L6:
  54:Core/Src/usart.c ****   }
 115              		.loc 1 54 5 is_stmt 1 view .LVU36
 116 0050 FFF7FEFF 		bl	Error_Handler
 117              	.LVL4:
 118 0054 EAE7     		b	.L2
 119              	.L7:
  58:Core/Src/usart.c ****   }
 120              		.loc 1 58 5 view .LVU37
 121 0056 FFF7FEFF 		bl	Error_Handler
 122              	.LVL5:
 123 005a EDE7     		b	.L3
 124              	.L8:
  62:Core/Src/usart.c ****   }
 125              		.loc 1 62 5 view .LVU38
 126 005c FFF7FEFF 		bl	Error_Handler
 127              	.LVL6:
 128 0060 F0E7     		b	.L4
 129              	.L9:
  66:Core/Src/usart.c ****   }
 130              		.loc 1 66 5 view .LVU39
 131 0062 FFF7FEFF 		bl	Error_Handler
 132              	.LVL7:
 133              		.loc 1 72 1 is_stmt 0 view .LVU40
 134 0066 F2E7     		b	.L1
 135              	.L11:
 136              		.align	2
 137              	.L10:
 138 0068 00000000 		.word	huart1
 139 006c 00440040 		.word	1073759232
 140              		.cfi_endproc
 141              	.LFE217:
 143              		.section	.text.HAL_UART_MspInit,"ax",%progbits
 144              		.align	1
 145              		.global	HAL_UART_MspInit
 146              		.syntax unified
 147              		.code	16
 148              		.thumb_func
 150              	HAL_UART_MspInit:
 151              	.LVL8:
 152              	.LFB218:
  73:Core/Src/usart.c **** 
  74:Core/Src/usart.c **** // PUTCHAR_PROTOTYPE
  75:Core/Src/usart.c **** // {
ARM GAS  C:\Users\main\AppData\Local\Temp\ccIdQiyd.s 			page 5


  76:Core/Src/usart.c **** //   /* Place your implementation of fputc here */
  77:Core/Src/usart.c **** //   /* e.g. write a character to the USART1 and Loop until the end of transmission */
  78:Core/Src/usart.c **** //   HAL_UART_Transmit(&huart1, (uint8_t *)&ch, 1, 0xFFFF);
  79:Core/Src/usart.c **** 
  80:Core/Src/usart.c **** //   return ch;
  81:Core/Src/usart.c **** // }
  82:Core/Src/usart.c **** 
  83:Core/Src/usart.c **** void HAL_UART_MspInit(UART_HandleTypeDef* uartHandle)
  84:Core/Src/usart.c **** {
 153              		.loc 1 84 1 is_stmt 1 view -0
 154              		.cfi_startproc
 155              		@ args = 0, pretend = 0, frame = 56
 156              		@ frame_needed = 0, uses_anonymous_args = 0
 157              		.loc 1 84 1 is_stmt 0 view .LVU42
 158 0000 10B5     		push	{r4, lr}
 159              		.cfi_def_cfa_offset 8
 160              		.cfi_offset 4, -8
 161              		.cfi_offset 14, -4
 162 0002 8EB0     		sub	sp, sp, #56
 163              		.cfi_def_cfa_offset 64
 164 0004 0400     		movs	r4, r0
  85:Core/Src/usart.c **** 
  86:Core/Src/usart.c ****   GPIO_InitTypeDef GPIO_InitStruct = {0};
 165              		.loc 1 86 3 is_stmt 1 view .LVU43
 166              		.loc 1 86 20 is_stmt 0 view .LVU44
 167 0006 1422     		movs	r2, #20
 168 0008 0021     		movs	r1, #0
 169 000a 09A8     		add	r0, sp, #36
 170              	.LVL9:
 171              		.loc 1 86 20 view .LVU45
 172 000c FFF7FEFF 		bl	memset
 173              	.LVL10:
  87:Core/Src/usart.c ****   RCC_PeriphCLKInitTypeDef PeriphClkInit = {0};
 174              		.loc 1 87 3 is_stmt 1 view .LVU46
 175              		.loc 1 87 28 is_stmt 0 view .LVU47
 176 0010 1C22     		movs	r2, #28
 177 0012 0021     		movs	r1, #0
 178 0014 02A8     		add	r0, sp, #8
 179 0016 FFF7FEFF 		bl	memset
 180              	.LVL11:
  88:Core/Src/usart.c ****   if(uartHandle->Instance==USART1)
 181              		.loc 1 88 3 is_stmt 1 view .LVU48
 182              		.loc 1 88 16 is_stmt 0 view .LVU49
 183 001a 2268     		ldr	r2, [r4]
 184              		.loc 1 88 5 view .LVU50
 185 001c 174B     		ldr	r3, .L17
 186 001e 9A42     		cmp	r2, r3
 187 0020 01D0     		beq	.L15
 188              	.L12:
  89:Core/Src/usart.c ****   {
  90:Core/Src/usart.c ****   /* USER CODE BEGIN USART1_MspInit 0 */
  91:Core/Src/usart.c **** 
  92:Core/Src/usart.c ****   /* USER CODE END USART1_MspInit 0 */
  93:Core/Src/usart.c **** 
  94:Core/Src/usart.c ****   /** Initializes the peripherals clocks
  95:Core/Src/usart.c ****   */
  96:Core/Src/usart.c ****     PeriphClkInit.PeriphClockSelection = RCC_PERIPHCLK_USART1;
ARM GAS  C:\Users\main\AppData\Local\Temp\ccIdQiyd.s 			page 6


  97:Core/Src/usart.c ****     PeriphClkInit.Usart1ClockSelection = RCC_USART1CLKSOURCE_PCLK1;
  98:Core/Src/usart.c ****     if (HAL_RCCEx_PeriphCLKConfig(&PeriphClkInit) != HAL_OK)
  99:Core/Src/usart.c ****     {
 100:Core/Src/usart.c ****       Error_Handler();
 101:Core/Src/usart.c ****     }
 102:Core/Src/usart.c **** 
 103:Core/Src/usart.c ****     /* USART1 clock enable */
 104:Core/Src/usart.c ****     __HAL_RCC_USART1_CLK_ENABLE();
 105:Core/Src/usart.c **** 
 106:Core/Src/usart.c ****     __HAL_RCC_GPIOA_CLK_ENABLE();
 107:Core/Src/usart.c ****     /**USART1 GPIO Configuration
 108:Core/Src/usart.c ****     PA0     ------> USART1_TX
 109:Core/Src/usart.c ****     PA1     ------> USART1_RX
 110:Core/Src/usart.c ****     */
 111:Core/Src/usart.c ****     GPIO_InitStruct.Pin = GPIO_PIN_0|GPIO_PIN_1;
 112:Core/Src/usart.c ****     GPIO_InitStruct.Mode = GPIO_MODE_AF_PP;
 113:Core/Src/usart.c ****     GPIO_InitStruct.Pull = GPIO_NOPULL;
 114:Core/Src/usart.c ****     GPIO_InitStruct.Speed = GPIO_SPEED_FREQ_LOW;
 115:Core/Src/usart.c ****     GPIO_InitStruct.Alternate = GPIO_AF4_USART1;
 116:Core/Src/usart.c ****     HAL_GPIO_Init(GPIOA, &GPIO_InitStruct);
 117:Core/Src/usart.c **** 
 118:Core/Src/usart.c ****   /* USER CODE BEGIN USART1_MspInit 1 */
 119:Core/Src/usart.c **** 
 120:Core/Src/usart.c ****   /* USER CODE END USART1_MspInit 1 */
 121:Core/Src/usart.c ****   }
 122:Core/Src/usart.c **** }
 189              		.loc 1 122 1 view .LVU51
 190 0022 0EB0     		add	sp, sp, #56
 191              		@ sp needed
 192              	.LVL12:
 193              		.loc 1 122 1 view .LVU52
 194 0024 10BD     		pop	{r4, pc}
 195              	.LVL13:
 196              	.L15:
  96:Core/Src/usart.c ****     PeriphClkInit.Usart1ClockSelection = RCC_USART1CLKSOURCE_PCLK1;
 197              		.loc 1 96 5 is_stmt 1 view .LVU53
  96:Core/Src/usart.c ****     PeriphClkInit.Usart1ClockSelection = RCC_USART1CLKSOURCE_PCLK1;
 198              		.loc 1 96 40 is_stmt 0 view .LVU54
 199 0026 0123     		movs	r3, #1
 200 0028 0293     		str	r3, [sp, #8]
  97:Core/Src/usart.c ****     if (HAL_RCCEx_PeriphCLKConfig(&PeriphClkInit) != HAL_OK)
 201              		.loc 1 97 5 is_stmt 1 view .LVU55
  98:Core/Src/usart.c ****     {
 202              		.loc 1 98 5 view .LVU56
  98:Core/Src/usart.c ****     {
 203              		.loc 1 98 9 is_stmt 0 view .LVU57
 204 002a 02A8     		add	r0, sp, #8
 205 002c FFF7FEFF 		bl	HAL_RCCEx_PeriphCLKConfig
 206              	.LVL14:
  98:Core/Src/usart.c ****     {
 207              		.loc 1 98 8 discriminator 1 view .LVU58
 208 0030 0028     		cmp	r0, #0
 209 0032 20D1     		bne	.L16
 210              	.L14:
 104:Core/Src/usart.c **** 
 211              		.loc 1 104 5 is_stmt 1 view .LVU59
 212              	.LBB2:
ARM GAS  C:\Users\main\AppData\Local\Temp\ccIdQiyd.s 			page 7


 104:Core/Src/usart.c **** 
 213              		.loc 1 104 5 view .LVU60
 104:Core/Src/usart.c **** 
 214              		.loc 1 104 5 view .LVU61
 215 0034 124B     		ldr	r3, .L17+4
 216 0036 1A6C     		ldr	r2, [r3, #64]
 217 0038 8021     		movs	r1, #128
 218 003a C901     		lsls	r1, r1, #7
 219 003c 0A43     		orrs	r2, r1
 220 003e 1A64     		str	r2, [r3, #64]
 104:Core/Src/usart.c **** 
 221              		.loc 1 104 5 view .LVU62
 222 0040 1A6C     		ldr	r2, [r3, #64]
 223 0042 0A40     		ands	r2, r1
 224 0044 0092     		str	r2, [sp]
 104:Core/Src/usart.c **** 
 225              		.loc 1 104 5 view .LVU63
 226 0046 009A     		ldr	r2, [sp]
 227              	.LBE2:
 104:Core/Src/usart.c **** 
 228              		.loc 1 104 5 view .LVU64
 106:Core/Src/usart.c ****     /**USART1 GPIO Configuration
 229              		.loc 1 106 5 view .LVU65
 230              	.LBB3:
 106:Core/Src/usart.c ****     /**USART1 GPIO Configuration
 231              		.loc 1 106 5 view .LVU66
 106:Core/Src/usart.c ****     /**USART1 GPIO Configuration
 232              		.loc 1 106 5 view .LVU67
 233 0048 596B     		ldr	r1, [r3, #52]
 234 004a 0122     		movs	r2, #1
 235 004c 1143     		orrs	r1, r2
 236 004e 5963     		str	r1, [r3, #52]
 106:Core/Src/usart.c ****     /**USART1 GPIO Configuration
 237              		.loc 1 106 5 view .LVU68
 238 0050 5B6B     		ldr	r3, [r3, #52]
 239 0052 1A40     		ands	r2, r3
 240 0054 0192     		str	r2, [sp, #4]
 106:Core/Src/usart.c ****     /**USART1 GPIO Configuration
 241              		.loc 1 106 5 view .LVU69
 242 0056 019B     		ldr	r3, [sp, #4]
 243              	.LBE3:
 106:Core/Src/usart.c ****     /**USART1 GPIO Configuration
 244              		.loc 1 106 5 view .LVU70
 111:Core/Src/usart.c ****     GPIO_InitStruct.Mode = GPIO_MODE_AF_PP;
 245              		.loc 1 111 5 view .LVU71
 111:Core/Src/usart.c ****     GPIO_InitStruct.Mode = GPIO_MODE_AF_PP;
 246              		.loc 1 111 25 is_stmt 0 view .LVU72
 247 0058 09A9     		add	r1, sp, #36
 248 005a 0323     		movs	r3, #3
 249 005c 0993     		str	r3, [sp, #36]
 112:Core/Src/usart.c ****     GPIO_InitStruct.Pull = GPIO_NOPULL;
 250              		.loc 1 112 5 is_stmt 1 view .LVU73
 112:Core/Src/usart.c ****     GPIO_InitStruct.Pull = GPIO_NOPULL;
 251              		.loc 1 112 26 is_stmt 0 view .LVU74
 252 005e 013B     		subs	r3, r3, #1
 253 0060 4B60     		str	r3, [r1, #4]
 113:Core/Src/usart.c ****     GPIO_InitStruct.Speed = GPIO_SPEED_FREQ_LOW;
ARM GAS  C:\Users\main\AppData\Local\Temp\ccIdQiyd.s 			page 8


 254              		.loc 1 113 5 is_stmt 1 view .LVU75
 113:Core/Src/usart.c ****     GPIO_InitStruct.Speed = GPIO_SPEED_FREQ_LOW;
 255              		.loc 1 113 26 is_stmt 0 view .LVU76
 256 0062 0023     		movs	r3, #0
 257 0064 8B60     		str	r3, [r1, #8]
 114:Core/Src/usart.c ****     GPIO_InitStruct.Alternate = GPIO_AF4_USART1;
 258              		.loc 1 114 5 is_stmt 1 view .LVU77
 114:Core/Src/usart.c ****     GPIO_InitStruct.Alternate = GPIO_AF4_USART1;
 259              		.loc 1 114 27 is_stmt 0 view .LVU78
 260 0066 CB60     		str	r3, [r1, #12]
 115:Core/Src/usart.c ****     HAL_GPIO_Init(GPIOA, &GPIO_InitStruct);
 261              		.loc 1 115 5 is_stmt 1 view .LVU79
 115:Core/Src/usart.c ****     HAL_GPIO_Init(GPIOA, &GPIO_InitStruct);
 262              		.loc 1 115 31 is_stmt 0 view .LVU80
 263 0068 0433     		adds	r3, r3, #4
 264 006a 0B61     		str	r3, [r1, #16]
 116:Core/Src/usart.c **** 
 265              		.loc 1 116 5 is_stmt 1 view .LVU81
 266 006c A020     		movs	r0, #160
 267 006e C005     		lsls	r0, r0, #23
 268 0070 FFF7FEFF 		bl	HAL_GPIO_Init
 269              	.LVL15:
 270              		.loc 1 122 1 is_stmt 0 view .LVU82
 271 0074 D5E7     		b	.L12
 272              	.L16:
 100:Core/Src/usart.c ****     }
 273              		.loc 1 100 7 is_stmt 1 view .LVU83
 274 0076 FFF7FEFF 		bl	Error_Handler
 275              	.LVL16:
 276 007a DBE7     		b	.L14
 277              	.L18:
 278              		.align	2
 279              	.L17:
 280 007c 00380140 		.word	1073821696
 281 0080 00100240 		.word	1073876992
 282              		.cfi_endproc
 283              	.LFE218:
 285              		.section	.text.HAL_UART_MspDeInit,"ax",%progbits
 286              		.align	1
 287              		.global	HAL_UART_MspDeInit
 288              		.syntax unified
 289              		.code	16
 290              		.thumb_func
 292              	HAL_UART_MspDeInit:
 293              	.LVL17:
 294              	.LFB219:
 123:Core/Src/usart.c **** 
 124:Core/Src/usart.c **** void HAL_UART_MspDeInit(UART_HandleTypeDef* uartHandle)
 125:Core/Src/usart.c **** {
 295              		.loc 1 125 1 view -0
 296              		.cfi_startproc
 297              		@ args = 0, pretend = 0, frame = 0
 298              		@ frame_needed = 0, uses_anonymous_args = 0
 299              		.loc 1 125 1 is_stmt 0 view .LVU85
 300 0000 10B5     		push	{r4, lr}
 301              		.cfi_def_cfa_offset 8
 302              		.cfi_offset 4, -8
ARM GAS  C:\Users\main\AppData\Local\Temp\ccIdQiyd.s 			page 9


 303              		.cfi_offset 14, -4
 126:Core/Src/usart.c **** 
 127:Core/Src/usart.c ****   if(uartHandle->Instance==USART1)
 304              		.loc 1 127 3 is_stmt 1 view .LVU86
 305              		.loc 1 127 16 is_stmt 0 view .LVU87
 306 0002 0268     		ldr	r2, [r0]
 307              		.loc 1 127 5 view .LVU88
 308 0004 074B     		ldr	r3, .L22
 309 0006 9A42     		cmp	r2, r3
 310 0008 00D0     		beq	.L21
 311              	.LVL18:
 312              	.L19:
 128:Core/Src/usart.c ****   {
 129:Core/Src/usart.c ****   /* USER CODE BEGIN USART1_MspDeInit 0 */
 130:Core/Src/usart.c **** 
 131:Core/Src/usart.c ****   /* USER CODE END USART1_MspDeInit 0 */
 132:Core/Src/usart.c ****     /* Peripheral clock disable */
 133:Core/Src/usart.c ****     __HAL_RCC_USART1_CLK_DISABLE();
 134:Core/Src/usart.c **** 
 135:Core/Src/usart.c ****     /**USART1 GPIO Configuration
 136:Core/Src/usart.c ****     PA0     ------> USART1_TX
 137:Core/Src/usart.c ****     PA1     ------> USART1_RX
 138:Core/Src/usart.c ****     */
 139:Core/Src/usart.c ****     HAL_GPIO_DeInit(GPIOA, GPIO_PIN_0|GPIO_PIN_1);
 140:Core/Src/usart.c **** 
 141:Core/Src/usart.c ****   /* USER CODE BEGIN USART1_MspDeInit 1 */
 142:Core/Src/usart.c **** 
 143:Core/Src/usart.c ****   /* USER CODE END USART1_MspDeInit 1 */
 144:Core/Src/usart.c ****   }
 145:Core/Src/usart.c **** }
 313              		.loc 1 145 1 view .LVU89
 314              		@ sp needed
 315 000a 10BD     		pop	{r4, pc}
 316              	.LVL19:
 317              	.L21:
 133:Core/Src/usart.c **** 
 318              		.loc 1 133 5 is_stmt 1 view .LVU90
 319 000c 064A     		ldr	r2, .L22+4
 320 000e 136C     		ldr	r3, [r2, #64]
 321 0010 0649     		ldr	r1, .L22+8
 322 0012 0B40     		ands	r3, r1
 323 0014 1364     		str	r3, [r2, #64]
 139:Core/Src/usart.c **** 
 324              		.loc 1 139 5 view .LVU91
 325 0016 A020     		movs	r0, #160
 326              	.LVL20:
 139:Core/Src/usart.c **** 
 327              		.loc 1 139 5 is_stmt 0 view .LVU92
 328 0018 0321     		movs	r1, #3
 329 001a C005     		lsls	r0, r0, #23
 330 001c FFF7FEFF 		bl	HAL_GPIO_DeInit
 331              	.LVL21:
 332              		.loc 1 145 1 view .LVU93
 333 0020 F3E7     		b	.L19
 334              	.L23:
 335 0022 C046     		.align	2
 336              	.L22:
ARM GAS  C:\Users\main\AppData\Local\Temp\ccIdQiyd.s 			page 10


 337 0024 00380140 		.word	1073821696
 338 0028 00100240 		.word	1073876992
 339 002c FFBFFFFF 		.word	-16385
 340              		.cfi_endproc
 341              	.LFE219:
 343              		.global	huart1
 344              		.section	.bss.huart1,"aw",%nobits
 345              		.align	2
 348              	huart1:
 349 0000 00000000 		.space	148
 349      00000000 
 349      00000000 
 349      00000000 
 349      00000000 
 350              		.text
 351              	.Letext0:
 352              		.file 2 "C:/Users/main/AppData/Roaming/Code/User/globalStorage/bmd.stm32-for-vscode/@xpack-dev-too
 353              		.file 3 "C:/Users/main/AppData/Roaming/Code/User/globalStorage/bmd.stm32-for-vscode/@xpack-dev-too
 354              		.file 4 "Drivers/CMSIS/Device/ST/STM32C0xx/Include/stm32c031xx.h"
 355              		.file 5 "Drivers/STM32C0xx_HAL_Driver/Inc/stm32c0xx_hal_def.h"
 356              		.file 6 "Drivers/STM32C0xx_HAL_Driver/Inc/stm32c0xx_hal_rcc_ex.h"
 357              		.file 7 "Drivers/STM32C0xx_HAL_Driver/Inc/stm32c0xx_hal_gpio.h"
 358              		.file 8 "Drivers/STM32C0xx_HAL_Driver/Inc/stm32c0xx_hal_dma.h"
 359              		.file 9 "Drivers/STM32C0xx_HAL_Driver/Inc/stm32c0xx_hal_uart.h"
 360              		.file 10 "Drivers/STM32C0xx_HAL_Driver/Inc/stm32c0xx_hal_uart_ex.h"
 361              		.file 11 "Core/Inc/usart.h"
 362              		.file 12 "Core/Inc/main.h"
 363              		.file 13 "<built-in>"
ARM GAS  C:\Users\main\AppData\Local\Temp\ccIdQiyd.s 			page 11

