ARM GAS  C:\Users\main\AppData\Local\Temp\ccwCI0Kr.s 			page 1


   1              		.cpu cortex-m0plus
   2              		.arch armv6s-m
   3              		.fpu softvfp
   4              		.eabi_attribute 20, 1
   5              		.eabi_attribute 21, 1
   6              		.eabi_attribute 23, 3
   7              		.eabi_attribute 24, 1
   8              		.eabi_attribute 25, 1
   9              		.eabi_attribute 26, 1
  10              		.eabi_attribute 30, 1
  11              		.eabi_attribute 34, 0
  12              		.eabi_attribute 18, 4
  13              		.file	"qf_mem.c"
  14              		.text
  15              	.Ltext0:
  16              		.cfi_sections	.debug_frame
  17              		.section	.text.QMPool_init,"ax",%progbits
  18              		.align	1
  19              		.global	QMPool_init
  20              		.syntax unified
  21              		.code	16
  22              		.thumb_func
  24              	QMPool_init:
  25              	.LVL0:
  26              	.LFB18:
  27              		.file 1 "Middlewares/Third_Party/QuantumLeaps_RTEF_qpc/src/qf/qf_mem.c"
   1:Middlewares/Third_Party/QuantumLeaps_RTEF_qpc/src/qf/qf_mem.c **** //============================================================================
   2:Middlewares/Third_Party/QuantumLeaps_RTEF_qpc/src/qf/qf_mem.c **** // QP/C Real-Time Embedded Framework (RTEF)
   3:Middlewares/Third_Party/QuantumLeaps_RTEF_qpc/src/qf/qf_mem.c **** // Version 8.0.2
   4:Middlewares/Third_Party/QuantumLeaps_RTEF_qpc/src/qf/qf_mem.c **** //
   5:Middlewares/Third_Party/QuantumLeaps_RTEF_qpc/src/qf/qf_mem.c **** // Copyright (C) 2005 Quantum Leaps, LLC. All rights reserved.
   6:Middlewares/Third_Party/QuantumLeaps_RTEF_qpc/src/qf/qf_mem.c **** //
   7:Middlewares/Third_Party/QuantumLeaps_RTEF_qpc/src/qf/qf_mem.c **** //                    Q u a n t u m  L e a P s
   8:Middlewares/Third_Party/QuantumLeaps_RTEF_qpc/src/qf/qf_mem.c **** //                    ------------------------
   9:Middlewares/Third_Party/QuantumLeaps_RTEF_qpc/src/qf/qf_mem.c **** //                    Modern Embedded Software
  10:Middlewares/Third_Party/QuantumLeaps_RTEF_qpc/src/qf/qf_mem.c **** //
  11:Middlewares/Third_Party/QuantumLeaps_RTEF_qpc/src/qf/qf_mem.c **** // SPDX-License-Identifier: GPL-3.0-or-later OR LicenseRef-QL-commercial
  12:Middlewares/Third_Party/QuantumLeaps_RTEF_qpc/src/qf/qf_mem.c **** //
  13:Middlewares/Third_Party/QuantumLeaps_RTEF_qpc/src/qf/qf_mem.c **** // This software is dual-licensed under the terms of the open-source GNU
  14:Middlewares/Third_Party/QuantumLeaps_RTEF_qpc/src/qf/qf_mem.c **** // General Public License (GPL) or under the terms of one of the closed-
  15:Middlewares/Third_Party/QuantumLeaps_RTEF_qpc/src/qf/qf_mem.c **** // source Quantum Leaps commercial licenses.
  16:Middlewares/Third_Party/QuantumLeaps_RTEF_qpc/src/qf/qf_mem.c **** //
  17:Middlewares/Third_Party/QuantumLeaps_RTEF_qpc/src/qf/qf_mem.c **** // Redistributions in source code must retain this top-level comment block.
  18:Middlewares/Third_Party/QuantumLeaps_RTEF_qpc/src/qf/qf_mem.c **** // Plagiarizing this software to sidestep the license obligations is illegal.
  19:Middlewares/Third_Party/QuantumLeaps_RTEF_qpc/src/qf/qf_mem.c **** //
  20:Middlewares/Third_Party/QuantumLeaps_RTEF_qpc/src/qf/qf_mem.c **** // NOTE:
  21:Middlewares/Third_Party/QuantumLeaps_RTEF_qpc/src/qf/qf_mem.c **** // The GPL does NOT permit the incorporation of this code into proprietary
  22:Middlewares/Third_Party/QuantumLeaps_RTEF_qpc/src/qf/qf_mem.c **** // programs. Please contact Quantum Leaps for commercial licensing options,
  23:Middlewares/Third_Party/QuantumLeaps_RTEF_qpc/src/qf/qf_mem.c **** // which expressly supersede the GPL and are designed explicitly for
  24:Middlewares/Third_Party/QuantumLeaps_RTEF_qpc/src/qf/qf_mem.c **** // closed-source distribution.
  25:Middlewares/Third_Party/QuantumLeaps_RTEF_qpc/src/qf/qf_mem.c **** //
  26:Middlewares/Third_Party/QuantumLeaps_RTEF_qpc/src/qf/qf_mem.c **** // Quantum Leaps contact information:
  27:Middlewares/Third_Party/QuantumLeaps_RTEF_qpc/src/qf/qf_mem.c **** // <www.state-machine.com/licensing>
  28:Middlewares/Third_Party/QuantumLeaps_RTEF_qpc/src/qf/qf_mem.c **** // <info@state-machine.com>
  29:Middlewares/Third_Party/QuantumLeaps_RTEF_qpc/src/qf/qf_mem.c **** //============================================================================
  30:Middlewares/Third_Party/QuantumLeaps_RTEF_qpc/src/qf/qf_mem.c **** #define QP_IMPL           // this is QP implementation
  31:Middlewares/Third_Party/QuantumLeaps_RTEF_qpc/src/qf/qf_mem.c **** #include "qp_port.h"      // QP port
ARM GAS  C:\Users\main\AppData\Local\Temp\ccwCI0Kr.s 			page 2


  32:Middlewares/Third_Party/QuantumLeaps_RTEF_qpc/src/qf/qf_mem.c **** #include "qp_pkg.h"       // QP package-scope interface
  33:Middlewares/Third_Party/QuantumLeaps_RTEF_qpc/src/qf/qf_mem.c **** #include "qsafe.h"        // QP Functional Safety (FuSa) Subsystem
  34:Middlewares/Third_Party/QuantumLeaps_RTEF_qpc/src/qf/qf_mem.c **** #ifdef Q_SPY              // QS software tracing enabled?
  35:Middlewares/Third_Party/QuantumLeaps_RTEF_qpc/src/qf/qf_mem.c ****     #include "qs_port.h"  // QS port
  36:Middlewares/Third_Party/QuantumLeaps_RTEF_qpc/src/qf/qf_mem.c ****     #include "qs_pkg.h"   // QS package-scope internal interface
  37:Middlewares/Third_Party/QuantumLeaps_RTEF_qpc/src/qf/qf_mem.c **** #else
  38:Middlewares/Third_Party/QuantumLeaps_RTEF_qpc/src/qf/qf_mem.c ****     #include "qs_dummy.h" // disable the QS software tracing
  39:Middlewares/Third_Party/QuantumLeaps_RTEF_qpc/src/qf/qf_mem.c **** #endif // Q_SPY
  40:Middlewares/Third_Party/QuantumLeaps_RTEF_qpc/src/qf/qf_mem.c **** 
  41:Middlewares/Third_Party/QuantumLeaps_RTEF_qpc/src/qf/qf_mem.c **** Q_DEFINE_THIS_MODULE("qf_mem")
  42:Middlewares/Third_Party/QuantumLeaps_RTEF_qpc/src/qf/qf_mem.c **** 
  43:Middlewares/Third_Party/QuantumLeaps_RTEF_qpc/src/qf/qf_mem.c **** //............................................................................
  44:Middlewares/Third_Party/QuantumLeaps_RTEF_qpc/src/qf/qf_mem.c **** //! @public @memberof QMPool
  45:Middlewares/Third_Party/QuantumLeaps_RTEF_qpc/src/qf/qf_mem.c **** void QMPool_init(QMPool * const me,
  46:Middlewares/Third_Party/QuantumLeaps_RTEF_qpc/src/qf/qf_mem.c ****     void * const poolSto,
  47:Middlewares/Third_Party/QuantumLeaps_RTEF_qpc/src/qf/qf_mem.c ****     uint_fast32_t const poolSize,
  48:Middlewares/Third_Party/QuantumLeaps_RTEF_qpc/src/qf/qf_mem.c ****     uint_fast16_t const blockSize)
  49:Middlewares/Third_Party/QuantumLeaps_RTEF_qpc/src/qf/qf_mem.c **** {
  28              		.loc 1 49 1 view -0
  29              		.cfi_startproc
  30              		@ args = 0, pretend = 0, frame = 0
  31              		@ frame_needed = 0, uses_anonymous_args = 0
  32              		.loc 1 49 1 is_stmt 0 view .LVU1
  33 0000 F8B5     		push	{r3, r4, r5, r6, r7, lr}
  34              	.LCFI0:
  35              		.cfi_def_cfa_offset 24
  36              		.cfi_offset 3, -24
  37              		.cfi_offset 4, -20
  38              		.cfi_offset 5, -16
  39              		.cfi_offset 6, -12
  40              		.cfi_offset 7, -8
  41              		.cfi_offset 14, -4
  42 0002 0400     		movs	r4, r0
  43 0004 0E00     		movs	r6, r1
  44 0006 1700     		movs	r7, r2
  45 0008 1D00     		movs	r5, r3
  50:Middlewares/Third_Party/QuantumLeaps_RTEF_qpc/src/qf/qf_mem.c ****     QF_CRIT_STAT
  51:Middlewares/Third_Party/QuantumLeaps_RTEF_qpc/src/qf/qf_mem.c ****     QF_CRIT_ENTRY();
  46              		.loc 1 51 5 is_stmt 1 view .LVU2
  47 000a FFF7FEFF 		bl	vPortEnterCritical
  48              	.LVL1:
  52:Middlewares/Third_Party/QuantumLeaps_RTEF_qpc/src/qf/qf_mem.c **** 
  53:Middlewares/Third_Party/QuantumLeaps_RTEF_qpc/src/qf/qf_mem.c ****     Q_REQUIRE_INCRIT(100, poolSto != (void *)0);
  49              		.loc 1 53 5 view .LVU3
  50 000e 002E     		cmp	r6, #0
  51 0010 04D0     		beq	.L9
  54:Middlewares/Third_Party/QuantumLeaps_RTEF_qpc/src/qf/qf_mem.c **** 
  55:Middlewares/Third_Party/QuantumLeaps_RTEF_qpc/src/qf/qf_mem.c ****     me->freeHead = (void * *)poolSto;
  52              		.loc 1 55 5 view .LVU4
  53              		.loc 1 55 18 is_stmt 0 view .LVU5
  54 0012 A660     		str	r6, [r4, #8]
  56:Middlewares/Third_Party/QuantumLeaps_RTEF_qpc/src/qf/qf_mem.c **** 
  57:Middlewares/Third_Party/QuantumLeaps_RTEF_qpc/src/qf/qf_mem.c ****     // find # free links in a memory block, see NOTE1
  58:Middlewares/Third_Party/QuantumLeaps_RTEF_qpc/src/qf/qf_mem.c ****     me->blockSize = (QMPoolSize)(2U * sizeof(void *));
  55              		.loc 1 58 5 is_stmt 1 view .LVU6
  56              		.loc 1 58 19 is_stmt 0 view .LVU7
  57 0014 0823     		movs	r3, #8
ARM GAS  C:\Users\main\AppData\Local\Temp\ccwCI0Kr.s 			page 3


  58 0016 A381     		strh	r3, [r4, #12]
  59:Middlewares/Third_Party/QuantumLeaps_RTEF_qpc/src/qf/qf_mem.c ****     uint_fast16_t inext = 2U; // # index of the next block
  59              		.loc 1 59 5 is_stmt 1 view .LVU8
  60              	.LVL2:
  60:Middlewares/Third_Party/QuantumLeaps_RTEF_qpc/src/qf/qf_mem.c ****     while (me->blockSize < (QMPoolSize)blockSize) {
  61              		.loc 1 60 5 view .LVU9
  59:Middlewares/Third_Party/QuantumLeaps_RTEF_qpc/src/qf/qf_mem.c ****     uint_fast16_t inext = 2U; // # index of the next block
  62              		.loc 1 59 19 is_stmt 0 view .LVU10
  63 0018 0221     		movs	r1, #2
  64              		.loc 1 60 11 view .LVU11
  65 001a 06E0     		b	.L3
  66              	.LVL3:
  67              	.L9:
  53:Middlewares/Third_Party/QuantumLeaps_RTEF_qpc/src/qf/qf_mem.c **** 
  68              		.loc 1 53 5 discriminator 1 view .LVU12
  69 001c 6421     		movs	r1, #100
  70 001e 1848     		ldr	r0, .L12
  71 0020 FFF7FEFF 		bl	Q_onError
  72              	.LVL4:
  73              	.L4:
  61:Middlewares/Third_Party/QuantumLeaps_RTEF_qpc/src/qf/qf_mem.c ****         me->blockSize += (QMPoolSize)sizeof(void *);
  74              		.loc 1 61 9 is_stmt 1 view .LVU13
  75              		.loc 1 61 23 is_stmt 0 view .LVU14
  76 0024 0430     		adds	r0, r0, #4
  77 0026 A081     		strh	r0, [r4, #12]
  62:Middlewares/Third_Party/QuantumLeaps_RTEF_qpc/src/qf/qf_mem.c ****         ++inext;
  78              		.loc 1 62 9 is_stmt 1 view .LVU15
  79 0028 0131     		adds	r1, r1, #1
  80              	.LVL5:
  81              	.L3:
  60:Middlewares/Third_Party/QuantumLeaps_RTEF_qpc/src/qf/qf_mem.c ****         me->blockSize += (QMPoolSize)sizeof(void *);
  82              		.loc 1 60 11 view .LVU16
  60:Middlewares/Third_Party/QuantumLeaps_RTEF_qpc/src/qf/qf_mem.c ****         me->blockSize += (QMPoolSize)sizeof(void *);
  83              		.loc 1 60 14 is_stmt 0 view .LVU17
  84 002a A089     		ldrh	r0, [r4, #12]
  60:Middlewares/Third_Party/QuantumLeaps_RTEF_qpc/src/qf/qf_mem.c ****         me->blockSize += (QMPoolSize)sizeof(void *);
  85              		.loc 1 60 26 view .LVU18
  86 002c ABB2     		uxth	r3, r5
  60:Middlewares/Third_Party/QuantumLeaps_RTEF_qpc/src/qf/qf_mem.c ****         me->blockSize += (QMPoolSize)sizeof(void *);
  87              		.loc 1 60 11 view .LVU19
  88 002e 9842     		cmp	r0, r3
  89 0030 F8D3     		bcc	.L4
  63:Middlewares/Third_Party/QuantumLeaps_RTEF_qpc/src/qf/qf_mem.c ****     }
  64:Middlewares/Third_Party/QuantumLeaps_RTEF_qpc/src/qf/qf_mem.c **** 
  65:Middlewares/Third_Party/QuantumLeaps_RTEF_qpc/src/qf/qf_mem.c ****     // the pool buffer must fit at least one rounded-up block
  66:Middlewares/Third_Party/QuantumLeaps_RTEF_qpc/src/qf/qf_mem.c ****     Q_ASSERT_INCRIT(110, poolSize >= me->blockSize);
  90              		.loc 1 66 5 is_stmt 1 view .LVU20
  91 0032 B842     		cmp	r0, r7
  92 0034 03D8     		bhi	.L10
  67:Middlewares/Third_Party/QuantumLeaps_RTEF_qpc/src/qf/qf_mem.c **** 
  68:Middlewares/Third_Party/QuantumLeaps_RTEF_qpc/src/qf/qf_mem.c ****     // start at the head of the free list
  69:Middlewares/Third_Party/QuantumLeaps_RTEF_qpc/src/qf/qf_mem.c ****     void * *pfb = me->freeHead; // pointer to free block
  93              		.loc 1 69 5 view .LVU21
  94              		.loc 1 69 13 is_stmt 0 view .LVU22
  95 0036 A268     		ldr	r2, [r4, #8]
  96              	.LVL6:
  70:Middlewares/Third_Party/QuantumLeaps_RTEF_qpc/src/qf/qf_mem.c ****     uint32_t nTot = 1U; // the last block already in the list
ARM GAS  C:\Users\main\AppData\Local\Temp\ccwCI0Kr.s 			page 4


  97              		.loc 1 70 5 is_stmt 1 view .LVU23
  71:Middlewares/Third_Party/QuantumLeaps_RTEF_qpc/src/qf/qf_mem.c **** 
  72:Middlewares/Third_Party/QuantumLeaps_RTEF_qpc/src/qf/qf_mem.c ****     // chain all blocks together in a free-list...
  73:Middlewares/Third_Party/QuantumLeaps_RTEF_qpc/src/qf/qf_mem.c ****     for (uint_fast32_t size = poolSize - me->blockSize;
  98              		.loc 1 73 5 view .LVU24
  99              	.LBB2:
 100              		.loc 1 73 10 view .LVU25
 101              		.loc 1 73 24 is_stmt 0 view .LVU26
 102 0038 381A     		subs	r0, r7, r0
 103              	.LVL7:
 104              		.loc 1 73 24 view .LVU27
 105              	.LBE2:
  70:Middlewares/Third_Party/QuantumLeaps_RTEF_qpc/src/qf/qf_mem.c ****     uint32_t nTot = 1U; // the last block already in the list
 106              		.loc 1 70 14 view .LVU28
 107 003a 0125     		movs	r5, #1
 108              	.LVL8:
 109              	.LBB3:
 110              		.loc 1 73 5 view .LVU29
 111 003c 0AE0     		b	.L6
 112              	.LVL9:
 113              	.L10:
 114              		.loc 1 73 5 view .LVU30
 115              	.LBE3:
  66:Middlewares/Third_Party/QuantumLeaps_RTEF_qpc/src/qf/qf_mem.c **** 
 116              		.loc 1 66 5 discriminator 1 view .LVU31
 117 003e 6E21     		movs	r1, #110
 118              	.LVL10:
  66:Middlewares/Third_Party/QuantumLeaps_RTEF_qpc/src/qf/qf_mem.c **** 
 119              		.loc 1 66 5 discriminator 1 view .LVU32
 120 0040 0F48     		ldr	r0, .L12
 121 0042 FFF7FEFF 		bl	Q_onError
 122              	.LVL11:
 123              	.L7:
 124              	.LBB4:
  74:Middlewares/Third_Party/QuantumLeaps_RTEF_qpc/src/qf/qf_mem.c ****          size >= (uint_fast32_t)me->blockSize;
  75:Middlewares/Third_Party/QuantumLeaps_RTEF_qpc/src/qf/qf_mem.c ****          size -= (uint_fast32_t)me->blockSize)
  76:Middlewares/Third_Party/QuantumLeaps_RTEF_qpc/src/qf/qf_mem.c ****     {
  77:Middlewares/Third_Party/QuantumLeaps_RTEF_qpc/src/qf/qf_mem.c ****         pfb[0] = &pfb[inext]; // set the next link to next free block
 125              		.loc 1 77 9 is_stmt 1 view .LVU33
 126              		.loc 1 77 22 is_stmt 0 view .LVU34
 127 0046 8B00     		lsls	r3, r1, #2
 128              		.loc 1 77 18 view .LVU35
 129 0048 D318     		adds	r3, r2, r3
 130              		.loc 1 77 16 view .LVU36
 131 004a 1360     		str	r3, [r2]
  78:Middlewares/Third_Party/QuantumLeaps_RTEF_qpc/src/qf/qf_mem.c ****         pfb = pfb[0]; // advance to the next block
 132              		.loc 1 78 9 is_stmt 1 view .LVU37
 133              	.LVL12:
  79:Middlewares/Third_Party/QuantumLeaps_RTEF_qpc/src/qf/qf_mem.c ****         ++nTot;       // one more free block in the pool
 134              		.loc 1 79 9 view .LVU38
 135 004c 0135     		adds	r5, r5, #1
 136              	.LVL13:
  75:Middlewares/Third_Party/QuantumLeaps_RTEF_qpc/src/qf/qf_mem.c ****     {
 137              		.loc 1 75 10 view .LVU39
  75:Middlewares/Third_Party/QuantumLeaps_RTEF_qpc/src/qf/qf_mem.c ****     {
 138              		.loc 1 75 35 is_stmt 0 view .LVU40
 139 004e A289     		ldrh	r2, [r4, #12]
ARM GAS  C:\Users\main\AppData\Local\Temp\ccwCI0Kr.s 			page 5


  75:Middlewares/Third_Party/QuantumLeaps_RTEF_qpc/src/qf/qf_mem.c ****     {
 140              		.loc 1 75 15 view .LVU41
 141 0050 801A     		subs	r0, r0, r2
 142              	.LVL14:
  78:Middlewares/Third_Party/QuantumLeaps_RTEF_qpc/src/qf/qf_mem.c ****         pfb = pfb[0]; // advance to the next block
 143              		.loc 1 78 13 view .LVU42
 144 0052 1A00     		movs	r2, r3
 145              	.LVL15:
 146              	.L6:
  74:Middlewares/Third_Party/QuantumLeaps_RTEF_qpc/src/qf/qf_mem.c ****          size -= (uint_fast32_t)me->blockSize)
 147              		.loc 1 74 10 is_stmt 1 discriminator 1 view .LVU43
  74:Middlewares/Third_Party/QuantumLeaps_RTEF_qpc/src/qf/qf_mem.c ****          size -= (uint_fast32_t)me->blockSize)
 148              		.loc 1 74 35 is_stmt 0 discriminator 1 view .LVU44
 149 0054 A389     		ldrh	r3, [r4, #12]
  73:Middlewares/Third_Party/QuantumLeaps_RTEF_qpc/src/qf/qf_mem.c ****          size >= (uint_fast32_t)me->blockSize;
 150              		.loc 1 73 5 discriminator 1 view .LVU45
 151 0056 8342     		cmp	r3, r0
 152 0058 F5D9     		bls	.L7
  73:Middlewares/Third_Party/QuantumLeaps_RTEF_qpc/src/qf/qf_mem.c ****          size >= (uint_fast32_t)me->blockSize;
 153              		.loc 1 73 5 discriminator 1 view .LVU46
 154              	.LBE4:
  80:Middlewares/Third_Party/QuantumLeaps_RTEF_qpc/src/qf/qf_mem.c ****     }
  81:Middlewares/Third_Party/QuantumLeaps_RTEF_qpc/src/qf/qf_mem.c ****     pfb[0] = (void * *)0; // the last link points to NULL
 155              		.loc 1 81 5 is_stmt 1 view .LVU47
 156              		.loc 1 81 12 is_stmt 0 view .LVU48
 157 005a 0023     		movs	r3, #0
 158 005c 1360     		str	r3, [r2]
  82:Middlewares/Third_Party/QuantumLeaps_RTEF_qpc/src/qf/qf_mem.c **** 
  83:Middlewares/Third_Party/QuantumLeaps_RTEF_qpc/src/qf/qf_mem.c ****     // dynamic range check
  84:Middlewares/Third_Party/QuantumLeaps_RTEF_qpc/src/qf/qf_mem.c **** #if (QF_MPOOL_CTR_SIZE == 1U)
  85:Middlewares/Third_Party/QuantumLeaps_RTEF_qpc/src/qf/qf_mem.c ****     Q_ASSERT_INCRIT(190, nTot < 0xFFU);
  86:Middlewares/Third_Party/QuantumLeaps_RTEF_qpc/src/qf/qf_mem.c **** #elif (QF_MPOOL_CTR_SIZE == 2U)
  87:Middlewares/Third_Party/QuantumLeaps_RTEF_qpc/src/qf/qf_mem.c ****     Q_ASSERT_INCRIT(190, nTot < 0xFFFFU);
 159              		.loc 1 87 5 is_stmt 1 view .LVU49
 160 005e 094B     		ldr	r3, .L12+4
 161 0060 9D42     		cmp	r5, r3
 162 0062 08D8     		bhi	.L11
  88:Middlewares/Third_Party/QuantumLeaps_RTEF_qpc/src/qf/qf_mem.c **** #endif
  89:Middlewares/Third_Party/QuantumLeaps_RTEF_qpc/src/qf/qf_mem.c **** 
  90:Middlewares/Third_Party/QuantumLeaps_RTEF_qpc/src/qf/qf_mem.c ****     me->nTot  = (QMPoolCtr)nTot;
 163              		.loc 1 90 5 view .LVU50
 164              		.loc 1 90 17 is_stmt 0 view .LVU51
 165 0064 ADB2     		uxth	r5, r5
 166              	.LVL16:
 167              		.loc 1 90 15 view .LVU52
 168 0066 E581     		strh	r5, [r4, #14]
  91:Middlewares/Third_Party/QuantumLeaps_RTEF_qpc/src/qf/qf_mem.c ****     me->nFree = me->nTot; // all blocks are free
 169              		.loc 1 91 5 is_stmt 1 view .LVU53
 170              		.loc 1 91 15 is_stmt 0 view .LVU54
 171 0068 2582     		strh	r5, [r4, #16]
  92:Middlewares/Third_Party/QuantumLeaps_RTEF_qpc/src/qf/qf_mem.c ****     me->start = (void * *)poolSto; // the original start this pool buffer
 172              		.loc 1 92 5 is_stmt 1 view .LVU55
 173              		.loc 1 92 15 is_stmt 0 view .LVU56
 174 006a 2660     		str	r6, [r4]
  93:Middlewares/Third_Party/QuantumLeaps_RTEF_qpc/src/qf/qf_mem.c ****     me->end   = pfb;      // the last block in this pool
 175              		.loc 1 93 5 is_stmt 1 view .LVU57
 176              		.loc 1 93 15 is_stmt 0 view .LVU58
ARM GAS  C:\Users\main\AppData\Local\Temp\ccwCI0Kr.s 			page 6


 177 006c 6260     		str	r2, [r4, #4]
  94:Middlewares/Third_Party/QuantumLeaps_RTEF_qpc/src/qf/qf_mem.c ****     me->nMin  = me->nTot; // the minimum # free blocks
 178              		.loc 1 94 5 is_stmt 1 view .LVU59
 179              		.loc 1 94 15 is_stmt 0 view .LVU60
 180 006e 6582     		strh	r5, [r4, #18]
  95:Middlewares/Third_Party/QuantumLeaps_RTEF_qpc/src/qf/qf_mem.c **** 
  96:Middlewares/Third_Party/QuantumLeaps_RTEF_qpc/src/qf/qf_mem.c ****     QF_CRIT_EXIT();
 181              		.loc 1 96 5 is_stmt 1 view .LVU61
 182 0070 FFF7FEFF 		bl	vPortExitCritical
 183              	.LVL17:
  97:Middlewares/Third_Party/QuantumLeaps_RTEF_qpc/src/qf/qf_mem.c **** }
 184              		.loc 1 97 1 is_stmt 0 view .LVU62
 185              		@ sp needed
 186              	.LVL18:
 187              	.LVL19:
 188              	.LVL20:
 189              		.loc 1 97 1 view .LVU63
 190 0074 F8BD     		pop	{r3, r4, r5, r6, r7, pc}
 191              	.LVL21:
 192              	.L11:
  87:Middlewares/Third_Party/QuantumLeaps_RTEF_qpc/src/qf/qf_mem.c **** #endif
 193              		.loc 1 87 5 discriminator 1 view .LVU64
 194 0076 BE21     		movs	r1, #190
 195              	.LVL22:
  87:Middlewares/Third_Party/QuantumLeaps_RTEF_qpc/src/qf/qf_mem.c **** #endif
 196              		.loc 1 87 5 discriminator 1 view .LVU65
 197 0078 0148     		ldr	r0, .L12
 198              	.LVL23:
  87:Middlewares/Third_Party/QuantumLeaps_RTEF_qpc/src/qf/qf_mem.c **** #endif
 199              		.loc 1 87 5 discriminator 1 view .LVU66
 200 007a FFF7FEFF 		bl	Q_onError
 201              	.LVL24:
 202              	.L13:
  87:Middlewares/Third_Party/QuantumLeaps_RTEF_qpc/src/qf/qf_mem.c **** #endif
 203              		.loc 1 87 5 discriminator 1 view .LVU67
 204 007e C046     		.align	2
 205              	.L12:
 206 0080 00000000 		.word	.LANCHOR0
 207 0084 FEFF0000 		.word	65534
 208              		.cfi_endproc
 209              	.LFE18:
 211              		.section	.text.QMPool_get,"ax",%progbits
 212              		.align	1
 213              		.global	QMPool_get
 214              		.syntax unified
 215              		.code	16
 216              		.thumb_func
 218              	QMPool_get:
 219              	.LVL25:
 220              	.LFB19:
  98:Middlewares/Third_Party/QuantumLeaps_RTEF_qpc/src/qf/qf_mem.c **** 
  99:Middlewares/Third_Party/QuantumLeaps_RTEF_qpc/src/qf/qf_mem.c **** //............................................................................
 100:Middlewares/Third_Party/QuantumLeaps_RTEF_qpc/src/qf/qf_mem.c **** //! @public @memberof QMPool
 101:Middlewares/Third_Party/QuantumLeaps_RTEF_qpc/src/qf/qf_mem.c **** void * QMPool_get(QMPool * const me,
 102:Middlewares/Third_Party/QuantumLeaps_RTEF_qpc/src/qf/qf_mem.c ****     uint_fast16_t const margin,
 103:Middlewares/Third_Party/QuantumLeaps_RTEF_qpc/src/qf/qf_mem.c ****     uint_fast8_t const qsId)
 104:Middlewares/Third_Party/QuantumLeaps_RTEF_qpc/src/qf/qf_mem.c **** {
ARM GAS  C:\Users\main\AppData\Local\Temp\ccwCI0Kr.s 			page 7


 221              		.loc 1 104 1 is_stmt 1 view -0
 222              		.cfi_startproc
 223              		@ args = 0, pretend = 0, frame = 0
 224              		@ frame_needed = 0, uses_anonymous_args = 0
 225              		.loc 1 104 1 is_stmt 0 view .LVU69
 226 0000 70B5     		push	{r4, r5, r6, lr}
 227              	.LCFI1:
 228              		.cfi_def_cfa_offset 16
 229              		.cfi_offset 4, -16
 230              		.cfi_offset 5, -12
 231              		.cfi_offset 6, -8
 232              		.cfi_offset 14, -4
 233 0002 0400     		movs	r4, r0
 234 0004 0D00     		movs	r5, r1
 105:Middlewares/Third_Party/QuantumLeaps_RTEF_qpc/src/qf/qf_mem.c **** #ifndef Q_SPY
 106:Middlewares/Third_Party/QuantumLeaps_RTEF_qpc/src/qf/qf_mem.c ****     Q_UNUSED_PAR(qsId);
 235              		.loc 1 106 5 is_stmt 1 view .LVU70
 107:Middlewares/Third_Party/QuantumLeaps_RTEF_qpc/src/qf/qf_mem.c **** #endif
 108:Middlewares/Third_Party/QuantumLeaps_RTEF_qpc/src/qf/qf_mem.c **** 
 109:Middlewares/Third_Party/QuantumLeaps_RTEF_qpc/src/qf/qf_mem.c ****     QF_CRIT_STAT
 110:Middlewares/Third_Party/QuantumLeaps_RTEF_qpc/src/qf/qf_mem.c ****     QF_CRIT_ENTRY();
 236              		.loc 1 110 5 view .LVU71
 237 0006 FFF7FEFF 		bl	vPortEnterCritical
 238              	.LVL26:
 111:Middlewares/Third_Party/QuantumLeaps_RTEF_qpc/src/qf/qf_mem.c **** 
 112:Middlewares/Third_Party/QuantumLeaps_RTEF_qpc/src/qf/qf_mem.c ****     // get volatile into temporaries
 113:Middlewares/Third_Party/QuantumLeaps_RTEF_qpc/src/qf/qf_mem.c ****     void * *pfb = me->freeHead; // pointer to free block
 239              		.loc 1 113 5 view .LVU72
 240              		.loc 1 113 13 is_stmt 0 view .LVU73
 241 000a A668     		ldr	r6, [r4, #8]
 242              	.LVL27:
 114:Middlewares/Third_Party/QuantumLeaps_RTEF_qpc/src/qf/qf_mem.c ****     QMPoolCtr nFree = me->nFree;
 243              		.loc 1 114 5 is_stmt 1 view .LVU74
 244              		.loc 1 114 15 is_stmt 0 view .LVU75
 245 000c 238A     		ldrh	r3, [r4, #16]
 246 000e 9BB2     		uxth	r3, r3
 247              	.LVL28:
 115:Middlewares/Third_Party/QuantumLeaps_RTEF_qpc/src/qf/qf_mem.c **** 
 116:Middlewares/Third_Party/QuantumLeaps_RTEF_qpc/src/qf/qf_mem.c ****     // have more free blocks than the requested margin?
 117:Middlewares/Third_Party/QuantumLeaps_RTEF_qpc/src/qf/qf_mem.c ****     if (nFree > (QMPoolCtr)margin) {
 248              		.loc 1 117 5 is_stmt 1 view .LVU76
 249              		.loc 1 117 17 is_stmt 0 view .LVU77
 250 0010 ADB2     		uxth	r5, r5
 251              	.LVL29:
 252              		.loc 1 117 8 view .LVU78
 253 0012 9D42     		cmp	r5, r3
 254 0014 2ED2     		bcs	.L22
 255              	.LBB5:
 118:Middlewares/Third_Party/QuantumLeaps_RTEF_qpc/src/qf/qf_mem.c ****         Q_ASSERT_INCRIT(310, pfb != (void * *)0);
 256              		.loc 1 118 9 is_stmt 1 view .LVU79
 257 0016 002E     		cmp	r6, #0
 258 0018 11D0     		beq	.L23
 119:Middlewares/Third_Party/QuantumLeaps_RTEF_qpc/src/qf/qf_mem.c **** 
 120:Middlewares/Third_Party/QuantumLeaps_RTEF_qpc/src/qf/qf_mem.c ****         void * * const pfb_next = pfb[0]; // fast temporary
 259              		.loc 1 120 9 view .LVU80
 260              		.loc 1 120 24 is_stmt 0 view .LVU81
 261 001a 3268     		ldr	r2, [r6]
ARM GAS  C:\Users\main\AppData\Local\Temp\ccwCI0Kr.s 			page 8


 262              	.LVL30:
 121:Middlewares/Third_Party/QuantumLeaps_RTEF_qpc/src/qf/qf_mem.c **** 
 122:Middlewares/Third_Party/QuantumLeaps_RTEF_qpc/src/qf/qf_mem.c ****         --nFree; // one less free block
 263              		.loc 1 122 9 is_stmt 1 view .LVU82
 264 001c 013B     		subs	r3, r3, #1
 265              	.LVL31:
 266              		.loc 1 122 9 is_stmt 0 view .LVU83
 267 001e 9BB2     		uxth	r3, r3
 268              	.LVL32:
 123:Middlewares/Third_Party/QuantumLeaps_RTEF_qpc/src/qf/qf_mem.c ****         if (nFree == 0U) { // is the pool becoming empty?
 269              		.loc 1 123 9 is_stmt 1 view .LVU84
 270              		.loc 1 123 12 is_stmt 0 view .LVU85
 271 0020 002B     		cmp	r3, #0
 272 0022 16D1     		bne	.L17
 124:Middlewares/Third_Party/QuantumLeaps_RTEF_qpc/src/qf/qf_mem.c ****             // pool is becoming empty, so the next free block must be NULL
 125:Middlewares/Third_Party/QuantumLeaps_RTEF_qpc/src/qf/qf_mem.c ****             Q_ASSERT_INCRIT(320, pfb_next == (void * *)0);
 273              		.loc 1 125 13 is_stmt 1 view .LVU86
 274 0024 002A     		cmp	r2, #0
 275 0026 0FD1     		bne	.L24
 126:Middlewares/Third_Party/QuantumLeaps_RTEF_qpc/src/qf/qf_mem.c **** 
 127:Middlewares/Third_Party/QuantumLeaps_RTEF_qpc/src/qf/qf_mem.c ****             me->nFree = 0U; // no more free blocks
 276              		.loc 1 127 13 view .LVU87
 277              		.loc 1 127 23 is_stmt 0 view .LVU88
 278 0028 0023     		movs	r3, #0
 279              	.LVL33:
 280              		.loc 1 127 23 view .LVU89
 281 002a 2382     		strh	r3, [r4, #16]
 128:Middlewares/Third_Party/QuantumLeaps_RTEF_qpc/src/qf/qf_mem.c ****             me->nMin = 0U;  // remember that the pool got empty
 282              		.loc 1 128 13 is_stmt 1 view .LVU90
 283              		.loc 1 128 22 is_stmt 0 view .LVU91
 284 002c 6382     		strh	r3, [r4, #18]
 285              	.L19:
 129:Middlewares/Third_Party/QuantumLeaps_RTEF_qpc/src/qf/qf_mem.c ****         }
 130:Middlewares/Third_Party/QuantumLeaps_RTEF_qpc/src/qf/qf_mem.c ****         else { // the pool is NOT empty
 131:Middlewares/Third_Party/QuantumLeaps_RTEF_qpc/src/qf/qf_mem.c **** 
 132:Middlewares/Third_Party/QuantumLeaps_RTEF_qpc/src/qf/qf_mem.c ****             // the next free-block pointer must be in range
 133:Middlewares/Third_Party/QuantumLeaps_RTEF_qpc/src/qf/qf_mem.c ****             Q_ASSERT_INCRIT(330,
 134:Middlewares/Third_Party/QuantumLeaps_RTEF_qpc/src/qf/qf_mem.c ****                 (me->start <= pfb_next) && (pfb_next <= me->end));
 135:Middlewares/Third_Party/QuantumLeaps_RTEF_qpc/src/qf/qf_mem.c **** 
 136:Middlewares/Third_Party/QuantumLeaps_RTEF_qpc/src/qf/qf_mem.c ****             me->nFree = nFree; // update the original
 137:Middlewares/Third_Party/QuantumLeaps_RTEF_qpc/src/qf/qf_mem.c ****             if (me->nMin > nFree) { // is this the new minimum?
 138:Middlewares/Third_Party/QuantumLeaps_RTEF_qpc/src/qf/qf_mem.c ****                 me->nMin = nFree; // remember the minimum so far
 139:Middlewares/Third_Party/QuantumLeaps_RTEF_qpc/src/qf/qf_mem.c ****             }
 140:Middlewares/Third_Party/QuantumLeaps_RTEF_qpc/src/qf/qf_mem.c ****         }
 141:Middlewares/Third_Party/QuantumLeaps_RTEF_qpc/src/qf/qf_mem.c **** 
 142:Middlewares/Third_Party/QuantumLeaps_RTEF_qpc/src/qf/qf_mem.c ****         me->freeHead = pfb_next; // set the head to the next free block
 286              		.loc 1 142 9 is_stmt 1 view .LVU92
 287              		.loc 1 142 22 is_stmt 0 view .LVU93
 288 002e A260     		str	r2, [r4, #8]
 143:Middlewares/Third_Party/QuantumLeaps_RTEF_qpc/src/qf/qf_mem.c **** 
 144:Middlewares/Third_Party/QuantumLeaps_RTEF_qpc/src/qf/qf_mem.c ****         // change the allocated block contents so that it is different
 145:Middlewares/Third_Party/QuantumLeaps_RTEF_qpc/src/qf/qf_mem.c ****         // than a free block inside the pool.
 146:Middlewares/Third_Party/QuantumLeaps_RTEF_qpc/src/qf/qf_mem.c ****         pfb[0] = &me->end[1]; // invalid location beyond the end
 289              		.loc 1 146 9 is_stmt 1 view .LVU94
 290              		.loc 1 146 21 is_stmt 0 view .LVU95
 291 0030 6368     		ldr	r3, [r4, #4]
 292              		.loc 1 146 18 view .LVU96
ARM GAS  C:\Users\main\AppData\Local\Temp\ccwCI0Kr.s 			page 9


 293 0032 0433     		adds	r3, r3, #4
 294              		.loc 1 146 16 view .LVU97
 295 0034 3360     		str	r3, [r6]
 147:Middlewares/Third_Party/QuantumLeaps_RTEF_qpc/src/qf/qf_mem.c **** 
 148:Middlewares/Third_Party/QuantumLeaps_RTEF_qpc/src/qf/qf_mem.c ****         QS_BEGIN_PRE(QS_QF_MPOOL_GET, qsId)
 296              		.loc 1 148 9 is_stmt 1 view .LVU98
 149:Middlewares/Third_Party/QuantumLeaps_RTEF_qpc/src/qf/qf_mem.c ****             QS_TIME_PRE();         // timestamp
 297              		.loc 1 149 13 view .LVU99
 150:Middlewares/Third_Party/QuantumLeaps_RTEF_qpc/src/qf/qf_mem.c ****             QS_OBJ_PRE(me);        // this memory pool
 298              		.loc 1 150 13 view .LVU100
 151:Middlewares/Third_Party/QuantumLeaps_RTEF_qpc/src/qf/qf_mem.c ****             QS_MPC_PRE(nFree);     // # free blocks in the pool
 299              		.loc 1 151 13 view .LVU101
 152:Middlewares/Third_Party/QuantumLeaps_RTEF_qpc/src/qf/qf_mem.c ****             QS_MPC_PRE(me->nMin);  // min # free blocks ever in the pool
 300              		.loc 1 152 13 view .LVU102
 301              	.LVL34:
 302              	.L15:
 303              		.loc 1 152 13 is_stmt 0 view .LVU103
 304              	.LBE5:
 153:Middlewares/Third_Party/QuantumLeaps_RTEF_qpc/src/qf/qf_mem.c ****         QS_END_PRE()
 154:Middlewares/Third_Party/QuantumLeaps_RTEF_qpc/src/qf/qf_mem.c ****     }
 155:Middlewares/Third_Party/QuantumLeaps_RTEF_qpc/src/qf/qf_mem.c ****     else { // don't have enough free blocks at this point
 156:Middlewares/Third_Party/QuantumLeaps_RTEF_qpc/src/qf/qf_mem.c ****         pfb = (void * *)0;
 157:Middlewares/Third_Party/QuantumLeaps_RTEF_qpc/src/qf/qf_mem.c **** 
 158:Middlewares/Third_Party/QuantumLeaps_RTEF_qpc/src/qf/qf_mem.c ****         QS_BEGIN_PRE(QS_QF_MPOOL_GET_ATTEMPT, qsId)
 159:Middlewares/Third_Party/QuantumLeaps_RTEF_qpc/src/qf/qf_mem.c ****             QS_TIME_PRE();         // timestamp
 305              		.loc 1 159 13 is_stmt 1 view .LVU104
 160:Middlewares/Third_Party/QuantumLeaps_RTEF_qpc/src/qf/qf_mem.c ****             QS_OBJ_PRE(me);        // this memory pool
 306              		.loc 1 160 13 view .LVU105
 161:Middlewares/Third_Party/QuantumLeaps_RTEF_qpc/src/qf/qf_mem.c ****             QS_MPC_PRE(nFree);     // # free blocks in the pool
 307              		.loc 1 161 13 view .LVU106
 162:Middlewares/Third_Party/QuantumLeaps_RTEF_qpc/src/qf/qf_mem.c ****             QS_MPC_PRE(margin);    // the requested margin
 308              		.loc 1 162 13 view .LVU107
 163:Middlewares/Third_Party/QuantumLeaps_RTEF_qpc/src/qf/qf_mem.c ****         QS_END_PRE()
 164:Middlewares/Third_Party/QuantumLeaps_RTEF_qpc/src/qf/qf_mem.c ****     }
 165:Middlewares/Third_Party/QuantumLeaps_RTEF_qpc/src/qf/qf_mem.c **** 
 166:Middlewares/Third_Party/QuantumLeaps_RTEF_qpc/src/qf/qf_mem.c ****     QF_CRIT_EXIT();
 309              		.loc 1 166 5 view .LVU108
 310 0036 FFF7FEFF 		bl	vPortExitCritical
 311              	.LVL35:
 167:Middlewares/Third_Party/QuantumLeaps_RTEF_qpc/src/qf/qf_mem.c **** 
 168:Middlewares/Third_Party/QuantumLeaps_RTEF_qpc/src/qf/qf_mem.c ****     return (void *)pfb; // return the block or NULL pointer to the caller
 312              		.loc 1 168 5 view .LVU109
 169:Middlewares/Third_Party/QuantumLeaps_RTEF_qpc/src/qf/qf_mem.c **** }
 313              		.loc 1 169 1 is_stmt 0 view .LVU110
 314 003a 3000     		movs	r0, r6
 315              		@ sp needed
 316              	.LVL36:
 317              	.LVL37:
 318              		.loc 1 169 1 view .LVU111
 319 003c 70BD     		pop	{r4, r5, r6, pc}
 320              	.LVL38:
 321              	.L23:
 322              	.LBB6:
 118:Middlewares/Third_Party/QuantumLeaps_RTEF_qpc/src/qf/qf_mem.c **** 
 323              		.loc 1 118 9 discriminator 1 view .LVU112
 324 003e 9B21     		movs	r1, #155
 325 0040 4900     		lsls	r1, r1, #1
ARM GAS  C:\Users\main\AppData\Local\Temp\ccwCI0Kr.s 			page 10


 326 0042 0D48     		ldr	r0, .L25
 327 0044 FFF7FEFF 		bl	Q_onError
 328              	.LVL39:
 329              	.L24:
 125:Middlewares/Third_Party/QuantumLeaps_RTEF_qpc/src/qf/qf_mem.c **** 
 330              		.loc 1 125 13 discriminator 1 view .LVU113
 331 0048 A021     		movs	r1, #160
 332 004a 4900     		lsls	r1, r1, #1
 333 004c 0A48     		ldr	r0, .L25
 334 004e FFF7FEFF 		bl	Q_onError
 335              	.LVL40:
 336              	.L17:
 133:Middlewares/Third_Party/QuantumLeaps_RTEF_qpc/src/qf/qf_mem.c ****                 (me->start <= pfb_next) && (pfb_next <= me->end));
 337              		.loc 1 133 13 is_stmt 1 view .LVU114
 338 0052 2168     		ldr	r1, [r4]
 339 0054 9142     		cmp	r1, r2
 340 0056 08D8     		bhi	.L20
 133:Middlewares/Third_Party/QuantumLeaps_RTEF_qpc/src/qf/qf_mem.c ****                 (me->start <= pfb_next) && (pfb_next <= me->end));
 341              		.loc 1 133 13 is_stmt 0 discriminator 2 view .LVU115
 342 0058 6168     		ldr	r1, [r4, #4]
 343 005a 9142     		cmp	r1, r2
 344 005c 05D3     		bcc	.L20
 136:Middlewares/Third_Party/QuantumLeaps_RTEF_qpc/src/qf/qf_mem.c ****             if (me->nMin > nFree) { // is this the new minimum?
 345              		.loc 1 136 13 is_stmt 1 view .LVU116
 136:Middlewares/Third_Party/QuantumLeaps_RTEF_qpc/src/qf/qf_mem.c ****             if (me->nMin > nFree) { // is this the new minimum?
 346              		.loc 1 136 23 is_stmt 0 view .LVU117
 347 005e 2382     		strh	r3, [r4, #16]
 137:Middlewares/Third_Party/QuantumLeaps_RTEF_qpc/src/qf/qf_mem.c ****                 me->nMin = nFree; // remember the minimum so far
 348              		.loc 1 137 13 is_stmt 1 view .LVU118
 137:Middlewares/Third_Party/QuantumLeaps_RTEF_qpc/src/qf/qf_mem.c ****                 me->nMin = nFree; // remember the minimum so far
 349              		.loc 1 137 19 is_stmt 0 view .LVU119
 350 0060 618A     		ldrh	r1, [r4, #18]
 137:Middlewares/Third_Party/QuantumLeaps_RTEF_qpc/src/qf/qf_mem.c ****                 me->nMin = nFree; // remember the minimum so far
 351              		.loc 1 137 16 view .LVU120
 352 0062 9942     		cmp	r1, r3
 353 0064 E3D9     		bls	.L19
 138:Middlewares/Third_Party/QuantumLeaps_RTEF_qpc/src/qf/qf_mem.c ****             }
 354              		.loc 1 138 17 is_stmt 1 view .LVU121
 138:Middlewares/Third_Party/QuantumLeaps_RTEF_qpc/src/qf/qf_mem.c ****             }
 355              		.loc 1 138 26 is_stmt 0 view .LVU122
 356 0066 6382     		strh	r3, [r4, #18]
 357 0068 E1E7     		b	.L19
 358              	.L20:
 133:Middlewares/Third_Party/QuantumLeaps_RTEF_qpc/src/qf/qf_mem.c ****                 (me->start <= pfb_next) && (pfb_next <= me->end));
 359              		.loc 1 133 13 discriminator 3 view .LVU123
 360 006a A521     		movs	r1, #165
 361 006c 4900     		lsls	r1, r1, #1
 362 006e 0248     		ldr	r0, .L25
 363 0070 FFF7FEFF 		bl	Q_onError
 364              	.LVL41:
 365              	.L22:
 133:Middlewares/Third_Party/QuantumLeaps_RTEF_qpc/src/qf/qf_mem.c ****                 (me->start <= pfb_next) && (pfb_next <= me->end));
 366              		.loc 1 133 13 discriminator 3 view .LVU124
 367              	.LBE6:
 156:Middlewares/Third_Party/QuantumLeaps_RTEF_qpc/src/qf/qf_mem.c **** 
 368              		.loc 1 156 13 view .LVU125
 369 0074 0026     		movs	r6, #0
ARM GAS  C:\Users\main\AppData\Local\Temp\ccwCI0Kr.s 			page 11


 370              	.LVL42:
 156:Middlewares/Third_Party/QuantumLeaps_RTEF_qpc/src/qf/qf_mem.c **** 
 371              		.loc 1 156 13 view .LVU126
 372 0076 DEE7     		b	.L15
 373              	.L26:
 374              		.align	2
 375              	.L25:
 376 0078 00000000 		.word	.LANCHOR0
 377              		.cfi_endproc
 378              	.LFE19:
 380              		.section	.text.QMPool_put,"ax",%progbits
 381              		.align	1
 382              		.global	QMPool_put
 383              		.syntax unified
 384              		.code	16
 385              		.thumb_func
 387              	QMPool_put:
 388              	.LVL43:
 389              	.LFB20:
 170:Middlewares/Third_Party/QuantumLeaps_RTEF_qpc/src/qf/qf_mem.c **** 
 171:Middlewares/Third_Party/QuantumLeaps_RTEF_qpc/src/qf/qf_mem.c **** //............................................................................
 172:Middlewares/Third_Party/QuantumLeaps_RTEF_qpc/src/qf/qf_mem.c **** //! @public @memberof QMPool
 173:Middlewares/Third_Party/QuantumLeaps_RTEF_qpc/src/qf/qf_mem.c **** void QMPool_put(QMPool * const me,
 174:Middlewares/Third_Party/QuantumLeaps_RTEF_qpc/src/qf/qf_mem.c ****     void * const block,
 175:Middlewares/Third_Party/QuantumLeaps_RTEF_qpc/src/qf/qf_mem.c ****     uint_fast8_t const qsId)
 176:Middlewares/Third_Party/QuantumLeaps_RTEF_qpc/src/qf/qf_mem.c **** {
 390              		.loc 1 176 1 is_stmt 1 view -0
 391              		.cfi_startproc
 392              		@ args = 0, pretend = 0, frame = 0
 393              		@ frame_needed = 0, uses_anonymous_args = 0
 394              		.loc 1 176 1 is_stmt 0 view .LVU128
 395 0000 70B5     		push	{r4, r5, r6, lr}
 396              	.LCFI2:
 397              		.cfi_def_cfa_offset 16
 398              		.cfi_offset 4, -16
 399              		.cfi_offset 5, -12
 400              		.cfi_offset 6, -8
 401              		.cfi_offset 14, -4
 402 0002 0400     		movs	r4, r0
 403 0004 0D00     		movs	r5, r1
 177:Middlewares/Third_Party/QuantumLeaps_RTEF_qpc/src/qf/qf_mem.c **** #ifndef Q_SPY
 178:Middlewares/Third_Party/QuantumLeaps_RTEF_qpc/src/qf/qf_mem.c ****     Q_UNUSED_PAR(qsId);
 404              		.loc 1 178 5 is_stmt 1 view .LVU129
 179:Middlewares/Third_Party/QuantumLeaps_RTEF_qpc/src/qf/qf_mem.c **** #endif
 180:Middlewares/Third_Party/QuantumLeaps_RTEF_qpc/src/qf/qf_mem.c **** 
 181:Middlewares/Third_Party/QuantumLeaps_RTEF_qpc/src/qf/qf_mem.c ****     void * * const pfb = (void * *)block; // pointer to free block
 405              		.loc 1 181 5 view .LVU130
 406              	.LVL44:
 182:Middlewares/Third_Party/QuantumLeaps_RTEF_qpc/src/qf/qf_mem.c **** 
 183:Middlewares/Third_Party/QuantumLeaps_RTEF_qpc/src/qf/qf_mem.c ****     QF_CRIT_STAT
 184:Middlewares/Third_Party/QuantumLeaps_RTEF_qpc/src/qf/qf_mem.c ****     QF_CRIT_ENTRY();
 407              		.loc 1 184 5 view .LVU131
 408 0006 FFF7FEFF 		bl	vPortEnterCritical
 409              	.LVL45:
 185:Middlewares/Third_Party/QuantumLeaps_RTEF_qpc/src/qf/qf_mem.c **** 
 186:Middlewares/Third_Party/QuantumLeaps_RTEF_qpc/src/qf/qf_mem.c ****     // get volatile into temporaries
 187:Middlewares/Third_Party/QuantumLeaps_RTEF_qpc/src/qf/qf_mem.c ****     void * * const freeHead = me->freeHead;
ARM GAS  C:\Users\main\AppData\Local\Temp\ccwCI0Kr.s 			page 12


 410              		.loc 1 187 5 view .LVU132
 411              		.loc 1 187 20 is_stmt 0 view .LVU133
 412 000a A168     		ldr	r1, [r4, #8]
 413              	.LVL46:
 188:Middlewares/Third_Party/QuantumLeaps_RTEF_qpc/src/qf/qf_mem.c ****     QMPoolCtr nFree = me->nFree;
 414              		.loc 1 188 5 is_stmt 1 view .LVU134
 415              		.loc 1 188 15 is_stmt 0 view .LVU135
 416 000c 238A     		ldrh	r3, [r4, #16]
 417 000e 9BB2     		uxth	r3, r3
 418              	.LVL47:
 189:Middlewares/Third_Party/QuantumLeaps_RTEF_qpc/src/qf/qf_mem.c **** 
 190:Middlewares/Third_Party/QuantumLeaps_RTEF_qpc/src/qf/qf_mem.c ****     Q_REQUIRE_INCRIT(400, nFree < me->nTot);
 419              		.loc 1 190 5 is_stmt 1 view .LVU136
 420 0010 E289     		ldrh	r2, [r4, #14]
 421 0012 9A42     		cmp	r2, r3
 422 0014 0DD9     		bls	.L31
 191:Middlewares/Third_Party/QuantumLeaps_RTEF_qpc/src/qf/qf_mem.c ****     Q_REQUIRE_INCRIT(410, (me->start <= pfb) && (pfb <= me->end));
 423              		.loc 1 191 5 view .LVU137
 424 0016 2268     		ldr	r2, [r4]
 425 0018 AA42     		cmp	r2, r5
 426 001a 0FD8     		bhi	.L29
 427              		.loc 1 191 5 is_stmt 0 discriminator 2 view .LVU138
 428 001c 6268     		ldr	r2, [r4, #4]
 429 001e AA42     		cmp	r2, r5
 430 0020 0CD3     		bcc	.L29
 192:Middlewares/Third_Party/QuantumLeaps_RTEF_qpc/src/qf/qf_mem.c **** 
 193:Middlewares/Third_Party/QuantumLeaps_RTEF_qpc/src/qf/qf_mem.c ****     ++nFree; // one more free block in this pool
 431              		.loc 1 193 5 is_stmt 1 view .LVU139
 432 0022 0133     		adds	r3, r3, #1
 433              	.LVL48:
 434              		.loc 1 193 5 is_stmt 0 view .LVU140
 435 0024 9BB2     		uxth	r3, r3
 436              	.LVL49:
 194:Middlewares/Third_Party/QuantumLeaps_RTEF_qpc/src/qf/qf_mem.c **** 
 195:Middlewares/Third_Party/QuantumLeaps_RTEF_qpc/src/qf/qf_mem.c ****     me->freeHead = pfb; // set as new head of the free list
 437              		.loc 1 195 5 is_stmt 1 view .LVU141
 438              		.loc 1 195 18 is_stmt 0 view .LVU142
 439 0026 A560     		str	r5, [r4, #8]
 196:Middlewares/Third_Party/QuantumLeaps_RTEF_qpc/src/qf/qf_mem.c ****     me->nFree     = nFree;
 440              		.loc 1 196 5 is_stmt 1 view .LVU143
 441              		.loc 1 196 19 is_stmt 0 view .LVU144
 442 0028 2382     		strh	r3, [r4, #16]
 197:Middlewares/Third_Party/QuantumLeaps_RTEF_qpc/src/qf/qf_mem.c ****     pfb[0]        = freeHead; // link into the list
 443              		.loc 1 197 5 is_stmt 1 view .LVU145
 444              		.loc 1 197 19 is_stmt 0 view .LVU146
 445 002a 2960     		str	r1, [r5]
 198:Middlewares/Third_Party/QuantumLeaps_RTEF_qpc/src/qf/qf_mem.c **** 
 199:Middlewares/Third_Party/QuantumLeaps_RTEF_qpc/src/qf/qf_mem.c ****     QS_BEGIN_PRE(QS_QF_MPOOL_PUT, qsId)
 446              		.loc 1 199 5 is_stmt 1 view .LVU147
 200:Middlewares/Third_Party/QuantumLeaps_RTEF_qpc/src/qf/qf_mem.c ****         QS_TIME_PRE();         // timestamp
 447              		.loc 1 200 9 view .LVU148
 201:Middlewares/Third_Party/QuantumLeaps_RTEF_qpc/src/qf/qf_mem.c ****         QS_OBJ_PRE(me);        // this memory pool
 448              		.loc 1 201 9 view .LVU149
 202:Middlewares/Third_Party/QuantumLeaps_RTEF_qpc/src/qf/qf_mem.c ****         QS_MPC_PRE(nFree);     // the # free blocks in the pool
 449              		.loc 1 202 9 view .LVU150
 203:Middlewares/Third_Party/QuantumLeaps_RTEF_qpc/src/qf/qf_mem.c ****     QS_END_PRE()
 204:Middlewares/Third_Party/QuantumLeaps_RTEF_qpc/src/qf/qf_mem.c **** 
ARM GAS  C:\Users\main\AppData\Local\Temp\ccwCI0Kr.s 			page 13


 205:Middlewares/Third_Party/QuantumLeaps_RTEF_qpc/src/qf/qf_mem.c ****     QF_CRIT_EXIT();
 450              		.loc 1 205 5 view .LVU151
 451 002c FFF7FEFF 		bl	vPortExitCritical
 452              	.LVL50:
 206:Middlewares/Third_Party/QuantumLeaps_RTEF_qpc/src/qf/qf_mem.c **** }
 453              		.loc 1 206 1 is_stmt 0 view .LVU152
 454              		@ sp needed
 455              	.LVL51:
 456              	.LVL52:
 457              		.loc 1 206 1 view .LVU153
 458 0030 70BD     		pop	{r4, r5, r6, pc}
 459              	.LVL53:
 460              	.L31:
 190:Middlewares/Third_Party/QuantumLeaps_RTEF_qpc/src/qf/qf_mem.c ****     Q_REQUIRE_INCRIT(410, (me->start <= pfb) && (pfb <= me->end));
 461              		.loc 1 190 5 discriminator 1 view .LVU154
 462 0032 C821     		movs	r1, #200
 463              	.LVL54:
 190:Middlewares/Third_Party/QuantumLeaps_RTEF_qpc/src/qf/qf_mem.c ****     Q_REQUIRE_INCRIT(410, (me->start <= pfb) && (pfb <= me->end));
 464              		.loc 1 190 5 discriminator 1 view .LVU155
 465 0034 4900     		lsls	r1, r1, #1
 466 0036 0448     		ldr	r0, .L32
 467 0038 FFF7FEFF 		bl	Q_onError
 468              	.LVL55:
 469              	.L29:
 191:Middlewares/Third_Party/QuantumLeaps_RTEF_qpc/src/qf/qf_mem.c **** 
 470              		.loc 1 191 5 discriminator 3 view .LVU156
 471 003c CD21     		movs	r1, #205
 472              	.LVL56:
 191:Middlewares/Third_Party/QuantumLeaps_RTEF_qpc/src/qf/qf_mem.c **** 
 473              		.loc 1 191 5 discriminator 3 view .LVU157
 474 003e 4900     		lsls	r1, r1, #1
 475 0040 0148     		ldr	r0, .L32
 476 0042 FFF7FEFF 		bl	Q_onError
 477              	.LVL57:
 478              	.L33:
 191:Middlewares/Third_Party/QuantumLeaps_RTEF_qpc/src/qf/qf_mem.c **** 
 479              		.loc 1 191 5 discriminator 3 view .LVU158
 480 0046 C046     		.align	2
 481              	.L32:
 482 0048 00000000 		.word	.LANCHOR0
 483              		.cfi_endproc
 484              	.LFE20:
 486              		.section	.rodata.Q_this_module_,"a"
 487              		.align	2
 488              		.set	.LANCHOR0,. + 0
 491              	Q_this_module_:
 492 0000 71665F6D 		.ascii	"qf_mem\000"
 492      656D00
 493              		.text
 494              	.Letext0:
 495              		.file 2 "c:\\program files (x86)\\gnu arm embedded toolchain\\10 2021.10\\arm-none-eabi\\include\\
 496              		.file 3 "c:\\program files (x86)\\gnu arm embedded toolchain\\10 2021.10\\arm-none-eabi\\include\\
 497              		.file 4 "c:\\program files (x86)\\gnu arm embedded toolchain\\10 2021.10\\arm-none-eabi\\include\\
 498              		.file 5 "Middlewares/Third_Party/QuantumLeaps_RTEF_qpc/include/qmpool.h"
 499              		.file 6 "Middlewares/Third_Party/FreeRTOS/Source/portable/GCC/ARM_CM0/portmacro.h"
 500              		.file 7 "Middlewares/Third_Party/QuantumLeaps_RTEF_qpc/include/qsafe.h"
ARM GAS  C:\Users\main\AppData\Local\Temp\ccwCI0Kr.s 			page 14

